
84a7e37d-9583-4eb0-94bc-cfd416148fa8.elf:     file format elf32-littlearm
84a7e37d-9583-4eb0-94bc-cfd416148fa8.elf
architecture: arm, flags 0x00000150:
HAS_SYMS, DYNAMIC, D_PAGED
start address 0x00000020

Program Header:
0x70000001 off    0x000170a0 vaddr 0x000070a0 paddr 0x000070a0 align 2**2
         filesz 0x000004b0 memsz 0x000004b0 flags r--
    LOAD off    0x00010000 vaddr 0x00000000 paddr 0x00000000 align 2**16
         filesz 0x00005f68 memsz 0x00005f68 flags r-x
    LOAD off    0x00015f68 vaddr 0x00005f68 paddr 0x00005f68 align 2**16
         filesz 0x0000193c memsz 0x0000193c flags r--
    LOAD off    0x00018000 vaddr 0x00008000 paddr 0x00008000 align 2**16
         filesz 0x00000090 memsz 0x0000a100 flags rw-
 DYNAMIC off    0x0001766c vaddr 0x0000766c paddr 0x0000766c align 2**2
         filesz 0x00000080 memsz 0x00000080 flags rw-

Dynamic Section:
  HASH                 0x0000785c
  STRTAB               0x000077bc
  SYMTAB               0x000076ec
  STRSZ                0x0000009f
  SYMENT               0x00000010
  DEBUG                0x00000000
  REL                  0x00007584
  RELSZ                0x000000e8
  RELENT               0x00000008
  FLAGS_1              0x08000000
  RELCOUNT             0x00000013
private flags = 5000400: [Version5 EABI] [hard-float ABI]

Sections:
Idx Name          Size      VMA       LMA       File off  Algn
  0 .ta_head      00000020  00000000  00000000  00010000  2**3
                  CONTENTS, ALLOC, LOAD, DATA
  1 .text         00005f48  00000020  00000020  00010020  2**3
                  CONTENTS, ALLOC, LOAD, READONLY, CODE
  2 .rodata       0000103b  00005f68  00005f68  00015f68  2**2
                  CONTENTS, ALLOC, LOAD, READONLY, DATA
  3 .ARM.extab    000000cc  00006fa4  00006fa4  00016fa4  2**2
                  CONTENTS, ALLOC, LOAD, READONLY, DATA
  4 .ARM.extab.text.__aeabi_ldivmod 0000000c  00007070  00007070  00017070  2**2
                  CONTENTS, ALLOC, LOAD, READONLY, DATA
  5 .ARM.extab.text.__aeabi_uldivmod 0000000c  0000707c  0000707c  0001707c  2**2
                  CONTENTS, ALLOC, LOAD, READONLY, DATA
  6 .ARM.extab.text.utee_panic 0000000c  00007088  00007088  00017088  2**2
                  CONTENTS, ALLOC, LOAD, READONLY, DATA
  7 .ARM.extab.text.unlikely 0000000c  00007094  00007094  00017094  2**2
                  CONTENTS, ALLOC, LOAD, READONLY, DATA
  8 .ARM.exidx    000004b0  000070a0  000070a0  000170a0  2**2
                  CONTENTS, ALLOC, LOAD, READONLY, DATA
  9 .got          00000034  00007550  00007550  00017550  2**2
                  CONTENTS, ALLOC, LOAD, DATA
 10 .dynsym       000000d0  000076ec  000076ec  000176ec  2**2
                  CONTENTS, ALLOC, LOAD, READONLY, DATA
 11 .rel.got      00000050  0000761c  0000761c  0001761c  2**2
                  CONTENTS, ALLOC, LOAD, READONLY, DATA
 12 .dynamic      00000080  0000766c  0000766c  0001766c  2**2
                  CONTENTS, ALLOC, LOAD, DATA
 13 .dynstr       0000009f  000077bc  000077bc  000177bc  2**0
                  CONTENTS, ALLOC, LOAD, READONLY, DATA
 14 .hash         00000048  0000785c  0000785c  0001785c  2**2
                  CONTENTS, ALLOC, LOAD, READONLY, DATA
 15 .data         00000090  00008000  00008000  00018000  2**2
                  CONTENTS, ALLOC, LOAD, DATA
 16 .bss          0000a070  00008090  00008090  00018090  2**2
                  ALLOC
 17 .debug_info   0000dfb5  00000000  00000000  00018090  2**0
                  CONTENTS, READONLY, DEBUGGING
 18 .debug_abbrev 00002720  00000000  00000000  00026045  2**0
                  CONTENTS, READONLY, DEBUGGING
 19 .debug_loc    0000d52a  00000000  00000000  00028765  2**0
                  CONTENTS, READONLY, DEBUGGING
 20 .debug_aranges 000004f0  00000000  00000000  00035c90  2**3
                  CONTENTS, READONLY, DEBUGGING
 21 .debug_ranges 00000790  00000000  00000000  00036180  2**3
                  CONTENTS, READONLY, DEBUGGING
 22 .debug_macro  0000f7a1  00000000  00000000  00036910  2**0
                  CONTENTS, READONLY, DEBUGGING
 23 .debug_line   00004bf0  00000000  00000000  000460b1  2**0
                  CONTENTS, READONLY, DEBUGGING
 24 .debug_str    00010951  00000000  00000000  0004aca1  2**0
                  CONTENTS, READONLY, DEBUGGING
 25 .comment      0000002d  00000000  00000000  0005b5f2  2**0
                  CONTENTS, READONLY
 26 .ARM.attributes 00000036  00000000  00000000  0005b61f  2**0
                  CONTENTS, READONLY
 27 .debug_frame  000016cc  00000000  00000000  0005b658  2**2
                  CONTENTS, READONLY, DEBUGGING
 28 .rel.dyn      00000098  00007584  00007584  00017584  2**2
                  CONTENTS, ALLOC, LOAD, READONLY, DATA
SYMBOL TABLE:
00000000 l    d  .ta_head	00000000 .ta_head
00000020 l    d  .text	00000000 .text
00005f68 l    d  .rodata	00000000 .rodata
00006fa4 l    d  .ARM.extab	00000000 .ARM.extab
00007070 l    d  .ARM.extab.text.__aeabi_ldivmod	00000000 .ARM.extab.text.__aeabi_ldivmod
0000707c l    d  .ARM.extab.text.__aeabi_uldivmod	00000000 .ARM.extab.text.__aeabi_uldivmod
00007088 l    d  .ARM.extab.text.utee_panic	00000000 .ARM.extab.text.utee_panic
00007094 l    d  .ARM.extab.text.unlikely	00000000 .ARM.extab.text.unlikely
000070a0 l    d  .ARM.exidx	00000000 .ARM.exidx
00007550 l    d  .got	00000000 .got
0000761c l    d  .rel.got	00000000 .rel.got
0000766c l    d  .dynamic	00000000 .dynamic
000076ec l    d  .dynsym	00000000 .dynsym
000077bc l    d  .dynstr	00000000 .dynstr
0000785c l    d  .hash	00000000 .hash
00008000 l    d  .data	00000000 .data
00008090 l    d  .bss	00000000 .bss
00000000 l    d  .debug_info	00000000 .debug_info
00000000 l    d  .debug_abbrev	00000000 .debug_abbrev
00000000 l    d  .debug_loc	00000000 .debug_loc
00000000 l    d  .debug_aranges	00000000 .debug_aranges
00000000 l    d  .debug_ranges	00000000 .debug_ranges
00000000 l    d  .debug_macro	00000000 .debug_macro
00000000 l    d  .debug_line	00000000 .debug_line
00000000 l    d  .debug_str	00000000 .debug_str
00000000 l    d  .comment	00000000 .comment
00000000 l    d  .ARM.attributes	00000000 .ARM.attributes
00000000 l    d  .debug_frame	00000000 .debug_frame
00007584 l    d  .rel.dyn	00000000 .rel.dyn
00000000 l    df *ABS*	00000000 user_ta_header.c
00005fd8 l     O .rodata	00000004 __compound_literal.4
00005fdc l     O .rodata	00000004 __compound_literal.3
00005fe0 l     O .rodata	00000001 __compound_literal.2
00005fe1 l     O .rodata	00000001 __compound_literal.1
00005fe2 l     O .rodata	00000001 __compound_literal.0
00000000 l    df *ABS*	00000000 socket_test_ta.c
00000332 l     F .text	000000d2 socket_send
00005fbc l     O .rodata	0000000c __func__.6286
00005fc8 l     O .rodata	0000000c __func__.6298
00000000 l    df *ABS*	00000000 trace.c
0000637e l     O .rodata	00000005 lvl_strs.5409
00000000 l    df *ABS*	00000000 snprintk.c
0000639d l     O .rodata	00000011 HEXDIGITS
000063ae l     O .rodata	00000011 hexdigits
00000000 l    df *ABS*	00000000 arm32_aeabi_ldivmod_a32.o
00000000 l    df *ABS*	00000000 trace_ext.c
00000000 l    df *ABS*	00000000 tee_api.c
000063f7 l     O .rodata	0000000b __func__.6576
00008090 l     O .bss	00000004 tee_api_instance_data
00000000 l    df *ABS*	00000000 user_ta_entry.c
00001200 l     F .text	0000001c ta_header_get_session
0000121c l     F .text	00000068 ta_header_remove_session
00008094 l     O .bss	00000001 init_done
0000806c l     O .data	00000008 ta_sessions
00000000 l    df *ABS*	00000000 utee_syscalls_a32.o
00000000 l    df *ABS*	00000000 gprof_a32.o
00000000 l    df *ABS*	00000000 tee_api_arith_mpi.c
000028e8 l     F .text	00000020 api_panic
000018d0 l     F .text	00000020 mpi_panic
000018f0 l     F .text	00000044 get_const_mpi
00001934 l     F .text	00000010 mpi_is_odd
00001944 l     F .text	00000016 rng_read
0000195a l     F .text	0000001c put_mpi
00001976 l     F .text	0000045a mpi_egcd
00001dd0 l     F .text	00000024 get_mpi
00001df4 l     F .text	00000088 bigint_binary
00002082 l     F .text	000000ea bigint_binary_mod
00006413 l     O .rodata	0000000e __func__.6605
00006421 l     O .rodata	00000009 __func__.6844
0000642a l     O .rodata	0000000e __func__.6704
00006438 l     O .rodata	00000012 __func__.6577
0000644a l     O .rodata	0000000f __func__.6615
00006459 l     O .rodata	0000001f __func__.6633
00006478 l     O .rodata	00000019 __func__.6640
00006491 l     O .rodata	00000012 __func__.6715
000064a3 l     O .rodata	00000015 __func__.6670
000064b8 l     O .rodata	0000000e __func__.6742
000064c6 l     O .rodata	0000000e __func__.6770
000064d4 l     O .rodata	0000000e __func__.6776
000064e2 l     O .rodata	00000011 __func__.6805
000064f3 l     O .rodata	00000018 __func__.6821
0000650b l     O .rodata	0000001d __func__.6901
00006528 l     O .rodata	00000019 __func__.6951
00006541 l     O .rodata	00000015 __func__.6965
000080bc l     O .bss	00002000 data.6576
00000000 l    df *ABS*	00000000 bignum.c
00002908 l     F .text	00000038 mpi_get_digit
00002940 l     F .text	0000005a mpi_sub_hlp
0000299a l     F .text	00000384 mpi_mul_hlp
00002d1e l     F .text	00000048 mbedtls_mpi_mod_int.part.1
00003dbe l     F .text	0000006c mpi_write_hlp
00003f64 l     F .text	00000050 mpi_check_small_factors
00004650 l     F .text	00000216 mpi_miller_rabin
00005fec l     O .rodata	000002a0 small_prime
0000628c l     O .rodata	00000024 gcd_pairs
00000000 l    df *ABS*	00000000 bget_malloc.c
00004ff4 l     F .text	00000030 raw_malloc_return_hook.isra.3
00005024 l     F .text	000000d8 create_free_block.constprop.11
00005230 l     F .text	00000038 raw_malloc.constprop.15
00006a6a l     O .rodata	00000012 __func__.5703
00006a7c l     O .rodata	00000005 __func__.5558
00006a81 l     O .rodata	00000006 __func__.5573
00006a87 l     O .rodata	00000005 __func__.5590
00006a8c l     O .rodata	00000006 __func__.5582
00006a92 l     O .rodata	00000006 __func__.5599
00006a98 l     O .rodata	00000007 __func__.5609
00006a9f l     O .rodata	0000000d __func__.5739
00006aac l     O .rodata	0000000c __func__.5713
00006ab8 l     O .rodata	0000000b __func__.5724
00006ac3 l     O .rodata	00000010 __func__.5791
00006ad3 l     O .rodata	0000000e __func__.5745
00006ae1 l     O .rodata	00000013 __func__.5650
0000a0c0 l     O .bss	00000038 mstats
0000a0f8 l     O .bss	00000004 malloc_pool_len
0000a0fc l     O .bss	00000004 malloc_pool
00008074 l     O .data	0000001c malloc_poolset
00000000 l    df *ABS*	00000000 mempool.c
00006ee4 l     O .rodata	00000013 __func__.5466
00006ef7 l     O .rodata	0000000e __func__.5475
00000000 l    df *ABS*	00000000 assert.c
00000000 l    df *ABS*	00000000 memcpy.c
00000000 l    df *ABS*	00000000 memset.c
00000000 l    df *ABS*	00000000 aeabi_unwind.c
00000000 l    df *ABS*	00000000 memchr.c
00000000 l    df *ABS*	00000000 strlen.c
00000000 l    df *ABS*	00000000 arm32_aeabi_ldivmod.c
00000000 l    df *ABS*	00000000 tee_api_panic.c
00000000 l    df *ABS*	00000000 snprintf.c
00000000 l    df *ABS*	00000000 memcmp.c
00000000 l    df *ABS*	00000000 memmove.c
00000000 l    df *ABS*	00000000 
0000766c l     O *ABS*	00000000 _DYNAMIC
00007550 l     O *ABS*	00000000 _GLOBAL_OFFSET_TABLE_
00005f28 l     F .text	00000010 __utee_cache_operation_from_thumb
00005f38 l     F .text	00000010 __utee_check_access_rights_from_thumb
00005f48 l     F .text	00000010 __utee_panic_from_thumb
00005f58 l     F .text	00000010 __utee_log_from_thumb
00000ef4 g     F .text	00000022 putchar
000027fa g     F .text	00000004 TEE_BigIntConvertToFMM
00002538 g     F .text	00000008 TEE_BigIntSquareMod
0000216c g     F .text	000000f4 TEE_BigIntShiftRight
000017a8 g     F .text	00000018 utee_storage_obj_create
00002dfc g     F .text	000000a8 mbedtls_mpi_grow
00005db8 g     F .text	000000ec __l_divmod
00001428 g     F .text	00000014 utee_return
000011e4 g     F .text	00000004 TEE_Realloc
00000e96 g     F .text	0000003a printf
0000143c g     F .text	00000014 utee_log
00008000 g     O .data	00000010 uuid
00001002 g     F .text	00000066 TEE_InvokeTACommand
00002d78 g     F .text	00000024 mbedtls_mpi_init_mempool
00003276 g     F .text	00000046 mbedtls_mpi_write_binary
00000e24 g     F .text	0000000e vsnprintk
000036fa g     F .text	00000030 mbedtls_mpi_sub_int
00005ef2 g     F .text	00000034 memmove
00005ea8 g     F .text	0000001e snprintf
0000205c g     F .text	00000026 TEE_BigIntCmpS32
00002ea4 g     F .text	000000d0 mbedtls_mpi_shrink
00005d12 g     F .text	00000002 __aeabi_unwind_cpp_pr0
000022ac g     F .text	0000001c TEE_BigIntAdd
0000147c g     F .text	00000014 utee_get_property_name_to_index
00005fe4 g     O .rodata	00000004 ta_heap_size
00001560 g     F .text	00000018 utee_cryp_state_alloc
00001730 g     F .text	00000018 utee_authenc_enc_final
00003824 g     F .text	0000012c mbedtls_mpi_read_string
000022e4 g     F .text	00000058 TEE_BigIntNeg
00000020 g       .text	00000000 __text_start
00003354 g     F .text	00000078 mbedtls_mpi_shift_r
00005b6c g     F .text	00000040 malloc_buffer_overlaps_heap
00002500 g     F .text	0000001c TEE_BigIntSubMod
00004b92 g     F .text	00000136 mbedtls_mpi_gen_prime
00003122 g     F .text	00000020 mbedtls_mpi_get_bit
00003210 g     F .text	00000066 mbedtls_mpi_read_binary
000005ac g     F .text	00000140 trace_printf
00003fdc g     F .text	000000c4 mbedtls_mpi_montmul
00005cec g     F .text	00000016 memcpy
0000158c g     F .text	00000014 utee_cryp_state_free
000027fe g     F .text	0000004a TEE_BigIntConvertFromFMM
00005ea4 g     F .text	00000004 TEE_Panic
00000e64 g     F .text	00000018 __aeabi_uldivmod
00000ed0 g     F .text	00000024 puts
00002848 g     F .text	000000a0 TEE_BigIntComputeFMM
0000564c g     F .text	00000020 malloc_get_stats
0000160c g     F .text	00000018 utee_cipher_final
00001184 g     F .text	00000016 TEE_GetREETime
00008014 g     O .data	00000054 ta_props
0000566c g     F .text	00000002 malloc
00001674 g     F .text	00000014 utee_cryp_obj_close
00005ec6 g     F .text	0000000e vsnprintf
00008010 g     O .data	00000004 trace_level
00002028 g     F .text	00000034 TEE_BigIntCmp
00005fd4 g     O .rodata	00000004 ta_num_props
000054bc g     F .text	0000007c bgetr
00000020 g     F .text	00000238 sha1digest
00001718 g     F .text	00000018 utee_authenc_update_payload
00005c80 g     F .text	0000002e mempool_free
00001f40 g     F .text	00000058 TEE_BigIntConvertToOctetString
000018b0 g     F .text	00000014 utee_cache_operation
000031c0 g     F .text	00000044 mbedtls_mpi_bitlen
000016ec g     F .text	00000018 utee_authenc_init
00002260 g     F .text	0000002a TEE_BigIntGetBit
00005fe8 g     O .rodata	00000003 trace_ext_prefix
00005268 g     F .text	0000005c bgetz
000010d4 g     F .text	0000000c TEE_GetInstanceData
00001102 g     F .text	0000001e TEE_Wait
00000318 g     F .text	0000001a string_cmp
00001860 g     F .text	00000014 utee_storage_obj_write
0000372a g     F .text	000000dc mbedtls_mpi_mul_mpi
00005d16 g     F .text	00000002 __aeabi_unwind_cpp_pr2
000011f2 g     F .text	00000006 TEE_CacheFlush
00000258 g     F .text	000000c0 hmac_sha1
00000408 g     F .text	00000002 TA_DestroyEntryPoint
00002d66 g     F .text	00000012 mbedtls_mpi_init
00003192 g     F .text	0000002e mbedtls_mpi_lsb
00005cb0 g     F .text	00000028 _assert_log
000027f6 g     F .text	00000004 TEE_BigIntFMMContextSizeInU32
00001e7c g     F .text	00000044 _TEE_MathAPI_Init
00003636 g     F .text	00000048 mbedtls_mpi_add_mpi
00001838 g     F .text	00000014 utee_storage_next_enum
0000a100 g     O .bss	00008000 ta_heap
00002540 g     F .text	000000a4 TEE_BigIntInvMod
00000434 g     F .text	00000004 TA_CloseSessionEntryPoint
0000367e g     F .text	0000004c mbedtls_mpi_sub_mpi
00001450 g     F .text	00000014 __utee_panic
00001578 g     F .text	00000014 utee_cryp_state_copy
00000438 g     F .text	00000140 TA_InvokeCommandEntryPoint
00005bf0 g     F .text	0000006c mempool_alloc
00001660 g     F .text	00000014 utee_cryp_obj_alloc
0000154c g     F .text	00000014 utee_set_ta_time
0000164c g     F .text	00000014 utee_cryp_obj_get_attr
00005c5c g     F .text	00000024 mempool_calloc
00005680 g     F .text	00000048 calloc
0000119a g     F .text	0000004a TEE_Malloc
00001510 g     F .text	00000014 utee_mask_cancellation
00001688 g     F .text	00000014 utee_cryp_obj_reset
000010bc g     F .text	0000000a TEE_CheckMemoryAccessRights
00012100 g       .bss	00000000 __gprof_buf_end
00005d44 g     F .text	00000074 __ul_divmod
000030ea g     F .text	00000038 mbedtls_mpi_lset
0000040a g     F .text	0000002a TA_OpenSessionEntryPoint
00001824 g     F .text	00000014 utee_storage_start_enum
000017d4 g     F .text	00000014 utee_storage_obj_rename
00008098 g     O .bss	00000004 ta_param_types
00003cf2 g     F .text	0000002e mbedtls_mpi_div_int
000027b8 g     F .text	00000030 TEE_BigIntIsProbablePrime
00003806 g     F .text	0000001e mbedtls_mpi_mul_int
000040c4 g     F .text	00000446 mbedtls_mpi_exp_mod
00002ff8 g     F .text	0000006c mbedtls_mpi_safe_cond_assign
00001464 g     F .text	00000018 utee_get_property
00001ec0 g     F .text	00000040 TEE_BigIntInit
000010e0 g     F .text	00000004 TEE_MemMove
00001f00 g     F .text	00000040 TEE_BigIntConvertFromOctetString
00008068 g     O .data	00000004 _ref__utee_mcount
000033cc g     F .text	0000006e mbedtls_mpi_cmp_abs
00005d18 g     F .text	0000001c memchr
00001084 g     F .text	0000001c TEE_UnmaskCancellation
00004cc8 g     F .text	0000032c mbedtls_mpi_self_test
000017c0 g     F .text	00000014 utee_storage_obj_del
00001888 g     F .text	00000014 utee_storage_obj_seek
000034d0 g     F .text	00000030 mbedtls_mpi_cmp_int
000015b4 g     F .text	00000014 utee_hash_update
000018c4  w    F .text	0000000c __utee_mcount
00002494 g     F .text	00000050 TEE_BigIntMod
00003d84 g     F .text	0000003a mbedtls_mpi_mod_int
000014a8 g     F .text	00000014 utee_close_ta_session
000023e6 g     F .text	000000ae TEE_BigIntDiv
00002f74 g     F .text	00000056 mbedtls_mpi_copy
00005638 g     F .text	00000014 malloc_reset_stats
000015f4 g     F .text	00000018 utee_cipher_update
000056c8 g     F .text	00000038 realloc
00002fca g     F .text	0000002e mbedtls_mpi_swap
00005bac g     F .text	00000044 mempool_alloc_pool
00001778 g     F .text	00000018 utee_asymm_verify
0000233c g     F .text	000000a4 TEE_BigIntMul
000032bc g     F .text	00000098 mbedtls_mpi_shift_l
0000343a g     F .text	00000096 mbedtls_mpi_cmp_mpi
000010e8 g     F .text	00000004 TEE_MemFill
00005ed4 g     F .text	0000001e memcmp
000059bc g     F .text	000000d4 malloc_add_pool
00000598 g     F .text	00000014 trace_get_level
00003500 g     F .text	000000b6 mbedtls_mpi_add_abs
000016d8 g     F .text	00000014 utee_cryp_random_number_generate
000027ee g     F .text	00000008 TEE_BigIntFMMSizeInU32
000027e8 g     F .text	00000004 TEE_BigIntInitFMM
00001760 g     F .text	00000018 utee_asymm_operate
00001284 g     F .text	00000190 __utee_entry
00005f68 g       .text	00000000 __text_end
000025e4 g     F .text	00000080 TEE_BigIntRelativePrime
00003d20 g     F .text	00000064 mbedtls_mpi_mod_mpi
00005538 g     F .text	0000009c bpool
00001068 g     F .text	0000001c TEE_GetCancellationFlag
0000450a g     F .text	00000114 mbedtls_mpi_gcd
0000115c g     F .text	00000028 TEE_SetTAPersistentTime
00005d02 g     F .text	00000010 memset
00001120 g     F .text	0000003c TEE_GetTAPersistentTime
000006ec g     F .text	00000002 dhex_dump
000010a0 g     F .text	0000001c TEE_MaskCancellation
0000184c g     F .text	00000014 utee_storage_obj_read
0000169c g     F .text	00000014 utee_cryp_obj_populate
00000578 g     F .text	00000020 trace_set_level
00001624 g     F .text	00000014 utee_cryp_obj_get_info
000017e8 g     F .text	00000014 utee_storage_alloc_enum
00001810 g     F .text	00000014 utee_storage_reset_enum
00001874 g     F .text	00000014 utee_storage_obj_trunc
00001fd0 g     F .text	00000058 TEE_BigIntConvertToS32
000022c8 g     F .text	0000001c TEE_BigIntSub
000014d4 g     F .text	00000014 utee_get_cancellation_flag
000015a0 g     F .text	00000014 utee_hash_init
00005ce8 g     F .text	00000004 tahead_get_trace_level
00000f18 g     F .text	00000052 __utee_from_param
00000f6a g     F .text	00000040 __utee_to_param
000040a0 g     F .text	00000024 mbedtls_mpi_montred
00005700 g     F .text	000002bc memalign
00001f98 g     F .text	00000038 TEE_BigIntConvertFromS32
000036ca g     F .text	00000030 mbedtls_mpi_add_int
00001638 g     F .text	00000014 utee_cryp_obj_restrict_usage
00005a90 g     F .text	000000dc malloc_buffer_is_within_alloced
000016b0 g     F .text	00000014 utee_cryp_obj_copy
000027ec g     F .text	00000002 TEE_BigIntInitFMMContext
000016c4 g     F .text	00000014 utee_cryp_derive_key
00001748 g     F .text	00000018 utee_authenc_dec_final
000023e0 g     F .text	00000006 TEE_BigIntSquare
00000404 g     F .text	00000004 TA_CreateEntryPoint
00003fb4 g     F .text	00000028 mbedtls_mpi_montg_init
00000e32 g     F .text	0000001a snprintk
0000228a g     F .text	00000022 TEE_BigIntGetBitCount
0000251c g     F .text	0000001c TEE_BigIntMulMod
00004866 g     F .text	000002d0 mbedtls_mpi_inv_mod
0000809c g     O .bss	00000020 ta_params
00003950 g     F .text	000003a2 mbedtls_mpi_div_mpi
00003204 g     F .text	0000000c mbedtls_mpi_size
000050fc g     F .text	00000134 bget
00003142 g     F .text	00000050 mbedtls_mpi_set_bit
00002d9c g     F .text	00000012 mbedtls_mpi_init_static
000011e8 g     F .text	00000004 TEE_Free
00004b36 g     F .text	0000005c mbedtls_mpi_is_prime
000011f8 g     F .text	00000006 TEE_CacheInvalidate
000015e0 g     F .text	00000014 utee_cipher_init
00005cd8 g     F .text	00000010 _assert_break
000024e4 g     F .text	0000001c TEE_BigIntAddMod
000017fc g     F .text	00000014 utee_storage_free_enum
00001704 g     F .text	00000014 utee_authenc_update_aad
000010e4 g     F .text	00000004 TEE_MemCompare
000006f0 g     F .text	00000734 __vsnprintf
00001414 g     F .text	00000014 utee_panic
00000faa g     F .text	00000044 TEE_OpenTASession
00000e7c g     F .text	00000014 trace_ext_puts
00000e90 g     F .text	00000006 trace_ext_get_thread_id
00002dae g     F .text	0000004e mbedtls_mpi_free
000011ec g     F .text	00000006 TEE_CacheClean
00001490 g     F .text	00000018 utee_open_ta_session
00003064 g     F .text	00000086 mbedtls_mpi_safe_cond_swap
000015c8 g     F .text	00000018 utee_hash_final
00005d34 g     F .text	00000010 strlen
00002664 g     F .text	00000154 TEE_BigIntComputeExtendedGcd
00005d14 g     F .text	00000002 __aeabi_unwind_cpp_pr1
00001790 g     F .text	00000018 utee_storage_obj_open
000014bc g     F .text	00000018 utee_invoke_ta_command
00001524 g     F .text	00000014 utee_wait
000010ec g     F .text	00000016 TEE_GetSystemTime
00000000 g     O .ta_head	00000020 ta_head
000052c4 g     F .text	000001f8 brel
000035b6 g     F .text	00000080 mbedtls_mpi_sub_abs
00001538 g     F .text	00000014 utee_get_time
0000461e g     F .text	00000032 mbedtls_mpi_fill_random
000010c6 g     F .text	0000000e TEE_SetInstanceData
000014fc g     F .text	00000014 utee_unmask_cancellation
00000e4c g     F .text	00000018 __aeabi_ldivmod
000014e8 g     F .text	00000014 utee_check_access_rights
00003e2a g     F .text	0000013a mbedtls_mpi_write_string
0000189c g     F .text	00000014 utee_cryp_obj_generate_key
00000fee g     F .text	00000014 TEE_CloseTASession
00012100 g       .bss	00000000 __gprof_buf_start
0000566e g     F .text	00000012 free
000055d4 g     F .text	00000064 bstats
0000a0bc g     O .bss	00000004 mbedtls_mpi_mempool



Disassembly of section .text:

00000020 <sha1digest>:
sha1digest():
/media/wen/My_Passport/Raspbian/raspbian-tee/raspbian-tee/optee_examples/socket_test/ta/socket_test_ta.c:34
      20:	e92d 4ff0 	stmdb	sp!, {r4, r5, r6, r7, r8, r9, sl, fp, lr}
      24:	4616      	mov	r6, r2
/media/wen/My_Passport/Raspbian/raspbian-tee/raspbian-tee/optee_examples/socket_test/ta/socket_test_ta.c:38
      26:	4d87      	ldr	r5, [pc, #540]	; (244 <sha1digest+0x224>)
/media/wen/My_Passport/Raspbian/raspbian-tee/raspbian-tee/optee_examples/socket_test/ta/socket_test_ta.c:34
      28:	b0ff      	sub	sp, #508	; 0x1fc
/media/wen/My_Passport/Raspbian/raspbian-tee/raspbian-tee/optee_examples/socket_test/ta/socket_test_ta.c:61
      2a:	f04f 0880 	mov.w	r8, #128	; 0x80
/media/wen/My_Passport/Raspbian/raspbian-tee/raspbian-tee/optee_examples/socket_test/ta/socket_test_ta.c:38
      2e:	447d      	add	r5, pc
      30:	ac09      	add	r4, sp, #36	; 0x24
/media/wen/My_Passport/Raspbian/raspbian-tee/raspbian-tee/optee_examples/socket_test/ta/socket_test_ta.c:58
      32:	ea4f 7956 	mov.w	r9, r6, lsr #29
      36:	00f7      	lsls	r7, r6, #3
/media/wen/My_Passport/Raspbian/raspbian-tee/raspbian-tee/optee_examples/socket_test/ta/socket_test_ta.c:34
      38:	9006      	str	r0, [sp, #24]
      3a:	9107      	str	r1, [sp, #28]
/media/wen/My_Passport/Raspbian/raspbian-tee/raspbian-tee/optee_examples/socket_test/ta/socket_test_ta.c:38
      3c:	cd0f      	ldmia	r5!, {r0, r1, r2, r3}
      3e:	c40f      	stmia	r4!, {r0, r1, r2, r3}
/media/wen/My_Passport/Raspbian/raspbian-tee/raspbian-tee/optee_examples/socket_test/ta/socket_test_ta.c:61
      40:	4642      	mov	r2, r8
/media/wen/My_Passport/Raspbian/raspbian-tee/raspbian-tee/optee_examples/socket_test/ta/socket_test_ta.c:38
      42:	682b      	ldr	r3, [r5, #0]
/media/wen/My_Passport/Raspbian/raspbian-tee/raspbian-tee/optee_examples/socket_test/ta/socket_test_ta.c:61
      44:	ad0e      	add	r5, sp, #56	; 0x38
      46:	4628      	mov	r0, r5
/media/wen/My_Passport/Raspbian/raspbian-tee/raspbian-tee/optee_examples/socket_test/ta/socket_test_ta.c:38
      48:	6023      	str	r3, [r4, #0]
/media/wen/My_Passport/Raspbian/raspbian-tee/raspbian-tee/optee_examples/socket_test/ta/socket_test_ta.c:59
      4a:	f106 0308 	add.w	r3, r6, #8
/media/wen/My_Passport/Raspbian/raspbian-tee/raspbian-tee/optee_examples/socket_test/ta/socket_test_ta.c:58
      4e:	2400      	movs	r4, #0
/media/wen/My_Passport/Raspbian/raspbian-tee/raspbian-tee/optee_examples/socket_test/ta/socket_test_ta.c:59
      50:	099b      	lsrs	r3, r3, #6
/media/wen/My_Passport/Raspbian/raspbian-tee/raspbian-tee/optee_examples/socket_test/ta/socket_test_ta.c:61
      52:	4621      	mov	r1, r4
/media/wen/My_Passport/Raspbian/raspbian-tee/raspbian-tee/optee_examples/socket_test/ta/socket_test_ta.c:59
      54:	3301      	adds	r3, #1
      56:	9301      	str	r3, [sp, #4]
/media/wen/My_Passport/Raspbian/raspbian-tee/raspbian-tee/optee_examples/socket_test/ta/socket_test_ta.c:60
      58:	ebc6 1a83 	rsb	sl, r6, r3, lsl #6
/media/wen/My_Passport/Raspbian/raspbian-tee/raspbian-tee/optee_examples/socket_test/ta/socket_test_ta.c:61
      5c:	f005 fe51 	bl	5d02 <memset>
/media/wen/My_Passport/Raspbian/raspbian-tee/raspbian-tee/optee_examples/socket_test/ta/socket_test_ta.c:63
      60:	9b06      	ldr	r3, [sp, #24]
      62:	2b00      	cmp	r3, #0
      64:	f000 80eb 	beq.w	23e <sha1digest+0x21e>
/media/wen/My_Passport/Raspbian/raspbian-tee/raspbian-tee/optee_examples/socket_test/ta/socket_test_ta.c:66
      68:	9b07      	ldr	r3, [sp, #28]
      6a:	2b00      	cmp	r3, #0
      6c:	f000 80e7 	beq.w	23e <sha1digest+0x21e>
/media/wen/My_Passport/Raspbian/raspbian-tee/raspbian-tee/optee_examples/socket_test/ta/socket_test_ta.c:72
      70:	f885 8000 	strb.w	r8, [r5]
/media/wen/My_Passport/Raspbian/raspbian-tee/raspbian-tee/optee_examples/socket_test/ta/socket_test_ta.c:73
      74:	4455      	add	r5, sl
/media/wen/My_Passport/Raspbian/raspbian-tee/raspbian-tee/optee_examples/socket_test/ta/socket_test_ta.c:77
      76:	0e3b      	lsrs	r3, r7, #24
/media/wen/My_Passport/Raspbian/raspbian-tee/raspbian-tee/optee_examples/socket_test/ta/socket_test_ta.c:83
      78:	46a0      	mov	r8, r4
/media/wen/My_Passport/Raspbian/raspbian-tee/raspbian-tee/optee_examples/socket_test/ta/socket_test_ta.c:77
      7a:	f805 3c04 	strb.w	r3, [r5, #-4]
/media/wen/My_Passport/Raspbian/raspbian-tee/raspbian-tee/optee_examples/socket_test/ta/socket_test_ta.c:78
      7e:	0c3b      	lsrs	r3, r7, #16
      80:	f805 3c03 	strb.w	r3, [r5, #-3]
/media/wen/My_Passport/Raspbian/raspbian-tee/raspbian-tee/optee_examples/socket_test/ta/socket_test_ta.c:79
      84:	0a3b      	lsrs	r3, r7, #8
/media/wen/My_Passport/Raspbian/raspbian-tee/raspbian-tee/optee_examples/socket_test/ta/socket_test_ta.c:73
      86:	f805 4c08 	strb.w	r4, [r5, #-8]
/media/wen/My_Passport/Raspbian/raspbian-tee/raspbian-tee/optee_examples/socket_test/ta/socket_test_ta.c:74
      8a:	f805 4c07 	strb.w	r4, [r5, #-7]
/media/wen/My_Passport/Raspbian/raspbian-tee/raspbian-tee/optee_examples/socket_test/ta/socket_test_ta.c:75
      8e:	f805 4c06 	strb.w	r4, [r5, #-6]
/media/wen/My_Passport/Raspbian/raspbian-tee/raspbian-tee/optee_examples/socket_test/ta/socket_test_ta.c:76
      92:	f805 9c05 	strb.w	r9, [r5, #-5]
/media/wen/My_Passport/Raspbian/raspbian-tee/raspbian-tee/optee_examples/socket_test/ta/socket_test_ta.c:79
      96:	f805 3c02 	strb.w	r3, [r5, #-2]
/media/wen/My_Passport/Raspbian/raspbian-tee/raspbian-tee/optee_examples/socket_test/ta/socket_test_ta.c:80
      9a:	f805 7c01 	strb.w	r7, [r5, #-1]
/media/wen/My_Passport/Raspbian/raspbian-tee/raspbian-tee/optee_examples/socket_test/ta/socket_test_ta.c:86
      9e:	ad2e      	add	r5, sp, #184	; 0xb8
      a0:	f44f 72a0 	mov.w	r2, #320	; 0x140
      a4:	2100      	movs	r1, #0
      a6:	4628      	mov	r0, r5
      a8:	f005 fe2b 	bl	5d02 <memset>
/media/wen/My_Passport/Raspbian/raspbian-tee/raspbian-tee/optee_examples/socket_test/ta/socket_test_ta.c:89
      ac:	2200      	movs	r2, #0
      ae:	f10d 0e38 	add.w	lr, sp, #56	; 0x38
/media/wen/My_Passport/Raspbian/raspbian-tee/raspbian-tee/optee_examples/socket_test/ta/socket_test_ta.c:83
      b2:	2318      	movs	r3, #24
      b4:	e00a      	b.n	cc <sha1digest+0xac>
/media/wen/My_Passport/Raspbian/raspbian-tee/raspbian-tee/optee_examples/socket_test/ta/socket_test_ta.c:96
      b6:	9907      	ldr	r1, [sp, #28]
      b8:	5d09      	ldrb	r1, [r1, r4]
/media/wen/My_Passport/Raspbian/raspbian-tee/raspbian-tee/optee_examples/socket_test/ta/socket_test_ta.c:97
      ba:	3401      	adds	r4, #1
/media/wen/My_Passport/Raspbian/raspbian-tee/raspbian-tee/optee_examples/socket_test/ta/socket_test_ta.c:96
      bc:	fa01 f003 	lsl.w	r0, r1, r3
      c0:	f855 1022 	ldr.w	r1, [r5, r2, lsl #2]
/media/wen/My_Passport/Raspbian/raspbian-tee/raspbian-tee/optee_examples/socket_test/ta/socket_test_ta.c:98
      c4:	3b08      	subs	r3, #8
/media/wen/My_Passport/Raspbian/raspbian-tee/raspbian-tee/optee_examples/socket_test/ta/socket_test_ta.c:96
      c6:	4401      	add	r1, r0
      c8:	f845 1022 	str.w	r1, [r5, r2, lsl #2]
/media/wen/My_Passport/Raspbian/raspbian-tee/raspbian-tee/optee_examples/socket_test/ta/socket_test_ta.c:94
      cc:	42b4      	cmp	r4, r6
      ce:	d30b      	bcc.n	e8 <sha1digest+0xc8>
      d0:	1ba0      	subs	r0, r4, r6
      d2:	469c      	mov	ip, r3
      d4:	3801      	subs	r0, #1
      d6:	4470      	add	r0, lr
/media/wen/My_Passport/Raspbian/raspbian-tee/raspbian-tee/optee_examples/socket_test/ta/socket_test_ta.c:101
      d8:	f1bc 0f00 	cmp.w	ip, #0
      dc:	f280 8082 	bge.w	1e4 <sha1digest+0x1c4>
      e0:	3308      	adds	r3, #8
      e2:	eb04 04d3 	add.w	r4, r4, r3, lsr #3
      e6:	e002      	b.n	ee <sha1digest+0xce>
/media/wen/My_Passport/Raspbian/raspbian-tee/raspbian-tee/optee_examples/socket_test/ta/socket_test_ta.c:94 (discriminator 1)
      e8:	f113 0f08 	cmn.w	r3, #8
      ec:	d1e3      	bne.n	b6 <sha1digest+0x96>
/media/wen/My_Passport/Raspbian/raspbian-tee/raspbian-tee/optee_examples/socket_test/ta/socket_test_ta.c:89 (discriminator 2)
      ee:	3201      	adds	r2, #1
      f0:	2a10      	cmp	r2, #16
      f2:	d1de      	bne.n	b2 <sha1digest+0x92>
      f4:	aa2d      	add	r2, sp, #180	; 0xb4
      f6:	ad3d      	add	r5, sp, #244	; 0xf4
/media/wen/My_Passport/Raspbian/raspbian-tee/raspbian-tee/optee_examples/socket_test/ta/socket_test_ta.c:89
      f8:	4610      	mov	r0, r2
/media/wen/My_Passport/Raspbian/raspbian-tee/raspbian-tee/optee_examples/socket_test/ta/socket_test_ta.c:113 (discriminator 3)
      fa:	6a41      	ldr	r1, [r0, #36]	; 0x24
      fc:	6b83      	ldr	r3, [r0, #56]	; 0x38
      fe:	404b      	eors	r3, r1
     100:	68c1      	ldr	r1, [r0, #12]
     102:	404b      	eors	r3, r1
     104:	f850 1f04 	ldr.w	r1, [r0, #4]!
     108:	404b      	eors	r3, r1
/media/wen/My_Passport/Raspbian/raspbian-tee/raspbian-tee/optee_examples/socket_test/ta/socket_test_ta.c:111 (discriminator 3)
     10a:	4285      	cmp	r5, r0
/media/wen/My_Passport/Raspbian/raspbian-tee/raspbian-tee/optee_examples/socket_test/ta/socket_test_ta.c:113 (discriminator 3)
     10c:	ea4f 73f3 	mov.w	r3, r3, ror #31
     110:	6403      	str	r3, [r0, #64]	; 0x40
/media/wen/My_Passport/Raspbian/raspbian-tee/raspbian-tee/optee_examples/socket_test/ta/socket_test_ta.c:111 (discriminator 3)
     112:	d1f2      	bne.n	fa <sha1digest+0xda>
     114:	a85d      	add	r0, sp, #372	; 0x174
/media/wen/My_Passport/Raspbian/raspbian-tee/raspbian-tee/optee_examples/socket_test/ta/socket_test_ta.c:117 (discriminator 3)
     116:	6c51      	ldr	r1, [r2, #68]	; 0x44
     118:	6ed3      	ldr	r3, [r2, #108]	; 0x6c
     11a:	404b      	eors	r3, r1
     11c:	6951      	ldr	r1, [r2, #20]
     11e:	404b      	eors	r3, r1
     120:	f852 1f04 	ldr.w	r1, [r2, #4]!
     124:	404b      	eors	r3, r1
/media/wen/My_Passport/Raspbian/raspbian-tee/raspbian-tee/optee_examples/socket_test/ta/socket_test_ta.c:115 (discriminator 3)
     126:	4290      	cmp	r0, r2
/media/wen/My_Passport/Raspbian/raspbian-tee/raspbian-tee/optee_examples/socket_test/ta/socket_test_ta.c:117 (discriminator 3)
     128:	ea4f 73b3 	mov.w	r3, r3, ror #30
     12c:	f8c2 3080 	str.w	r3, [r2, #128]	; 0x80
/media/wen/My_Passport/Raspbian/raspbian-tee/raspbian-tee/optee_examples/socket_test/ta/socket_test_ta.c:115 (discriminator 3)
     130:	d1f1      	bne.n	116 <sha1digest+0xf6>
/media/wen/My_Passport/Raspbian/raspbian-tee/raspbian-tee/optee_examples/socket_test/ta/socket_test_ta.c:122
     132:	9a0a      	ldr	r2, [sp, #40]	; 0x28
/media/wen/My_Passport/Raspbian/raspbian-tee/raspbian-tee/optee_examples/socket_test/ta/socket_test_ta.c:127
     134:	2500      	movs	r5, #0
/media/wen/My_Passport/Raspbian/raspbian-tee/raspbian-tee/optee_examples/socket_test/ta/socket_test_ta.c:125
     136:	9b0d      	ldr	r3, [sp, #52]	; 0x34
/media/wen/My_Passport/Raspbian/raspbian-tee/raspbian-tee/optee_examples/socket_test/ta/socket_test_ta.c:149
     138:	f10d 0bb8 	add.w	fp, sp, #184	; 0xb8
/media/wen/My_Passport/Raspbian/raspbian-tee/raspbian-tee/optee_examples/socket_test/ta/socket_test_ta.c:122
     13c:	9202      	str	r2, [sp, #8]
/media/wen/My_Passport/Raspbian/raspbian-tee/raspbian-tee/optee_examples/socket_test/ta/socket_test_ta.c:123
     13e:	9a0b      	ldr	r2, [sp, #44]	; 0x2c
/media/wen/My_Passport/Raspbian/raspbian-tee/raspbian-tee/optee_examples/socket_test/ta/socket_test_ta.c:125
     140:	469a      	mov	sl, r3
/media/wen/My_Passport/Raspbian/raspbian-tee/raspbian-tee/optee_examples/socket_test/ta/socket_test_ta.c:121
     142:	f8dd c024 	ldr.w	ip, [sp, #36]	; 0x24
/media/wen/My_Passport/Raspbian/raspbian-tee/raspbian-tee/optee_examples/socket_test/ta/socket_test_ta.c:123
     146:	9203      	str	r2, [sp, #12]
/media/wen/My_Passport/Raspbian/raspbian-tee/raspbian-tee/optee_examples/socket_test/ta/socket_test_ta.c:124
     148:	9a0c      	ldr	r2, [sp, #48]	; 0x30
/media/wen/My_Passport/Raspbian/raspbian-tee/raspbian-tee/optee_examples/socket_test/ta/socket_test_ta.c:121
     14a:	46e6      	mov	lr, ip
/media/wen/My_Passport/Raspbian/raspbian-tee/raspbian-tee/optee_examples/socket_test/ta/socket_test_ta.c:123
     14c:	9803      	ldr	r0, [sp, #12]
/media/wen/My_Passport/Raspbian/raspbian-tee/raspbian-tee/optee_examples/socket_test/ta/socket_test_ta.c:122
     14e:	9f02      	ldr	r7, [sp, #8]
/media/wen/My_Passport/Raspbian/raspbian-tee/raspbian-tee/optee_examples/socket_test/ta/socket_test_ta.c:124
     150:	4611      	mov	r1, r2
     152:	9204      	str	r2, [sp, #16]
/media/wen/My_Passport/Raspbian/raspbian-tee/raspbian-tee/optee_examples/socket_test/ta/socket_test_ta.c:125
     154:	9305      	str	r3, [sp, #20]
/media/wen/My_Passport/Raspbian/raspbian-tee/raspbian-tee/optee_examples/socket_test/ta/socket_test_ta.c:129
     156:	2d13      	cmp	r5, #19
     158:	d854      	bhi.n	204 <sha1digest+0x1e4>
/media/wen/My_Passport/Raspbian/raspbian-tee/raspbian-tee/optee_examples/socket_test/ta/socket_test_ta.c:131
     15a:	ea80 0301 	eor.w	r3, r0, r1
/media/wen/My_Passport/Raspbian/raspbian-tee/raspbian-tee/optee_examples/socket_test/ta/socket_test_ta.c:132
     15e:	f8df 90e8 	ldr.w	r9, [pc, #232]	; 248 <sha1digest+0x228>
/media/wen/My_Passport/Raspbian/raspbian-tee/raspbian-tee/optee_examples/socket_test/ta/socket_test_ta.c:131
     162:	403b      	ands	r3, r7
     164:	404b      	eors	r3, r1
/media/wen/My_Passport/Raspbian/raspbian-tee/raspbian-tee/optee_examples/socket_test/ta/socket_test_ta.c:149 (discriminator 2)
     166:	f85b 2025 	ldr.w	r2, [fp, r5, lsl #2]
/media/wen/My_Passport/Raspbian/raspbian-tee/raspbian-tee/optee_examples/socket_test/ta/socket_test_ta.c:127 (discriminator 2)
     16a:	3501      	adds	r5, #1
     16c:	2d50      	cmp	r5, #80	; 0x50
/media/wen/My_Passport/Raspbian/raspbian-tee/raspbian-tee/optee_examples/socket_test/ta/socket_test_ta.c:149 (discriminator 2)
     16e:	eb02 62fe 	add.w	r2, r2, lr, ror #27
     172:	441a      	add	r2, r3
/media/wen/My_Passport/Raspbian/raspbian-tee/raspbian-tee/optee_examples/socket_test/ta/socket_test_ta.c:152 (discriminator 2)
     174:	ea4f 03b7 	mov.w	r3, r7, ror #2
/media/wen/My_Passport/Raspbian/raspbian-tee/raspbian-tee/optee_examples/socket_test/ta/socket_test_ta.c:149 (discriminator 2)
     178:	4491      	add	r9, r2
     17a:	4677      	mov	r7, lr
     17c:	44d1      	add	r9, sl
     17e:	468a      	mov	sl, r1
/media/wen/My_Passport/Raspbian/raspbian-tee/raspbian-tee/optee_examples/socket_test/ta/socket_test_ta.c:127 (discriminator 2)
     180:	d13c      	bne.n	1fc <sha1digest+0x1dc>
/media/wen/My_Passport/Raspbian/raspbian-tee/raspbian-tee/optee_examples/socket_test/ta/socket_test_ta.c:157 (discriminator 2)
     182:	ad09      	add	r5, sp, #36	; 0x24
     184:	eb0c 0209 	add.w	r2, ip, r9
/media/wen/My_Passport/Raspbian/raspbian-tee/raspbian-tee/optee_examples/socket_test/ta/socket_test_ta.c:83 (discriminator 2)
     188:	f108 0801 	add.w	r8, r8, #1
/media/wen/My_Passport/Raspbian/raspbian-tee/raspbian-tee/optee_examples/socket_test/ta/socket_test_ta.c:157 (discriminator 2)
     18c:	602a      	str	r2, [r5, #0]
/media/wen/My_Passport/Raspbian/raspbian-tee/raspbian-tee/optee_examples/socket_test/ta/socket_test_ta.c:158 (discriminator 2)
     18e:	9a02      	ldr	r2, [sp, #8]
     190:	4472      	add	r2, lr
     192:	606a      	str	r2, [r5, #4]
/media/wen/My_Passport/Raspbian/raspbian-tee/raspbian-tee/optee_examples/socket_test/ta/socket_test_ta.c:159 (discriminator 2)
     194:	9a03      	ldr	r2, [sp, #12]
     196:	441a      	add	r2, r3
/media/wen/My_Passport/Raspbian/raspbian-tee/raspbian-tee/optee_examples/socket_test/ta/socket_test_ta.c:160 (discriminator 2)
     198:	9b04      	ldr	r3, [sp, #16]
/media/wen/My_Passport/Raspbian/raspbian-tee/raspbian-tee/optee_examples/socket_test/ta/socket_test_ta.c:159 (discriminator 2)
     19a:	60aa      	str	r2, [r5, #8]
/media/wen/My_Passport/Raspbian/raspbian-tee/raspbian-tee/optee_examples/socket_test/ta/socket_test_ta.c:160 (discriminator 2)
     19c:	4403      	add	r3, r0
     19e:	60eb      	str	r3, [r5, #12]
/media/wen/My_Passport/Raspbian/raspbian-tee/raspbian-tee/optee_examples/socket_test/ta/socket_test_ta.c:161 (discriminator 2)
     1a0:	9b05      	ldr	r3, [sp, #20]
     1a2:	440b      	add	r3, r1
     1a4:	612b      	str	r3, [r5, #16]
/media/wen/My_Passport/Raspbian/raspbian-tee/raspbian-tee/optee_examples/socket_test/ta/socket_test_ta.c:83 (discriminator 2)
     1a6:	9b01      	ldr	r3, [sp, #4]
     1a8:	4543      	cmp	r3, r8
     1aa:	f63f af78 	bhi.w	9e <sha1digest+0x7e>
     1ae:	9b06      	ldr	r3, [sp, #24]
/media/wen/My_Passport/Raspbian/raspbian-tee/raspbian-tee/optee_examples/socket_test/ta/socket_test_ta.c:83
     1b0:	2200      	movs	r2, #0
/media/wen/My_Passport/Raspbian/raspbian-tee/raspbian-tee/optee_examples/socket_test/ta/socket_test_ta.c:169 (discriminator 3)
     1b2:	f855 1022 	ldr.w	r1, [r5, r2, lsl #2]
/media/wen/My_Passport/Raspbian/raspbian-tee/raspbian-tee/optee_examples/socket_test/ta/socket_test_ta.c:167 (discriminator 3)
     1b6:	3201      	adds	r2, #1
     1b8:	2a05      	cmp	r2, #5
     1ba:	f103 0304 	add.w	r3, r3, #4
/media/wen/My_Passport/Raspbian/raspbian-tee/raspbian-tee/optee_examples/socket_test/ta/socket_test_ta.c:172 (discriminator 3)
     1be:	f803 1c01 	strb.w	r1, [r3, #-1]
/media/wen/My_Passport/Raspbian/raspbian-tee/raspbian-tee/optee_examples/socket_test/ta/socket_test_ta.c:169 (discriminator 3)
     1c2:	ea4f 6011 	mov.w	r0, r1, lsr #24
     1c6:	f803 0c04 	strb.w	r0, [r3, #-4]
/media/wen/My_Passport/Raspbian/raspbian-tee/raspbian-tee/optee_examples/socket_test/ta/socket_test_ta.c:170 (discriminator 3)
     1ca:	ea4f 4011 	mov.w	r0, r1, lsr #16
     1ce:	f803 0c03 	strb.w	r0, [r3, #-3]
/media/wen/My_Passport/Raspbian/raspbian-tee/raspbian-tee/optee_examples/socket_test/ta/socket_test_ta.c:171 (discriminator 3)
     1d2:	ea4f 2011 	mov.w	r0, r1, lsr #8
     1d6:	f803 0c02 	strb.w	r0, [r3, #-2]
/media/wen/My_Passport/Raspbian/raspbian-tee/raspbian-tee/optee_examples/socket_test/ta/socket_test_ta.c:167 (discriminator 3)
     1da:	d1ea      	bne.n	1b2 <sha1digest+0x192>
/media/wen/My_Passport/Raspbian/raspbian-tee/raspbian-tee/optee_examples/socket_test/ta/socket_test_ta.c:176
     1dc:	2000      	movs	r0, #0
/media/wen/My_Passport/Raspbian/raspbian-tee/raspbian-tee/optee_examples/socket_test/ta/socket_test_ta.c:177
     1de:	b07f      	add	sp, #508	; 0x1fc
     1e0:	e8bd 8ff0 	ldmia.w	sp!, {r4, r5, r6, r7, r8, r9, sl, fp, pc}
/media/wen/My_Passport/Raspbian/raspbian-tee/raspbian-tee/optee_examples/socket_test/ta/socket_test_ta.c:103
     1e4:	f810 7f01 	ldrb.w	r7, [r0, #1]!
     1e8:	f855 1022 	ldr.w	r1, [r5, r2, lsl #2]
     1ec:	fa07 f70c 	lsl.w	r7, r7, ip
/media/wen/My_Passport/Raspbian/raspbian-tee/raspbian-tee/optee_examples/socket_test/ta/socket_test_ta.c:105
     1f0:	f1ac 0c08 	sub.w	ip, ip, #8
/media/wen/My_Passport/Raspbian/raspbian-tee/raspbian-tee/optee_examples/socket_test/ta/socket_test_ta.c:103
     1f4:	4439      	add	r1, r7
     1f6:	f845 1022 	str.w	r1, [r5, r2, lsl #2]
     1fa:	e76d      	b.n	d8 <sha1digest+0xb8>
     1fc:	4601      	mov	r1, r0
/media/wen/My_Passport/Raspbian/raspbian-tee/raspbian-tee/optee_examples/socket_test/ta/socket_test_ta.c:149
     1fe:	46ce      	mov	lr, r9
/media/wen/My_Passport/Raspbian/raspbian-tee/raspbian-tee/optee_examples/socket_test/ta/socket_test_ta.c:152
     200:	4618      	mov	r0, r3
     202:	e7a8      	b.n	156 <sha1digest+0x136>
/media/wen/My_Passport/Raspbian/raspbian-tee/raspbian-tee/optee_examples/socket_test/ta/socket_test_ta.c:134
     204:	f1a5 0314 	sub.w	r3, r5, #20
     208:	2b13      	cmp	r3, #19
     20a:	d805      	bhi.n	218 <sha1digest+0x1f8>
/media/wen/My_Passport/Raspbian/raspbian-tee/raspbian-tee/optee_examples/socket_test/ta/socket_test_ta.c:136
     20c:	ea87 0300 	eor.w	r3, r7, r0
/media/wen/My_Passport/Raspbian/raspbian-tee/raspbian-tee/optee_examples/socket_test/ta/socket_test_ta.c:137
     210:	f8df 9038 	ldr.w	r9, [pc, #56]	; 24c <sha1digest+0x22c>
/media/wen/My_Passport/Raspbian/raspbian-tee/raspbian-tee/optee_examples/socket_test/ta/socket_test_ta.c:136
     214:	404b      	eors	r3, r1
     216:	e7a6      	b.n	166 <sha1digest+0x146>
/media/wen/My_Passport/Raspbian/raspbian-tee/raspbian-tee/optee_examples/socket_test/ta/socket_test_ta.c:139
     218:	f1a5 0328 	sub.w	r3, r5, #40	; 0x28
     21c:	2b13      	cmp	r3, #19
     21e:	d808      	bhi.n	232 <sha1digest+0x212>
/media/wen/My_Passport/Raspbian/raspbian-tee/raspbian-tee/optee_examples/socket_test/ta/socket_test_ta.c:141
     220:	ea40 0301 	orr.w	r3, r0, r1
     224:	ea00 0201 	and.w	r2, r0, r1
     228:	403b      	ands	r3, r7
/media/wen/My_Passport/Raspbian/raspbian-tee/raspbian-tee/optee_examples/socket_test/ta/socket_test_ta.c:142
     22a:	f8df 9024 	ldr.w	r9, [pc, #36]	; 250 <sha1digest+0x230>
/media/wen/My_Passport/Raspbian/raspbian-tee/raspbian-tee/optee_examples/socket_test/ta/socket_test_ta.c:141
     22e:	4313      	orrs	r3, r2
     230:	e799      	b.n	166 <sha1digest+0x146>
/media/wen/My_Passport/Raspbian/raspbian-tee/raspbian-tee/optee_examples/socket_test/ta/socket_test_ta.c:146
     232:	ea87 0300 	eor.w	r3, r7, r0
/media/wen/My_Passport/Raspbian/raspbian-tee/raspbian-tee/optee_examples/socket_test/ta/socket_test_ta.c:147
     236:	f8df 901c 	ldr.w	r9, [pc, #28]	; 254 <sha1digest+0x234>
/media/wen/My_Passport/Raspbian/raspbian-tee/raspbian-tee/optee_examples/socket_test/ta/socket_test_ta.c:146
     23a:	404b      	eors	r3, r1
     23c:	e793      	b.n	166 <sha1digest+0x146>
/media/wen/My_Passport/Raspbian/raspbian-tee/raspbian-tee/optee_examples/socket_test/ta/socket_test_ta.c:64
     23e:	f04f 30ff 	mov.w	r0, #4294967295
     242:	e7cc      	b.n	1de <sha1digest+0x1be>
     244:	00005f36 	.word	0x00005f36
     248:	5a827999 	.word	0x5a827999
     24c:	6ed9eba1 	.word	0x6ed9eba1
     250:	8f1bbcdc 	.word	0x8f1bbcdc
     254:	ca62c1d6 	.word	0xca62c1d6

00000258 <hmac_sha1>:
hmac_sha1():
/media/wen/My_Passport/Raspbian/raspbian-tee/raspbian-tee/optee_examples/socket_test/ta/socket_test_ta.c:185
     258:	e92d 41f0 	stmdb	sp!, {r4, r5, r6, r7, r8, lr}
     25c:	460f      	mov	r7, r1
/media/wen/My_Passport/Raspbian/raspbian-tee/raspbian-tee/optee_examples/socket_test/ta/socket_test_ta.c:198
     25e:	492d      	ldr	r1, [pc, #180]	; (314 <hmac_sha1+0xbc>)
/media/wen/My_Passport/Raspbian/raspbian-tee/raspbian-tee/optee_examples/socket_test/ta/socket_test_ta.c:185
     260:	f5ad 5d8e 	sub.w	sp, sp, #4544	; 0x11c0
     264:	4604      	mov	r4, r0
     266:	b086      	sub	sp, #24
/media/wen/My_Passport/Raspbian/raspbian-tee/raspbian-tee/optee_examples/socket_test/ta/socket_test_ta.c:198
     268:	4479      	add	r1, pc
     26a:	f10d 08c4 	add.w	r8, sp, #196	; 0xc4
/media/wen/My_Passport/Raspbian/raspbian-tee/raspbian-tee/optee_examples/socket_test/ta/socket_test_ta.c:185
     26e:	4616      	mov	r6, r2
/media/wen/My_Passport/Raspbian/raspbian-tee/raspbian-tee/optee_examples/socket_test/ta/socket_test_ta.c:198
     270:	3114      	adds	r1, #20
     272:	2240      	movs	r2, #64	; 0x40
     274:	4640      	mov	r0, r8
/media/wen/My_Passport/Raspbian/raspbian-tee/raspbian-tee/optee_examples/socket_test/ta/socket_test_ta.c:212
     276:	ad01      	add	r5, sp, #4
/media/wen/My_Passport/Raspbian/raspbian-tee/raspbian-tee/optee_examples/socket_test/ta/socket_test_ta.c:198
     278:	f005 fd38 	bl	5cec <memcpy>
/media/wen/My_Passport/Raspbian/raspbian-tee/raspbian-tee/optee_examples/socket_test/ta/socket_test_ta.c:210
     27c:	2300      	movs	r3, #0
/media/wen/My_Passport/Raspbian/raspbian-tee/raspbian-tee/optee_examples/socket_test/ta/socket_test_ta.c:212
     27e:	461a      	mov	r2, r3
/media/wen/My_Passport/Raspbian/raspbian-tee/raspbian-tee/optee_examples/socket_test/ta/socket_test_ta.c:212 (discriminator 3)
     280:	555a      	strb	r2, [r3, r5]
/media/wen/My_Passport/Raspbian/raspbian-tee/raspbian-tee/optee_examples/socket_test/ta/socket_test_ta.c:210 (discriminator 3)
     282:	3301      	adds	r3, #1
     284:	2b40      	cmp	r3, #64	; 0x40
     286:	d1fb      	bne.n	280 <hmac_sha1+0x28>
     288:	2300      	movs	r3, #0
/media/wen/My_Passport/Raspbian/raspbian-tee/raspbian-tee/optee_examples/socket_test/ta/socket_test_ta.c:240 (discriminator 3)
     28a:	f818 2003 	ldrb.w	r2, [r8, r3]
     28e:	54ea      	strb	r2, [r5, r3]
/media/wen/My_Passport/Raspbian/raspbian-tee/raspbian-tee/optee_examples/socket_test/ta/socket_test_ta.c:238 (discriminator 3)
     290:	3301      	adds	r3, #1
     292:	2b40      	cmp	r3, #64	; 0x40
     294:	d1f9      	bne.n	28a <hmac_sha1+0x32>
     296:	2300      	movs	r3, #0
/media/wen/My_Passport/Raspbian/raspbian-tee/raspbian-tee/optee_examples/socket_test/ta/socket_test_ta.c:246 (discriminator 3)
     298:	a811      	add	r0, sp, #68	; 0x44
     29a:	5cea      	ldrb	r2, [r5, r3]
     29c:	f082 0236 	eor.w	r2, r2, #54	; 0x36
     2a0:	541a      	strb	r2, [r3, r0]
/media/wen/My_Passport/Raspbian/raspbian-tee/raspbian-tee/optee_examples/socket_test/ta/socket_test_ta.c:244 (discriminator 3)
     2a2:	3301      	adds	r3, #1
     2a4:	2b40      	cmp	r3, #64	; 0x40
     2a6:	d1f8      	bne.n	29a <hmac_sha1+0x42>
     2a8:	2300      	movs	r3, #0
/media/wen/My_Passport/Raspbian/raspbian-tee/raspbian-tee/optee_examples/socket_test/ta/socket_test_ta.c:251 (discriminator 3)
     2aa:	a956      	add	r1, sp, #344	; 0x158
     2ac:	5cc2      	ldrb	r2, [r0, r3]
     2ae:	545a      	strb	r2, [r3, r1]
/media/wen/My_Passport/Raspbian/raspbian-tee/raspbian-tee/optee_examples/socket_test/ta/socket_test_ta.c:249 (discriminator 3)
     2b0:	3301      	adds	r3, #1
     2b2:	2b40      	cmp	r3, #64	; 0x40
     2b4:	d1fa      	bne.n	2ac <hmac_sha1+0x54>
     2b6:	2300      	movs	r3, #0
/media/wen/My_Passport/Raspbian/raspbian-tee/raspbian-tee/optee_examples/socket_test/ta/socket_test_ta.c:253 (discriminator 1)
     2b8:	42b3      	cmp	r3, r6
     2ba:	db25      	blt.n	308 <hmac_sha1+0xb0>
/media/wen/My_Passport/Raspbian/raspbian-tee/raspbian-tee/optee_examples/socket_test/ta/socket_test_ta.c:259
     2bc:	f106 0240 	add.w	r2, r6, #64	; 0x40
     2c0:	4620      	mov	r0, r4
     2c2:	f7ff fead 	bl	20 <sha1digest>
/media/wen/My_Passport/Raspbian/raspbian-tee/raspbian-tee/optee_examples/socket_test/ta/socket_test_ta.c:262
     2c6:	2300      	movs	r3, #0
/media/wen/My_Passport/Raspbian/raspbian-tee/raspbian-tee/optee_examples/socket_test/ta/socket_test_ta.c:264
     2c8:	a821      	add	r0, sp, #132	; 0x84
/media/wen/My_Passport/Raspbian/raspbian-tee/raspbian-tee/optee_examples/socket_test/ta/socket_test_ta.c:264 (discriminator 3)
     2ca:	5cea      	ldrb	r2, [r5, r3]
     2cc:	f082 025c 	eor.w	r2, r2, #92	; 0x5c
     2d0:	541a      	strb	r2, [r3, r0]
/media/wen/My_Passport/Raspbian/raspbian-tee/raspbian-tee/optee_examples/socket_test/ta/socket_test_ta.c:262 (discriminator 3)
     2d2:	3301      	adds	r3, #1
     2d4:	2b40      	cmp	r3, #64	; 0x40
     2d6:	d1f8      	bne.n	2ca <hmac_sha1+0x72>
     2d8:	2300      	movs	r3, #0
/media/wen/My_Passport/Raspbian/raspbian-tee/raspbian-tee/optee_examples/socket_test/ta/socket_test_ta.c:270 (discriminator 3)
     2da:	a941      	add	r1, sp, #260	; 0x104
     2dc:	5cc2      	ldrb	r2, [r0, r3]
     2de:	545a      	strb	r2, [r3, r1]
/media/wen/My_Passport/Raspbian/raspbian-tee/raspbian-tee/optee_examples/socket_test/ta/socket_test_ta.c:268 (discriminator 3)
     2e0:	3301      	adds	r3, #1
     2e2:	2b40      	cmp	r3, #64	; 0x40
     2e4:	d1fa      	bne.n	2dc <hmac_sha1+0x84>
     2e6:	2300      	movs	r3, #0
/media/wen/My_Passport/Raspbian/raspbian-tee/raspbian-tee/optee_examples/socket_test/ta/socket_test_ta.c:274 (discriminator 3)
     2e8:	18ca      	adds	r2, r1, r3
     2ea:	5ce0      	ldrb	r0, [r4, r3]
/media/wen/My_Passport/Raspbian/raspbian-tee/raspbian-tee/optee_examples/socket_test/ta/socket_test_ta.c:272 (discriminator 3)
     2ec:	3301      	adds	r3, #1
     2ee:	2b14      	cmp	r3, #20
/media/wen/My_Passport/Raspbian/raspbian-tee/raspbian-tee/optee_examples/socket_test/ta/socket_test_ta.c:274 (discriminator 3)
     2f0:	f882 0040 	strb.w	r0, [r2, #64]	; 0x40
/media/wen/My_Passport/Raspbian/raspbian-tee/raspbian-tee/optee_examples/socket_test/ta/socket_test_ta.c:272 (discriminator 3)
     2f4:	d1f8      	bne.n	2e8 <hmac_sha1+0x90>
/media/wen/My_Passport/Raspbian/raspbian-tee/raspbian-tee/optee_examples/socket_test/ta/socket_test_ta.c:278
     2f6:	2254      	movs	r2, #84	; 0x54
     2f8:	4620      	mov	r0, r4
     2fa:	f7ff fe91 	bl	20 <sha1digest>
/media/wen/My_Passport/Raspbian/raspbian-tee/raspbian-tee/optee_examples/socket_test/ta/socket_test_ta.c:279
     2fe:	f50d 5d8e 	add.w	sp, sp, #4544	; 0x11c0
     302:	b006      	add	sp, #24
     304:	e8bd 81f0 	ldmia.w	sp!, {r4, r5, r6, r7, r8, pc}
/media/wen/My_Passport/Raspbian/raspbian-tee/raspbian-tee/optee_examples/socket_test/ta/socket_test_ta.c:255 (discriminator 3)
     308:	18ca      	adds	r2, r1, r3
     30a:	5cf8      	ldrb	r0, [r7, r3]
/media/wen/My_Passport/Raspbian/raspbian-tee/raspbian-tee/optee_examples/socket_test/ta/socket_test_ta.c:253 (discriminator 3)
     30c:	3301      	adds	r3, #1
/media/wen/My_Passport/Raspbian/raspbian-tee/raspbian-tee/optee_examples/socket_test/ta/socket_test_ta.c:255 (discriminator 3)
     30e:	f882 0040 	strb.w	r0, [r2, #64]	; 0x40
     312:	e7d1      	b.n	2b8 <hmac_sha1+0x60>
     314:	00005cfc 	.word	0x00005cfc

00000318 <string_cmp>:
string_cmp():
/media/wen/My_Passport/Raspbian/raspbian-tee/raspbian-tee/optee_examples/socket_test/ta/socket_test_ta.c:284
     318:	1e42      	subs	r2, r0, #1
     31a:	3901      	subs	r1, #1
/media/wen/My_Passport/Raspbian/raspbian-tee/raspbian-tee/optee_examples/socket_test/ta/socket_test_ta.c:286 (discriminator 1)
     31c:	f812 0f01 	ldrb.w	r0, [r2, #1]!
     320:	f811 3f01 	ldrb.w	r3, [r1, #1]!
     324:	4298      	cmp	r0, r3
     326:	d001      	beq.n	32c <string_cmp+0x14>
/media/wen/My_Passport/Raspbian/raspbian-tee/raspbian-tee/optee_examples/socket_test/ta/socket_test_ta.c:289
     328:	1ac0      	subs	r0, r0, r3
     32a:	e001      	b.n	330 <string_cmp+0x18>
/media/wen/My_Passport/Raspbian/raspbian-tee/raspbian-tee/optee_examples/socket_test/ta/socket_test_ta.c:287
     32c:	2800      	cmp	r0, #0
     32e:	d1f5      	bne.n	31c <string_cmp+0x4>
/media/wen/My_Passport/Raspbian/raspbian-tee/raspbian-tee/optee_examples/socket_test/ta/socket_test_ta.c:290
     330:	4770      	bx	lr

00000332 <socket_send>:
socket_send():
/media/wen/My_Passport/Raspbian/raspbian-tee/raspbian-tee/optee_examples/socket_test/ta/socket_test_ta.c:458
     332:	f242 5325 	movw	r3, #9509	; 0x2525
/media/wen/My_Passport/Raspbian/raspbian-tee/raspbian-tee/optee_examples/socket_test/ta/socket_test_ta.c:440
     336:	e92d 43f0 	stmdb	sp!, {r4, r5, r6, r7, r8, r9, lr}
/media/wen/My_Passport/Raspbian/raspbian-tee/raspbian-tee/optee_examples/socket_test/ta/socket_test_ta.c:458
     33a:	4299      	cmp	r1, r3
/media/wen/My_Passport/Raspbian/raspbian-tee/raspbian-tee/optee_examples/socket_test/ta/socket_test_ta.c:440
     33c:	f5ad 5d83 	sub.w	sp, sp, #4192	; 0x1060
     340:	4607      	mov	r7, r0
     342:	b087      	sub	sp, #28
     344:	4614      	mov	r4, r2
/media/wen/My_Passport/Raspbian/raspbian-tee/raspbian-tee/optee_examples/socket_test/ta/socket_test_ta.c:458
     346:	d155      	bne.n	3f4 <socket_send+0xc2>
/media/wen/My_Passport/Raspbian/raspbian-tee/raspbian-tee/optee_examples/socket_test/ta/socket_test_ta.c:471
     348:	6815      	ldr	r5, [r2, #0]
     34a:	ae12      	add	r6, sp, #72	; 0x48
     34c:	f640 020c 	movw	r2, #2060	; 0x80c
     350:	4630      	mov	r0, r6
     352:	4629      	mov	r1, r5
/media/wen/My_Passport/Raspbian/raspbian-tee/raspbian-tee/optee_examples/socket_test/ta/socket_test_ta.c:472
     354:	f60d 0858 	addw	r8, sp, #2136	; 0x858
/media/wen/My_Passport/Raspbian/raspbian-tee/raspbian-tee/optee_examples/socket_test/ta/socket_test_ta.c:471
     358:	f005 fcc8 	bl	5cec <memcpy>
/media/wen/My_Passport/Raspbian/raspbian-tee/raspbian-tee/optee_examples/socket_test/ta/socket_test_ta.c:472
     35c:	4629      	mov	r1, r5
     35e:	f640 020c 	movw	r2, #2060	; 0x80c
     362:	4640      	mov	r0, r8
     364:	f005 fcc2 	bl	5cec <memcpy>
/media/wen/My_Passport/Raspbian/raspbian-tee/raspbian-tee/optee_examples/socket_test/ta/socket_test_ta.c:481
     368:	ad06      	add	r5, sp, #24
/media/wen/My_Passport/Raspbian/raspbian-tee/raspbian-tee/optee_examples/socket_test/ta/socket_test_ta.c:473
     36a:	f50d 5083 	add.w	r0, sp, #4192	; 0x1060
     36e:	2214      	movs	r2, #20
     370:	6921      	ldr	r1, [r4, #16]
/media/wen/My_Passport/Raspbian/raspbian-tee/raspbian-tee/optee_examples/socket_test/ta/socket_test_ta.c:481
     372:	f1a5 0908 	sub.w	r9, r5, #8
/media/wen/My_Passport/Raspbian/raspbian-tee/raspbian-tee/optee_examples/socket_test/ta/socket_test_ta.c:473
     376:	3004      	adds	r0, #4
     378:	f005 fcb8 	bl	5cec <memcpy>
/media/wen/My_Passport/Raspbian/raspbian-tee/raspbian-tee/optee_examples/socket_test/ta/socket_test_ta.c:481
     37c:	4631      	mov	r1, r6
     37e:	f640 020c 	movw	r2, #2060	; 0x80c
     382:	4648      	mov	r0, r9
     384:	f7ff ff68 	bl	258 <hmac_sha1>
/media/wen/My_Passport/Raspbian/raspbian-tee/raspbian-tee/optee_examples/socket_test/ta/socket_test_ta.c:484
     388:	6921      	ldr	r1, [r4, #16]
     38a:	4648      	mov	r0, r9
     38c:	ae0a      	add	r6, sp, #40	; 0x28
     38e:	f7ff ffc3 	bl	318 <string_cmp>
     392:	b128      	cbz	r0, 3a0 <socket_send+0x6e>
/media/wen/My_Passport/Raspbian/raspbian-tee/raspbian-tee/optee_examples/socket_test/ta/socket_test_ta.c:486
     394:	2300      	movs	r3, #0
/media/wen/My_Passport/Raspbian/raspbian-tee/raspbian-tee/optee_examples/socket_test/ta/socket_test_ta.c:502
     396:	60a3      	str	r3, [r4, #8]
/media/wen/My_Passport/Raspbian/raspbian-tee/raspbian-tee/optee_examples/socket_test/ta/socket_test_ta.c:509
     398:	2500      	movs	r5, #0
/media/wen/My_Passport/Raspbian/raspbian-tee/raspbian-tee/optee_examples/socket_test/ta/socket_test_ta.c:507
     39a:	6933      	ldr	r3, [r6, #16]
     39c:	61a3      	str	r3, [r4, #24]
/media/wen/My_Passport/Raspbian/raspbian-tee/raspbian-tee/optee_examples/socket_test/ta/socket_test_ta.c:509
     39e:	e021      	b.n	3e4 <socket_send+0xb2>
/media/wen/My_Passport/Raspbian/raspbian-tee/raspbian-tee/optee_examples/socket_test/ta/socket_test_ta.c:489
     3a0:	683a      	ldr	r2, [r7, #0]
/media/wen/My_Passport/Raspbian/raspbian-tee/raspbian-tee/optee_examples/socket_test/ta/socket_test_ta.c:490
     3a2:	f04f 31ff 	mov.w	r1, #4294967295
/media/wen/My_Passport/Raspbian/raspbian-tee/raspbian-tee/optee_examples/socket_test/ta/socket_test_ta.c:492
     3a6:	f44f 6302 	mov.w	r3, #2080	; 0x820
/media/wen/My_Passport/Raspbian/raspbian-tee/raspbian-tee/optee_examples/socket_test/ta/socket_test_ta.c:494
     3aa:	3d0c      	subs	r5, #12
/media/wen/My_Passport/Raspbian/raspbian-tee/raspbian-tee/optee_examples/socket_test/ta/socket_test_ta.c:492
     3ac:	60f3      	str	r3, [r6, #12]
/media/wen/My_Passport/Raspbian/raspbian-tee/raspbian-tee/optee_examples/socket_test/ta/socket_test_ta.c:494
     3ae:	f240 2351 	movw	r3, #593	; 0x251
/media/wen/My_Passport/Raspbian/raspbian-tee/raspbian-tee/optee_examples/socket_test/ta/socket_test_ta.c:490
     3b2:	6071      	str	r1, [r6, #4]
/media/wen/My_Passport/Raspbian/raspbian-tee/raspbian-tee/optee_examples/socket_test/ta/socket_test_ta.c:491
     3b4:	f8c6 8008 	str.w	r8, [r6, #8]
/media/wen/My_Passport/Raspbian/raspbian-tee/raspbian-tee/optee_examples/socket_test/ta/socket_test_ta.c:494
     3b8:	9501      	str	r5, [sp, #4]
     3ba:	9600      	str	r6, [sp, #0]
/media/wen/My_Passport/Raspbian/raspbian-tee/raspbian-tee/optee_examples/socket_test/ta/socket_test_ta.c:489
     3bc:	920a      	str	r2, [sp, #40]	; 0x28
/media/wen/My_Passport/Raspbian/raspbian-tee/raspbian-tee/optee_examples/socket_test/ta/socket_test_ta.c:494
     3be:	2203      	movs	r2, #3
     3c0:	6878      	ldr	r0, [r7, #4]
     3c2:	f000 fe1e 	bl	1002 <TEE_InvokeTACommand>
/media/wen/My_Passport/Raspbian/raspbian-tee/raspbian-tee/optee_examples/socket_test/ta/socket_test_ta.c:496
     3c6:	4605      	mov	r5, r0
     3c8:	b190      	cbz	r0, 3f0 <socket_send+0xbe>
/media/wen/My_Passport/Raspbian/raspbian-tee/raspbian-tee/optee_examples/socket_test/ta/socket_test_ta.c:498
     3ca:	4b0c      	ldr	r3, [pc, #48]	; (3fc <socket_send+0xca>)
     3cc:	f44f 71f9 	mov.w	r1, #498	; 0x1f2
     3d0:	9001      	str	r0, [sp, #4]
     3d2:	480b      	ldr	r0, [pc, #44]	; (400 <socket_send+0xce>)
     3d4:	447b      	add	r3, pc
     3d6:	9300      	str	r3, [sp, #0]
     3d8:	2301      	movs	r3, #1
     3da:	4478      	add	r0, pc
     3dc:	461a      	mov	r2, r3
     3de:	3054      	adds	r0, #84	; 0x54
     3e0:	f000 f8e4 	bl	5ac <trace_printf>
/media/wen/My_Passport/Raspbian/raspbian-tee/raspbian-tee/optee_examples/socket_test/ta/socket_test_ta.c:510
     3e4:	4628      	mov	r0, r5
     3e6:	f50d 5d83 	add.w	sp, sp, #4192	; 0x1060
     3ea:	b007      	add	sp, #28
     3ec:	e8bd 83f0 	ldmia.w	sp!, {r4, r5, r6, r7, r8, r9, pc}
/media/wen/My_Passport/Raspbian/raspbian-tee/raspbian-tee/optee_examples/socket_test/ta/socket_test_ta.c:502
     3f0:	2301      	movs	r3, #1
     3f2:	e7d0      	b.n	396 <socket_send+0x64>
/media/wen/My_Passport/Raspbian/raspbian-tee/raspbian-tee/optee_examples/socket_test/ta/socket_test_ta.c:459
     3f4:	4d00      	ldr	r5, [pc, #0]	; (3f8 <socket_send+0xc6>)
     3f6:	e7f5      	b.n	3e4 <socket_send+0xb2>
     3f8:	ffff0006 	.word	0xffff0006
     3fc:	00005ed8 	.word	0x00005ed8
     400:	00005b8a 	.word	0x00005b8a

00000404 <TA_CreateEntryPoint>:
TA_CreateEntryPoint():
/media/wen/My_Passport/Raspbian/raspbian-tee/raspbian-tee/optee_examples/socket_test/ta/socket_test_ta.c:301
     404:	2000      	movs	r0, #0
     406:	4770      	bx	lr

00000408 <TA_DestroyEntryPoint>:
TA_DestroyEntryPoint():
/media/wen/My_Passport/Raspbian/raspbian-tee/raspbian-tee/optee_examples/socket_test/ta/socket_test_ta.c:304
     408:	4770      	bx	lr

0000040a <TA_OpenSessionEntryPoint>:
TA_OpenSessionEntryPoint():
/media/wen/My_Passport/Raspbian/raspbian-tee/raspbian-tee/optee_examples/socket_test/ta/socket_test_ta.c:311
     40a:	b538      	push	{r3, r4, r5, lr}
     40c:	4615      	mov	r5, r2
/media/wen/My_Passport/Raspbian/raspbian-tee/raspbian-tee/optee_examples/socket_test/ta/socket_test_ta.c:316
     40e:	4604      	mov	r4, r0
     410:	b940      	cbnz	r0, 424 <TA_OpenSessionEntryPoint+0x1a>
/media/wen/My_Passport/Raspbian/raspbian-tee/raspbian-tee/optee_examples/socket_test/ta/socket_test_ta.c:324
     412:	4601      	mov	r1, r0
     414:	2004      	movs	r0, #4
     416:	f000 fec0 	bl	119a <TEE_Malloc>
/media/wen/My_Passport/Raspbian/raspbian-tee/raspbian-tee/optee_examples/socket_test/ta/socket_test_ta.c:325
     41a:	b128      	cbz	r0, 428 <TA_OpenSessionEntryPoint+0x1e>
/media/wen/My_Passport/Raspbian/raspbian-tee/raspbian-tee/optee_examples/socket_test/ta/socket_test_ta.c:328
     41c:	6004      	str	r4, [r0, #0]
/media/wen/My_Passport/Raspbian/raspbian-tee/raspbian-tee/optee_examples/socket_test/ta/socket_test_ta.c:329
     41e:	6028      	str	r0, [r5, #0]
/media/wen/My_Passport/Raspbian/raspbian-tee/raspbian-tee/optee_examples/socket_test/ta/socket_test_ta.c:332
     420:	4620      	mov	r0, r4
     422:	bd38      	pop	{r3, r4, r5, pc}
/media/wen/My_Passport/Raspbian/raspbian-tee/raspbian-tee/optee_examples/socket_test/ta/socket_test_ta.c:317
     424:	4801      	ldr	r0, [pc, #4]	; (42c <TA_OpenSessionEntryPoint+0x22>)
     426:	bd38      	pop	{r3, r4, r5, pc}
/media/wen/My_Passport/Raspbian/raspbian-tee/raspbian-tee/optee_examples/socket_test/ta/socket_test_ta.c:326
     428:	4801      	ldr	r0, [pc, #4]	; (430 <TA_OpenSessionEntryPoint+0x26>)
/media/wen/My_Passport/Raspbian/raspbian-tee/raspbian-tee/optee_examples/socket_test/ta/socket_test_ta.c:333
     42a:	bd38      	pop	{r3, r4, r5, pc}
     42c:	ffff0006 	.word	0xffff0006
     430:	ffff000c 	.word	0xffff000c

00000434 <TA_CloseSessionEntryPoint>:
TA_CloseSessionEntryPoint():
/media/wen/My_Passport/Raspbian/raspbian-tee/raspbian-tee/optee_examples/socket_test/ta/socket_test_ta.c:338
     434:	f000 bed8 	b.w	11e8 <TEE_Free>

00000438 <TA_InvokeCommandEntryPoint>:
TA_InvokeCommandEntryPoint():
/media/wen/My_Passport/Raspbian/raspbian-tee/raspbian-tee/optee_examples/socket_test/ta/socket_test_ta.c:596
     438:	b5f0      	push	{r4, r5, r6, r7, lr}
     43a:	4605      	mov	r5, r0
     43c:	4617      	mov	r7, r2
     43e:	b08d      	sub	sp, #52	; 0x34
     440:	461e      	mov	r6, r3
/media/wen/My_Passport/Raspbian/raspbian-tee/raspbian-tee/optee_examples/socket_test/ta/socket_test_ta.c:598
     442:	2904      	cmp	r1, #4
     444:	f200 808b 	bhi.w	55e <TA_InvokeCommandEntryPoint+0x126>
     448:	e8df f001 	tbb	[pc, r1]
     44c:	4c462f03 	.word	0x4c462f03
     450:	71          	.byte	0x71
     451:	00          	.byte	0x00
socket_open():
/media/wen/My_Passport/Raspbian/raspbian-tee/raspbian-tee/optee_examples/socket_test/ta/socket_test_ta.c:355
     452:	2f51      	cmp	r7, #81	; 0x51
     454:	f040 8081 	bne.w	55a <TA_InvokeCommandEntryPoint+0x122>
/media/wen/My_Passport/Raspbian/raspbian-tee/raspbian-tee/optee_examples/socket_test/ta/socket_test_ta.c:358
     458:	1d03      	adds	r3, r0, #4
     45a:	4844      	ldr	r0, [pc, #272]	; (56c <TA_InvokeCommandEntryPoint+0x134>)
     45c:	9300      	str	r3, [sp, #0]
     45e:	af03      	add	r7, sp, #12
     460:	2300      	movs	r3, #0
     462:	9701      	str	r7, [sp, #4]
     464:	461a      	mov	r2, r3
     466:	f04f 31ff 	mov.w	r1, #4294967295
     46a:	4478      	add	r0, pc
     46c:	f000 fd9d 	bl	faa <TEE_OpenTASession>
/media/wen/My_Passport/Raspbian/raspbian-tee/raspbian-tee/optee_examples/socket_test/ta/socket_test_ta.c:361
     470:	4604      	mov	r4, r0
     472:	b9b8      	cbnz	r0, 4a4 <TA_InvokeCommandEntryPoint+0x6c>
/media/wen/My_Passport/Raspbian/raspbian-tee/raspbian-tee/optee_examples/socket_test/ta/socket_test_ta.c:372
     474:	6833      	ldr	r3, [r6, #0]
/media/wen/My_Passport/Raspbian/raspbian-tee/raspbian-tee/optee_examples/socket_test/ta/socket_test_ta.c:371
     476:	2201      	movs	r2, #1
/media/wen/My_Passport/Raspbian/raspbian-tee/raspbian-tee/optee_examples/socket_test/ta/socket_test_ta.c:382
     478:	9701      	str	r7, [sp, #4]
     47a:	f04f 31ff 	mov.w	r1, #4294967295
/media/wen/My_Passport/Raspbian/raspbian-tee/raspbian-tee/optee_examples/socket_test/ta/socket_test_ta.c:372
     47e:	9305      	str	r3, [sp, #20]
/media/wen/My_Passport/Raspbian/raspbian-tee/raspbian-tee/optee_examples/socket_test/ta/socket_test_ta.c:373
     480:	68b3      	ldr	r3, [r6, #8]
/media/wen/My_Passport/Raspbian/raspbian-tee/raspbian-tee/optee_examples/socket_test/ta/socket_test_ta.c:382
     482:	6868      	ldr	r0, [r5, #4]
/media/wen/My_Passport/Raspbian/raspbian-tee/raspbian-tee/optee_examples/socket_test/ta/socket_test_ta.c:373
     484:	9306      	str	r3, [sp, #24]
/media/wen/My_Passport/Raspbian/raspbian-tee/raspbian-tee/optee_examples/socket_test/ta/socket_test_ta.c:374
     486:	68f3      	ldr	r3, [r6, #12]
/media/wen/My_Passport/Raspbian/raspbian-tee/raspbian-tee/optee_examples/socket_test/ta/socket_test_ta.c:371
     488:	9204      	str	r2, [sp, #16]
/media/wen/My_Passport/Raspbian/raspbian-tee/raspbian-tee/optee_examples/socket_test/ta/socket_test_ta.c:374
     48a:	9307      	str	r3, [sp, #28]
/media/wen/My_Passport/Raspbian/raspbian-tee/raspbian-tee/optee_examples/socket_test/ta/socket_test_ta.c:375
     48c:	2365      	movs	r3, #101	; 0x65
     48e:	9308      	str	r3, [sp, #32]
/media/wen/My_Passport/Raspbian/raspbian-tee/raspbian-tee/optee_examples/socket_test/ta/socket_test_ta.c:382
     490:	ab04      	add	r3, sp, #16
     492:	9300      	str	r3, [sp, #0]
     494:	f242 1351 	movw	r3, #8529	; 0x2151
     498:	f000 fdb3 	bl	1002 <TEE_InvokeTACommand>
/media/wen/My_Passport/Raspbian/raspbian-tee/raspbian-tee/optee_examples/socket_test/ta/socket_test_ta.c:386
     49c:	4604      	mov	r4, r0
     49e:	b908      	cbnz	r0, 4a4 <TA_InvokeCommandEntryPoint+0x6c>
/media/wen/My_Passport/Raspbian/raspbian-tee/raspbian-tee/optee_examples/socket_test/ta/socket_test_ta.c:389
     4a0:	9b0a      	ldr	r3, [sp, #40]	; 0x28
     4a2:	602b      	str	r3, [r5, #0]
TA_InvokeCommandEntryPoint():
/media/wen/My_Passport/Raspbian/raspbian-tee/raspbian-tee/optee_examples/socket_test/ta/socket_test_ta.c:613
     4a4:	4620      	mov	r0, r4
     4a6:	b00d      	add	sp, #52	; 0x34
     4a8:	bdf0      	pop	{r4, r5, r6, r7, pc}
socket_close():
/media/wen/My_Passport/Raspbian/raspbian-tee/raspbian-tee/optee_examples/socket_test/ta/socket_test_ta.c:410
     4aa:	2f00      	cmp	r7, #0
     4ac:	d155      	bne.n	55a <TA_InvokeCommandEntryPoint+0x122>
/media/wen/My_Passport/Raspbian/raspbian-tee/raspbian-tee/optee_examples/socket_test/ta/socket_test_ta.c:421
     4ae:	6803      	ldr	r3, [r0, #0]
/media/wen/My_Passport/Raspbian/raspbian-tee/raspbian-tee/optee_examples/socket_test/ta/socket_test_ta.c:425
     4b0:	2202      	movs	r2, #2
     4b2:	f04f 31ff 	mov.w	r1, #4294967295
/media/wen/My_Passport/Raspbian/raspbian-tee/raspbian-tee/optee_examples/socket_test/ta/socket_test_ta.c:421
     4b6:	9304      	str	r3, [sp, #16]
/media/wen/My_Passport/Raspbian/raspbian-tee/raspbian-tee/optee_examples/socket_test/ta/socket_test_ta.c:425
     4b8:	ab03      	add	r3, sp, #12
     4ba:	9301      	str	r3, [sp, #4]
     4bc:	ab04      	add	r3, sp, #16
     4be:	9300      	str	r3, [sp, #0]
     4c0:	2301      	movs	r3, #1
     4c2:	6840      	ldr	r0, [r0, #4]
     4c4:	f000 fd9d 	bl	1002 <TEE_InvokeTACommand>
/media/wen/My_Passport/Raspbian/raspbian-tee/raspbian-tee/optee_examples/socket_test/ta/socket_test_ta.c:429
     4c8:	4604      	mov	r4, r0
     4ca:	2800      	cmp	r0, #0
     4cc:	d1ea      	bne.n	4a4 <TA_InvokeCommandEntryPoint+0x6c>
/media/wen/My_Passport/Raspbian/raspbian-tee/raspbian-tee/optee_examples/socket_test/ta/socket_test_ta.c:432
     4ce:	6868      	ldr	r0, [r5, #4]
     4d0:	f000 fd8d 	bl	fee <TEE_CloseTASession>
/media/wen/My_Passport/Raspbian/raspbian-tee/raspbian-tee/optee_examples/socket_test/ta/socket_test_ta.c:433
     4d4:	602f      	str	r7, [r5, #0]
     4d6:	e7e5      	b.n	4a4 <TA_InvokeCommandEntryPoint+0x6c>
TA_InvokeCommandEntryPoint():
/media/wen/My_Passport/Raspbian/raspbian-tee/raspbian-tee/optee_examples/socket_test/ta/socket_test_ta.c:604
     4d8:	4632      	mov	r2, r6
     4da:	4639      	mov	r1, r7
     4dc:	f7ff ff29 	bl	332 <socket_send>
socket_ioctl():
/media/wen/My_Passport/Raspbian/raspbian-tee/raspbian-tee/optee_examples/socket_test/ta/socket_test_ta.c:583
     4e0:	4604      	mov	r4, r0
     4e2:	e7df      	b.n	4a4 <TA_InvokeCommandEntryPoint+0x6c>
socket_recv():
/media/wen/My_Passport/Raspbian/raspbian-tee/raspbian-tee/optee_examples/socket_test/ta/socket_test_ta.c:526
     4e4:	2f06      	cmp	r7, #6
     4e6:	d138      	bne.n	55a <TA_InvokeCommandEntryPoint+0x122>
/media/wen/My_Passport/Raspbian/raspbian-tee/raspbian-tee/optee_examples/socket_test/ta/socket_test_ta.c:535
     4e8:	6803      	ldr	r3, [r0, #0]
/media/wen/My_Passport/Raspbian/raspbian-tee/raspbian-tee/optee_examples/socket_test/ta/socket_test_ta.c:536
     4ea:	f04f 31ff 	mov.w	r1, #4294967295
/media/wen/My_Passport/Raspbian/raspbian-tee/raspbian-tee/optee_examples/socket_test/ta/socket_test_ta.c:540
     4ee:	2204      	movs	r2, #4
/media/wen/My_Passport/Raspbian/raspbian-tee/raspbian-tee/optee_examples/socket_test/ta/socket_test_ta.c:536
     4f0:	9105      	str	r1, [sp, #20]
/media/wen/My_Passport/Raspbian/raspbian-tee/raspbian-tee/optee_examples/socket_test/ta/socket_test_ta.c:535
     4f2:	9304      	str	r3, [sp, #16]
/media/wen/My_Passport/Raspbian/raspbian-tee/raspbian-tee/optee_examples/socket_test/ta/socket_test_ta.c:537
     4f4:	6833      	ldr	r3, [r6, #0]
     4f6:	9306      	str	r3, [sp, #24]
/media/wen/My_Passport/Raspbian/raspbian-tee/raspbian-tee/optee_examples/socket_test/ta/socket_test_ta.c:538
     4f8:	6873      	ldr	r3, [r6, #4]
     4fa:	9307      	str	r3, [sp, #28]
/media/wen/My_Passport/Raspbian/raspbian-tee/raspbian-tee/optee_examples/socket_test/ta/socket_test_ta.c:540
     4fc:	ab03      	add	r3, sp, #12
     4fe:	9301      	str	r3, [sp, #4]
     500:	ab04      	add	r3, sp, #16
     502:	9300      	str	r3, [sp, #0]
     504:	2361      	movs	r3, #97	; 0x61
     506:	6840      	ldr	r0, [r0, #4]
     508:	f000 fd7b 	bl	1002 <TEE_InvokeTACommand>
/media/wen/My_Passport/Raspbian/raspbian-tee/raspbian-tee/optee_examples/socket_test/ta/socket_test_ta.c:545
     50c:	4604      	mov	r4, r0
     50e:	2800      	cmp	r0, #0
     510:	d0c8      	beq.n	4a4 <TA_InvokeCommandEntryPoint+0x6c>
/media/wen/My_Passport/Raspbian/raspbian-tee/raspbian-tee/optee_examples/socket_test/ta/socket_test_ta.c:547
     512:	4b17      	ldr	r3, [pc, #92]	; (570 <TA_InvokeCommandEntryPoint+0x138>)
     514:	f240 2123 	movw	r1, #547	; 0x223
     518:	9001      	str	r0, [sp, #4]
     51a:	4816      	ldr	r0, [pc, #88]	; (574 <TA_InvokeCommandEntryPoint+0x13c>)
     51c:	447b      	add	r3, pc
     51e:	9300      	str	r3, [sp, #0]
     520:	2301      	movs	r3, #1
     522:	4478      	add	r0, pc
     524:	461a      	mov	r2, r3
     526:	3060      	adds	r0, #96	; 0x60
     528:	f000 f840 	bl	5ac <trace_printf>
     52c:	e7ba      	b.n	4a4 <TA_InvokeCommandEntryPoint+0x6c>
socket_ioctl():
/media/wen/My_Passport/Raspbian/raspbian-tee/raspbian-tee/optee_examples/socket_test/ta/socket_test_ta.c:568
     52e:	2f71      	cmp	r7, #113	; 0x71
     530:	d113      	bne.n	55a <TA_InvokeCommandEntryPoint+0x122>
/media/wen/My_Passport/Raspbian/raspbian-tee/raspbian-tee/optee_examples/socket_test/ta/socket_test_ta.c:578
     532:	6803      	ldr	r3, [r0, #0]
/media/wen/My_Passport/Raspbian/raspbian-tee/raspbian-tee/optee_examples/socket_test/ta/socket_test_ta.c:583
     534:	2205      	movs	r2, #5
     536:	f04f 31ff 	mov.w	r1, #4294967295
/media/wen/My_Passport/Raspbian/raspbian-tee/raspbian-tee/optee_examples/socket_test/ta/socket_test_ta.c:578
     53a:	9304      	str	r3, [sp, #16]
/media/wen/My_Passport/Raspbian/raspbian-tee/raspbian-tee/optee_examples/socket_test/ta/socket_test_ta.c:579
     53c:	6833      	ldr	r3, [r6, #0]
     53e:	9305      	str	r3, [sp, #20]
/media/wen/My_Passport/Raspbian/raspbian-tee/raspbian-tee/optee_examples/socket_test/ta/socket_test_ta.c:580
     540:	68b3      	ldr	r3, [r6, #8]
     542:	9306      	str	r3, [sp, #24]
/media/wen/My_Passport/Raspbian/raspbian-tee/raspbian-tee/optee_examples/socket_test/ta/socket_test_ta.c:581
     544:	68f3      	ldr	r3, [r6, #12]
     546:	9307      	str	r3, [sp, #28]
/media/wen/My_Passport/Raspbian/raspbian-tee/raspbian-tee/optee_examples/socket_test/ta/socket_test_ta.c:583
     548:	ab03      	add	r3, sp, #12
     54a:	9301      	str	r3, [sp, #4]
     54c:	ab04      	add	r3, sp, #16
     54e:	9300      	str	r3, [sp, #0]
     550:	463b      	mov	r3, r7
     552:	6840      	ldr	r0, [r0, #4]
     554:	f000 fd55 	bl	1002 <TEE_InvokeTACommand>
     558:	e7c2      	b.n	4e0 <TA_InvokeCommandEntryPoint+0xa8>
/media/wen/My_Passport/Raspbian/raspbian-tee/raspbian-tee/optee_examples/socket_test/ta/socket_test_ta.c:569
     55a:	4c02      	ldr	r4, [pc, #8]	; (564 <TA_InvokeCommandEntryPoint+0x12c>)
TA_InvokeCommandEntryPoint():
/media/wen/My_Passport/Raspbian/raspbian-tee/raspbian-tee/optee_examples/socket_test/ta/socket_test_ta.c:608
     55c:	e7a2      	b.n	4a4 <TA_InvokeCommandEntryPoint+0x6c>
/media/wen/My_Passport/Raspbian/raspbian-tee/raspbian-tee/optee_examples/socket_test/ta/socket_test_ta.c:611
     55e:	4c02      	ldr	r4, [pc, #8]	; (568 <TA_InvokeCommandEntryPoint+0x130>)
     560:	e7a0      	b.n	4a4 <TA_InvokeCommandEntryPoint+0x6c>
     562:	bf00      	nop
     564:	ffff0006 	.word	0xffff0006
     568:	ffff000a 	.word	0xffff000a
     56c:	00007b92 	.word	0x00007b92
     570:	00005dac 	.word	0x00005dac
     574:	00005a42 	.word	0x00005a42

00000578 <trace_set_level>:
trace_set_level():
/media/wen/My_Passport/Raspbian/raspbian-tee/raspbian-tee/optee_os/lib/libutils/ext/trace.c:25
     578:	4b05      	ldr	r3, [pc, #20]	; (590 <trace_set_level+0x18>)
/media/wen/My_Passport/Raspbian/raspbian-tee/raspbian-tee/optee_os/lib/libutils/ext/trace.c:26
     57a:	2804      	cmp	r0, #4
     57c:	4a05      	ldr	r2, [pc, #20]	; (594 <trace_set_level+0x1c>)
/media/wen/My_Passport/Raspbian/raspbian-tee/raspbian-tee/optee_os/lib/libutils/ext/trace.c:25
     57e:	447b      	add	r3, pc
     580:	589b      	ldr	r3, [r3, r2]
/media/wen/My_Passport/Raspbian/raspbian-tee/raspbian-tee/optee_os/lib/libutils/ext/trace.c:26
     582:	d801      	bhi.n	588 <trace_set_level+0x10>
/media/wen/My_Passport/Raspbian/raspbian-tee/raspbian-tee/optee_os/lib/libutils/ext/trace.c:27
     584:	6018      	str	r0, [r3, #0]
     586:	4770      	bx	lr
/media/wen/My_Passport/Raspbian/raspbian-tee/raspbian-tee/optee_os/lib/libutils/ext/trace.c:29
     588:	2204      	movs	r2, #4
     58a:	601a      	str	r2, [r3, #0]
     58c:	4770      	bx	lr
     58e:	bf00      	nop
     590:	00006fce 	.word	0x00006fce
     594:	00000010 	.word	0x00000010

00000598 <trace_get_level>:
trace_get_level():
/media/wen/My_Passport/Raspbian/raspbian-tee/raspbian-tee/optee_os/lib/libutils/ext/trace.c:33
     598:	4b02      	ldr	r3, [pc, #8]	; (5a4 <trace_get_level+0xc>)
/media/wen/My_Passport/Raspbian/raspbian-tee/raspbian-tee/optee_os/lib/libutils/ext/trace.c:34
     59a:	4a03      	ldr	r2, [pc, #12]	; (5a8 <trace_get_level+0x10>)
/media/wen/My_Passport/Raspbian/raspbian-tee/raspbian-tee/optee_os/lib/libutils/ext/trace.c:33
     59c:	447b      	add	r3, pc
/media/wen/My_Passport/Raspbian/raspbian-tee/raspbian-tee/optee_os/lib/libutils/ext/trace.c:34
     59e:	589b      	ldr	r3, [r3, r2]
/media/wen/My_Passport/Raspbian/raspbian-tee/raspbian-tee/optee_os/lib/libutils/ext/trace.c:35
     5a0:	6818      	ldr	r0, [r3, #0]
     5a2:	4770      	bx	lr
     5a4:	00006fb0 	.word	0x00006fb0
     5a8:	00000010 	.word	0x00000010

000005ac <trace_printf>:
trace_printf():
/media/wen/My_Passport/Raspbian/raspbian-tee/raspbian-tee/optee_os/lib/libutils/ext/trace.c:97
     5ac:	e92d 47f0 	stmdb	sp!, {r4, r5, r6, r7, r8, r9, sl, lr}
     5b0:	4607      	mov	r7, r0
     5b2:	f8df 9110 	ldr.w	r9, [pc, #272]	; 6c4 <trace_printf+0x118>
     5b6:	b0c6      	sub	sp, #280	; 0x118
     5b8:	4688      	mov	r8, r1
     5ba:	44f9      	add	r9, pc
     5bc:	4614      	mov	r4, r2
/media/wen/My_Passport/Raspbian/raspbian-tee/raspbian-tee/optee_os/lib/libutils/ext/trace.c:103
     5be:	469a      	mov	sl, r3
     5c0:	2b00      	cmp	r3, #0
     5c2:	d06b      	beq.n	69c <trace_printf+0xf0>
/media/wen/My_Passport/Raspbian/raspbian-tee/raspbian-tee/optee_os/lib/libutils/ext/trace.c:103 (discriminator 1)
     5c4:	4b40      	ldr	r3, [pc, #256]	; (6c8 <trace_printf+0x11c>)
     5c6:	f859 3003 	ldr.w	r3, [r9, r3]
     5ca:	681b      	ldr	r3, [r3, #0]
     5cc:	4293      	cmp	r3, r2
     5ce:	db62      	blt.n	696 <trace_printf+0xea>
trace_level_to_string():
/media/wen/My_Passport/Raspbian/raspbian-tee/raspbian-tee/optee_os/lib/libutils/ext/trace.c:52
     5d0:	4613      	mov	r3, r2
     5d2:	2a04      	cmp	r2, #4
/media/wen/My_Passport/Raspbian/raspbian-tee/raspbian-tee/optee_os/lib/libutils/ext/trace.c:55
     5d4:	4a3d      	ldr	r2, [pc, #244]	; (6cc <trace_printf+0x120>)
/media/wen/My_Passport/Raspbian/raspbian-tee/raspbian-tee/optee_os/lib/libutils/ext/trace.c:52
     5d6:	bf88      	it	hi
     5d8:	2300      	movhi	r3, #0
/media/wen/My_Passport/Raspbian/raspbian-tee/raspbian-tee/optee_os/lib/libutils/ext/trace.c:55
     5da:	447a      	add	r2, pc
     5dc:	5cd3      	ldrb	r3, [r2, r3]
trace_printf():
/media/wen/My_Passport/Raspbian/raspbian-tee/raspbian-tee/optee_os/lib/libutils/ext/trace.c:107
     5de:	4a3c      	ldr	r2, [pc, #240]	; (6d0 <trace_printf+0x124>)
     5e0:	ad06      	add	r5, sp, #24
     5e2:	f44f 7180 	mov.w	r1, #256	; 0x100
     5e6:	4628      	mov	r0, r5
     5e8:	447a      	add	r2, pc
     5ea:	f000 fc22 	bl	e32 <snprintk>
/media/wen/My_Passport/Raspbian/raspbian-tee/raspbian-tee/optee_os/lib/libutils/ext/trace.c:109
     5ee:	1e06      	subs	r6, r0, #0
     5f0:	db51      	blt.n	696 <trace_printf+0xea>
/media/wen/My_Passport/Raspbian/raspbian-tee/raspbian-tee/optee_os/lib/libutils/ext/trace.c:114
     5f2:	4b38      	ldr	r3, [pc, #224]	; (6d4 <trace_printf+0x128>)
     5f4:	f5c6 7180 	rsb	r1, r6, #256	; 0x100
     5f8:	4a37      	ldr	r2, [pc, #220]	; (6d8 <trace_printf+0x12c>)
     5fa:	19a8      	adds	r0, r5, r6
     5fc:	447a      	add	r2, pc
     5fe:	f859 3003 	ldr.w	r3, [r9, r3]
     602:	9303      	str	r3, [sp, #12]
     604:	f000 fc15 	bl	e32 <snprintk>
/media/wen/My_Passport/Raspbian/raspbian-tee/raspbian-tee/optee_os/lib/libutils/ext/trace.c:116
     608:	2800      	cmp	r0, #0
     60a:	db44      	blt.n	696 <trace_printf+0xea>
/media/wen/My_Passport/Raspbian/raspbian-tee/raspbian-tee/optee_os/lib/libutils/ext/trace.c:118
     60c:	4406      	add	r6, r0
/media/wen/My_Passport/Raspbian/raspbian-tee/raspbian-tee/optee_os/lib/libutils/ext/trace.c:120
     60e:	f1ba 0f00 	cmp.w	sl, #0
     612:	d04c      	beq.n	6ae <trace_printf+0x102>
/media/wen/My_Passport/Raspbian/raspbian-tee/raspbian-tee/optee_os/lib/libutils/ext/trace.c:120 (discriminator 1)
     614:	231a      	movs	r3, #26
     616:	fa23 f404 	lsr.w	r4, r3, r4
     61a:	07e3      	lsls	r3, r4, #31
     61c:	d547      	bpl.n	6ae <trace_printf+0x102>
print_thread_id():
/media/wen/My_Passport/Raspbian/raspbian-tee/raspbian-tee/optee_os/lib/libutils/ext/trace.c:65
     61e:	f000 fc37 	bl	e90 <trace_ext_get_thread_id>
/media/wen/My_Passport/Raspbian/raspbian-tee/raspbian-tee/optee_os/lib/libutils/ext/trace.c:67
     622:	2800      	cmp	r0, #0
trace_printf():
/media/wen/My_Passport/Raspbian/raspbian-tee/raspbian-tee/optee_os/lib/libutils/ext/trace.c:122
     624:	eb05 0406 	add.w	r4, r5, r6
     628:	f5c6 7980 	rsb	r9, r6, #256	; 0x100
print_thread_id():
/media/wen/My_Passport/Raspbian/raspbian-tee/raspbian-tee/optee_os/lib/libutils/ext/trace.c:67
     62c:	db38      	blt.n	6a0 <trace_printf+0xf4>
/media/wen/My_Passport/Raspbian/raspbian-tee/raspbian-tee/optee_os/lib/libutils/ext/trace.c:68
     62e:	4a2b      	ldr	r2, [pc, #172]	; (6dc <trace_printf+0x130>)
     630:	2301      	movs	r3, #1
     632:	9000      	str	r0, [sp, #0]
     634:	447a      	add	r2, pc
/media/wen/My_Passport/Raspbian/raspbian-tee/raspbian-tee/optee_os/lib/libutils/ext/trace.c:70
     636:	4649      	mov	r1, r9
     638:	4620      	mov	r0, r4
     63a:	f000 fbfa 	bl	e32 <snprintk>
trace_printf():
/media/wen/My_Passport/Raspbian/raspbian-tee/raspbian-tee/optee_os/lib/libutils/ext/trace.c:129
     63e:	2800      	cmp	r0, #0
     640:	db29      	blt.n	696 <trace_printf+0xea>
/media/wen/My_Passport/Raspbian/raspbian-tee/raspbian-tee/optee_os/lib/libutils/ext/trace.c:131
     642:	1984      	adds	r4, r0, r6
/media/wen/My_Passport/Raspbian/raspbian-tee/raspbian-tee/optee_os/lib/libutils/ext/trace.c:133
     644:	b167      	cbz	r7, 660 <trace_printf+0xb4>
/media/wen/My_Passport/Raspbian/raspbian-tee/raspbian-tee/optee_os/lib/libutils/ext/trace.c:134
     646:	4a26      	ldr	r2, [pc, #152]	; (6e0 <trace_printf+0x134>)
     648:	463b      	mov	r3, r7
     64a:	f8cd 8000 	str.w	r8, [sp]
     64e:	f5c4 7180 	rsb	r1, r4, #256	; 0x100
     652:	447a      	add	r2, pc
     654:	1928      	adds	r0, r5, r4
     656:	f000 fbec 	bl	e32 <snprintk>
/media/wen/My_Passport/Raspbian/raspbian-tee/raspbian-tee/optee_os/lib/libutils/ext/trace.c:136
     65a:	2800      	cmp	r0, #0
     65c:	db1b      	blt.n	696 <trace_printf+0xea>
/media/wen/My_Passport/Raspbian/raspbian-tee/raspbian-tee/optee_os/lib/libutils/ext/trace.c:138
     65e:	4404      	add	r4, r0
/media/wen/My_Passport/Raspbian/raspbian-tee/raspbian-tee/optee_os/lib/libutils/ext/trace.c:148
     660:	ab4f      	add	r3, sp, #316	; 0x13c
/media/wen/My_Passport/Raspbian/raspbian-tee/raspbian-tee/optee_os/lib/libutils/ext/trace.c:149
     662:	f5c4 7180 	rsb	r1, r4, #256	; 0x100
     666:	1928      	adds	r0, r5, r4
     668:	9a4e      	ldr	r2, [sp, #312]	; 0x138
/media/wen/My_Passport/Raspbian/raspbian-tee/raspbian-tee/optee_os/lib/libutils/ext/trace.c:148
     66a:	9305      	str	r3, [sp, #20]
/media/wen/My_Passport/Raspbian/raspbian-tee/raspbian-tee/optee_os/lib/libutils/ext/trace.c:149
     66c:	f000 fbda 	bl	e24 <vsnprintk>
/media/wen/My_Passport/Raspbian/raspbian-tee/raspbian-tee/optee_os/lib/libutils/ext/trace.c:151
     670:	2800      	cmp	r0, #0
/media/wen/My_Passport/Raspbian/raspbian-tee/raspbian-tee/optee_os/lib/libutils/ext/trace.c:157
     672:	f04f 030a 	mov.w	r3, #10
/media/wen/My_Passport/Raspbian/raspbian-tee/raspbian-tee/optee_os/lib/libutils/ext/trace.c:152
     676:	bfc8      	it	gt
     678:	1824      	addgt	r4, r4, r0
     67a:	2cfe      	cmp	r4, #254	; 0xfe
     67c:	bf28      	it	cs
     67e:	24fe      	movcs	r4, #254	; 0xfe
/media/wen/My_Passport/Raspbian/raspbian-tee/raspbian-tee/optee_os/lib/libutils/ext/trace.c:157
     680:	552b      	strb	r3, [r5, r4]
/media/wen/My_Passport/Raspbian/raspbian-tee/raspbian-tee/optee_os/lib/libutils/ext/trace.c:158
     682:	b114      	cbz	r4, 68a <trace_printf+0xde>
/media/wen/My_Passport/Raspbian/raspbian-tee/raspbian-tee/optee_os/lib/libutils/ext/trace.c:158 (discriminator 1)
     684:	5d2b      	ldrb	r3, [r5, r4]
     686:	2b0a      	cmp	r3, #10
     688:	d019      	beq.n	6be <trace_printf+0x112>
/media/wen/My_Passport/Raspbian/raspbian-tee/raspbian-tee/optee_os/lib/libutils/ext/trace.c:161
     68a:	442c      	add	r4, r5
     68c:	2300      	movs	r3, #0
/media/wen/My_Passport/Raspbian/raspbian-tee/raspbian-tee/optee_os/lib/libutils/ext/trace.c:163
     68e:	4628      	mov	r0, r5
/media/wen/My_Passport/Raspbian/raspbian-tee/raspbian-tee/optee_os/lib/libutils/ext/trace.c:161
     690:	70a3      	strb	r3, [r4, #2]
/media/wen/My_Passport/Raspbian/raspbian-tee/raspbian-tee/optee_os/lib/libutils/ext/trace.c:163
     692:	f000 fbf3 	bl	e7c <trace_ext_puts>
/media/wen/My_Passport/Raspbian/raspbian-tee/raspbian-tee/optee_os/lib/libutils/ext/trace.c:164
     696:	b046      	add	sp, #280	; 0x118
     698:	e8bd 87f0 	ldmia.w	sp!, {r4, r5, r6, r7, r8, r9, sl, pc}
trace_level_to_string():
/media/wen/My_Passport/Raspbian/raspbian-tee/raspbian-tee/optee_os/lib/libutils/ext/trace.c:50
     69c:	234d      	movs	r3, #77	; 0x4d
     69e:	e79e      	b.n	5de <trace_printf+0x32>
print_thread_id():
/media/wen/My_Passport/Raspbian/raspbian-tee/raspbian-tee/optee_os/lib/libutils/ext/trace.c:70
     6a0:	4b10      	ldr	r3, [pc, #64]	; (6e4 <trace_printf+0x138>)
     6a2:	4a11      	ldr	r2, [pc, #68]	; (6e8 <trace_printf+0x13c>)
     6a4:	447b      	add	r3, pc
     6a6:	9300      	str	r3, [sp, #0]
     6a8:	447a      	add	r2, pc
     6aa:	2301      	movs	r3, #1
     6ac:	e7c3      	b.n	636 <trace_printf+0x8a>
trace_printf():
/media/wen/My_Passport/Raspbian/raspbian-tee/raspbian-tee/optee_os/lib/libutils/ext/trace.c:142
     6ae:	2efe      	cmp	r6, #254	; 0xfe
     6b0:	d8f1      	bhi.n	696 <trace_printf+0xea>
/media/wen/My_Passport/Raspbian/raspbian-tee/raspbian-tee/optee_os/lib/libutils/ext/trace.c:144
     6b2:	1c74      	adds	r4, r6, #1
     6b4:	2320      	movs	r3, #32
     6b6:	55ab      	strb	r3, [r5, r6]
/media/wen/My_Passport/Raspbian/raspbian-tee/raspbian-tee/optee_os/lib/libutils/ext/trace.c:145
     6b8:	2300      	movs	r3, #0
     6ba:	552b      	strb	r3, [r5, r4]
     6bc:	e7d0      	b.n	660 <trace_printf+0xb4>
/media/wen/My_Passport/Raspbian/raspbian-tee/raspbian-tee/optee_os/lib/libutils/ext/trace.c:159
     6be:	3c01      	subs	r4, #1
     6c0:	e7df      	b.n	682 <trace_printf+0xd6>
     6c2:	bf00      	nop
     6c4:	00006f92 	.word	0x00006f92
     6c8:	00000010 	.word	0x00000010
     6cc:	00005da0 	.word	0x00005da0
     6d0:	00005d97 	.word	0x00005d97
     6d4:	00000014 	.word	0x00000014
     6d8:	00005d87 	.word	0x00005d87
     6dc:	00005d53 	.word	0x00005d53
     6e0:	00005d40 	.word	0x00005d40
     6e4:	000063c1 	.word	0x000063c1
     6e8:	00005ce5 	.word	0x00005ce5

000006ec <dhex_dump>:
dhex_dump():
/media/wen/My_Passport/Raspbian/raspbian-tee/raspbian-tee/optee_os/lib/libutils/ext/trace.c:275
     6ec:	4770      	bx	lr
     6ee:	bf00      	nop

000006f0 <__vsnprintf>:
__vsnprintf():
/media/wen/My_Passport/Raspbian/raspbian-tee/raspbian-tee/optee_os/lib/libutils/ext/snprintk.c:137
     6f0:	e92d 4ff0 	stmdb	sp!, {r4, r5, r6, r7, r8, r9, sl, fp, lr}
     6f4:	461f      	mov	r7, r3
/media/wen/My_Passport/Raspbian/raspbian-tee/raspbian-tee/optee_os/lib/libutils/ext/snprintk.c:141
     6f6:	4680      	mov	r8, r0
/media/wen/My_Passport/Raspbian/raspbian-tee/raspbian-tee/optee_os/lib/libutils/ext/snprintk.c:137
     6f8:	b09f      	sub	sp, #124	; 0x7c
kprintf():
/media/wen/My_Passport/Raspbian/raspbian-tee/raspbian-tee/optee_os/lib/libutils/ext/snprintk.c:269
     6fa:	2300      	movs	r3, #0
__vsnprintf():
/media/wen/My_Passport/Raspbian/raspbian-tee/raspbian-tee/optee_os/lib/libutils/ext/snprintk.c:137
     6fc:	920b      	str	r2, [sp, #44]	; 0x2c
     6fe:	f89d 20a0 	ldrb.w	r2, [sp, #160]	; 0xa0
     702:	9010      	str	r0, [sp, #64]	; 0x40
     704:	9213      	str	r2, [sp, #76]	; 0x4c
/media/wen/My_Passport/Raspbian/raspbian-tee/raspbian-tee/optee_os/lib/libutils/ext/snprintk.c:141
     706:	4602      	mov	r2, r0
     708:	440a      	add	r2, r1
/media/wen/My_Passport/Raspbian/raspbian-tee/raspbian-tee/optee_os/lib/libutils/ext/snprintk.c:137
     70a:	9112      	str	r1, [sp, #72]	; 0x48
/media/wen/My_Passport/Raspbian/raspbian-tee/raspbian-tee/optee_os/lib/libutils/ext/snprintk.c:141
     70c:	920e      	str	r2, [sp, #56]	; 0x38
kprintf():
/media/wen/My_Passport/Raspbian/raspbian-tee/raspbian-tee/optee_os/lib/libutils/ext/snprintk.c:269
     70e:	930f      	str	r3, [sp, #60]	; 0x3c
/media/wen/My_Passport/Raspbian/raspbian-tee/raspbian-tee/optee_os/lib/libutils/ext/snprintk.c:267
     710:	930c      	str	r3, [sp, #48]	; 0x30
/media/wen/My_Passport/Raspbian/raspbian-tee/raspbian-tee/optee_os/lib/libutils/ext/snprintk.c:275
     712:	9b0b      	ldr	r3, [sp, #44]	; 0x2c
     714:	781b      	ldrb	r3, [r3, #0]
     716:	2b25      	cmp	r3, #37	; 0x25
     718:	d024      	beq.n	764 <__vsnprintf+0x74>
     71a:	b993      	cbnz	r3, 742 <__vsnprintf+0x52>
__vsnprintf():
/media/wen/My_Passport/Raspbian/raspbian-tee/raspbian-tee/optee_os/lib/libutils/ext/snprintk.c:143
     71c:	9b10      	ldr	r3, [sp, #64]	; 0x40
     71e:	b163      	cbz	r3, 73a <__vsnprintf+0x4a>
/media/wen/My_Passport/Raspbian/raspbian-tee/raspbian-tee/optee_os/lib/libutils/ext/snprintk.c:143 (discriminator 1)
     720:	9b12      	ldr	r3, [sp, #72]	; 0x48
     722:	b153      	cbz	r3, 73a <__vsnprintf+0x4a>
/media/wen/My_Passport/Raspbian/raspbian-tee/raspbian-tee/optee_os/lib/libutils/ext/snprintk.c:145
     724:	9a0c      	ldr	r2, [sp, #48]	; 0x30
     726:	4293      	cmp	r3, r2
     728:	f04f 0300 	mov.w	r3, #0
/media/wen/My_Passport/Raspbian/raspbian-tee/raspbian-tee/optee_os/lib/libutils/ext/snprintk.c:146
     72c:	9a10      	ldr	r2, [sp, #64]	; 0x40
/media/wen/My_Passport/Raspbian/raspbian-tee/raspbian-tee/optee_os/lib/libutils/ext/snprintk.c:145
     72e:	f200 835f 	bhi.w	df0 <__vsnprintf+0x700>
/media/wen/My_Passport/Raspbian/raspbian-tee/raspbian-tee/optee_os/lib/libutils/ext/snprintk.c:146
     732:	9912      	ldr	r1, [sp, #72]	; 0x48
     734:	440a      	add	r2, r1
     736:	f802 3c01 	strb.w	r3, [r2, #-1]
/media/wen/My_Passport/Raspbian/raspbian-tee/raspbian-tee/optee_os/lib/libutils/ext/snprintk.c:151
     73a:	980c      	ldr	r0, [sp, #48]	; 0x30
     73c:	b01f      	add	sp, #124	; 0x7c
     73e:	e8bd 8ff0 	ldmia.w	sp!, {r4, r5, r6, r7, r8, r9, sl, fp, pc}
kprintf():
/media/wen/My_Passport/Raspbian/raspbian-tee/raspbian-tee/optee_os/lib/libutils/ext/snprintk.c:276
     742:	9a0c      	ldr	r2, [sp, #48]	; 0x30
     744:	3201      	adds	r2, #1
     746:	920c      	str	r2, [sp, #48]	; 0x30
/media/wen/My_Passport/Raspbian/raspbian-tee/raspbian-tee/optee_os/lib/libutils/ext/snprintk.c:277
     748:	f1b8 0f00 	cmp.w	r8, #0
     74c:	d006      	beq.n	75c <__vsnprintf+0x6c>
     74e:	9a0e      	ldr	r2, [sp, #56]	; 0x38
     750:	4542      	cmp	r2, r8
     752:	d903      	bls.n	75c <__vsnprintf+0x6c>
     754:	f888 3000 	strb.w	r3, [r8]
     758:	f108 0801 	add.w	r8, r8, #1
/media/wen/My_Passport/Raspbian/raspbian-tee/raspbian-tee/optee_os/lib/libutils/ext/snprintk.c:275
     75c:	9b0b      	ldr	r3, [sp, #44]	; 0x2c
     75e:	3301      	adds	r3, #1
     760:	930b      	str	r3, [sp, #44]	; 0x2c
     762:	e7d6      	b.n	712 <__vsnprintf+0x22>
/media/wen/My_Passport/Raspbian/raspbian-tee/raspbian-tee/optee_os/lib/libutils/ext/snprintk.c:282
     764:	9b0b      	ldr	r3, [sp, #44]	; 0x2c
/media/wen/My_Passport/Raspbian/raspbian-tee/raspbian-tee/optee_os/lib/libutils/ext/snprintk.c:288
     766:	f04f 0a00 	mov.w	sl, #0
/media/wen/My_Passport/Raspbian/raspbian-tee/raspbian-tee/optee_os/lib/libutils/ext/snprintk.c:282
     76a:	463a      	mov	r2, r7
/media/wen/My_Passport/Raspbian/raspbian-tee/raspbian-tee/optee_os/lib/libutils/ext/snprintk.c:287
     76c:	f04f 3bff 	mov.w	fp, #4294967295
/media/wen/My_Passport/Raspbian/raspbian-tee/raspbian-tee/optee_os/lib/libutils/ext/snprintk.c:282
     770:	3301      	adds	r3, #1
/media/wen/My_Passport/Raspbian/raspbian-tee/raspbian-tee/optee_os/lib/libutils/ext/snprintk.c:284
     772:	4656      	mov	r6, sl
/media/wen/My_Passport/Raspbian/raspbian-tee/raspbian-tee/optee_os/lib/libutils/ext/snprintk.c:286
     774:	f8cd a034 	str.w	sl, [sp, #52]	; 0x34
/media/wen/My_Passport/Raspbian/raspbian-tee/raspbian-tee/optee_os/lib/libutils/ext/snprintk.c:290
     778:	f893 9000 	ldrb.w	r9, [r3]
     77c:	1c59      	adds	r1, r3, #1
     77e:	910b      	str	r1, [sp, #44]	; 0x2c
/media/wen/My_Passport/Raspbian/raspbian-tee/raspbian-tee/optee_os/lib/libutils/ext/snprintk.c:291
     780:	f1b9 0f63 	cmp.w	r9, #99	; 0x63
     784:	f000 8163 	beq.w	a4e <__vsnprintf+0x35e>
     788:	f300 8095 	bgt.w	8b6 <__vsnprintf+0x1c6>
     78c:	f1b9 0f30 	cmp.w	r9, #48	; 0x30
     790:	f000 8147 	beq.w	a22 <__vsnprintf+0x332>
     794:	dc26      	bgt.n	7e4 <__vsnprintf+0xf4>
     796:	f1b9 0f2a 	cmp.w	r9, #42	; 0x2a
     79a:	f000 8119 	beq.w	9d0 <__vsnprintf+0x2e0>
     79e:	dc13      	bgt.n	7c8 <__vsnprintf+0xd8>
     7a0:	f1b9 0f20 	cmp.w	r9, #32
     7a4:	f000 810a 	beq.w	9bc <__vsnprintf+0x2cc>
     7a8:	f1b9 0f23 	cmp.w	r9, #35	; 0x23
     7ac:	f000 810d 	beq.w	9ca <__vsnprintf+0x2da>
/media/wen/My_Passport/Raspbian/raspbian-tee/raspbian-tee/optee_os/lib/libutils/ext/snprintk.c:541
     7b0:	f1b9 0f00 	cmp.w	r9, #0
     7b4:	d0b2      	beq.n	71c <__vsnprintf+0x2c>
/media/wen/My_Passport/Raspbian/raspbian-tee/raspbian-tee/optee_os/lib/libutils/ext/snprintk.c:545
     7b6:	ab1e      	add	r3, sp, #120	; 0x78
     7b8:	4617      	mov	r7, r2
/media/wen/My_Passport/Raspbian/raspbian-tee/raspbian-tee/optee_os/lib/libutils/ext/snprintk.c:546
     7ba:	f04f 0b01 	mov.w	fp, #1
/media/wen/My_Passport/Raspbian/raspbian-tee/raspbian-tee/optee_os/lib/libutils/ext/snprintk.c:545
     7be:	f803 9d28 	strb.w	r9, [r3, #-40]!
     7c2:	e0c0      	b.n	946 <__vsnprintf+0x256>
/media/wen/My_Passport/Raspbian/raspbian-tee/raspbian-tee/optee_os/lib/libutils/ext/snprintk.c:311
     7c4:	461a      	mov	r2, r3
     7c6:	e00b      	b.n	7e0 <__vsnprintf+0xf0>
/media/wen/My_Passport/Raspbian/raspbian-tee/raspbian-tee/optee_os/lib/libutils/ext/snprintk.c:291
     7c8:	f1b9 0f2d 	cmp.w	r9, #45	; 0x2d
     7cc:	f000 8109 	beq.w	9e2 <__vsnprintf+0x2f2>
     7d0:	f1b9 0f2e 	cmp.w	r9, #46	; 0x2e
     7d4:	f000 8108 	beq.w	9e8 <__vsnprintf+0x2f8>
     7d8:	f1b9 0f2b 	cmp.w	r9, #43	; 0x2b
     7dc:	d1e8      	bne.n	7b0 <__vsnprintf+0xc0>
/media/wen/My_Passport/Raspbian/raspbian-tee/raspbian-tee/optee_os/lib/libutils/ext/snprintk.c:319
     7de:	46ca      	mov	sl, r9
/media/wen/My_Passport/Raspbian/raspbian-tee/raspbian-tee/optee_os/lib/libutils/ext/snprintk.c:322
     7e0:	9b0b      	ldr	r3, [sp, #44]	; 0x2c
     7e2:	e7c9      	b.n	778 <__vsnprintf+0x88>
/media/wen/My_Passport/Raspbian/raspbian-tee/raspbian-tee/optee_os/lib/libutils/ext/snprintk.c:291
     7e4:	f1b9 0f44 	cmp.w	r9, #68	; 0x44
     7e8:	f000 818a 	beq.w	b00 <__vsnprintf+0x410>
     7ec:	dc14      	bgt.n	818 <__vsnprintf+0x128>
     7ee:	f1b9 0f39 	cmp.w	r9, #57	; 0x39
     7f2:	dcdd      	bgt.n	7b0 <__vsnprintf+0xc0>
     7f4:	2300      	movs	r3, #0
     7f6:	930d      	str	r3, [sp, #52]	; 0x34
/media/wen/My_Passport/Raspbian/raspbian-tee/raspbian-tee/optee_os/lib/libutils/ext/snprintk.c:346
     7f8:	9b0d      	ldr	r3, [sp, #52]	; 0x34
     7fa:	210a      	movs	r1, #10
     7fc:	f1a9 0930 	sub.w	r9, r9, #48	; 0x30
     800:	fb01 9303 	mla	r3, r1, r3, r9
     804:	930d      	str	r3, [sp, #52]	; 0x34
/media/wen/My_Passport/Raspbian/raspbian-tee/raspbian-tee/optee_os/lib/libutils/ext/snprintk.c:347
     806:	9b0b      	ldr	r3, [sp, #44]	; 0x2c
     808:	f813 9b01 	ldrb.w	r9, [r3], #1
     80c:	930b      	str	r3, [sp, #44]	; 0x2c
/media/wen/My_Passport/Raspbian/raspbian-tee/raspbian-tee/optee_os/lib/libutils/ext/snprintk.c:348
     80e:	f1a9 0330 	sub.w	r3, r9, #48	; 0x30
     812:	2b09      	cmp	r3, #9
     814:	d9f0      	bls.n	7f8 <__vsnprintf+0x108>
     816:	e7b3      	b.n	780 <__vsnprintf+0x90>
/media/wen/My_Passport/Raspbian/raspbian-tee/raspbian-tee/optee_os/lib/libutils/ext/snprintk.c:291
     818:	f1b9 0f55 	cmp.w	r9, #85	; 0x55
     81c:	f000 823d 	beq.w	c9a <__vsnprintf+0x5aa>
     820:	f1b9 0f58 	cmp.w	r9, #88	; 0x58
     824:	f000 80ab 	beq.w	97e <__vsnprintf+0x28e>
     828:	f1b9 0f4f 	cmp.w	r9, #79	; 0x4f
     82c:	d1c0      	bne.n	7b0 <__vsnprintf+0xc0>
/media/wen/My_Passport/Raspbian/raspbian-tee/raspbian-tee/optee_os/lib/libutils/ext/snprintk.c:408
     82e:	f046 0610 	orr.w	r6, r6, #16
/media/wen/My_Passport/Raspbian/raspbian-tee/raspbian-tee/optee_os/lib/libutils/ext/snprintk.c:411
     832:	0635      	lsls	r5, r6, #24
     834:	f140 81c0 	bpl.w	bb8 <__vsnprintf+0x4c8>
     838:	3207      	adds	r2, #7
     83a:	f022 0207 	bic.w	r2, r2, #7
     83e:	f102 0708 	add.w	r7, r2, #8
     842:	e9d2 4500 	ldrd	r4, r5, [r2]
/media/wen/My_Passport/Raspbian/raspbian-tee/raspbian-tee/optee_os/lib/libutils/ext/snprintk.c:488
     846:	f1bb 3fff 	cmp.w	fp, #4294967295
     84a:	f04f 0a00 	mov.w	sl, #0
     84e:	d011      	beq.n	874 <__vsnprintf+0x184>
     850:	4653      	mov	r3, sl
/media/wen/My_Passport/Raspbian/raspbian-tee/raspbian-tee/optee_os/lib/libutils/ext/snprintk.c:497
     852:	ea54 0205 	orrs.w	r2, r4, r5
/media/wen/My_Passport/Raspbian/raspbian-tee/raspbian-tee/optee_os/lib/libutils/ext/snprintk.c:489
     856:	f426 6680 	bic.w	r6, r6, #1024	; 0x400
/media/wen/My_Passport/Raspbian/raspbian-tee/raspbian-tee/optee_os/lib/libutils/ext/snprintk.c:497
     85a:	d105      	bne.n	868 <__vsnprintf+0x178>
     85c:	f1bb 0f00 	cmp.w	fp, #0
     860:	f000 8269 	beq.w	d36 <__vsnprintf+0x646>
     864:	2400      	movs	r4, #0
     866:	2500      	movs	r5, #0
/media/wen/My_Passport/Raspbian/raspbian-tee/raspbian-tee/optee_os/lib/libutils/ext/snprintk.c:503
     868:	2b01      	cmp	r3, #1
     86a:	f000 8161 	beq.w	b30 <__vsnprintf+0x440>
     86e:	2b02      	cmp	r3, #2
     870:	f000 81f8 	beq.w	c64 <__vsnprintf+0x574>
/media/wen/My_Passport/Raspbian/raspbian-tee/raspbian-tee/optee_os/lib/libutils/ext/snprintk.c:488
     874:	f10d 0275 	add.w	r2, sp, #117	; 0x75
/media/wen/My_Passport/Raspbian/raspbian-tee/raspbian-tee/optee_os/lib/libutils/ext/snprintk.c:507
     878:	08e0      	lsrs	r0, r4, #3
     87a:	ea4f 0ed5 	mov.w	lr, r5, lsr #3
/media/wen/My_Passport/Raspbian/raspbian-tee/raspbian-tee/optee_os/lib/libutils/ext/snprintk.c:506
     87e:	f004 0107 	and.w	r1, r4, #7
     882:	1e53      	subs	r3, r2, #1
/media/wen/My_Passport/Raspbian/raspbian-tee/raspbian-tee/optee_os/lib/libutils/ext/snprintk.c:507
     884:	ea40 7045 	orr.w	r0, r0, r5, lsl #29
     888:	4675      	mov	r5, lr
     88a:	4604      	mov	r4, r0
/media/wen/My_Passport/Raspbian/raspbian-tee/raspbian-tee/optee_os/lib/libutils/ext/snprintk.c:506
     88c:	3130      	adds	r1, #48	; 0x30
/media/wen/My_Passport/Raspbian/raspbian-tee/raspbian-tee/optee_os/lib/libutils/ext/snprintk.c:508
     88e:	ea54 0005 	orrs.w	r0, r4, r5
/media/wen/My_Passport/Raspbian/raspbian-tee/raspbian-tee/optee_os/lib/libutils/ext/snprintk.c:506
     892:	f802 1c01 	strb.w	r1, [r2, #-1]
/media/wen/My_Passport/Raspbian/raspbian-tee/raspbian-tee/optee_os/lib/libutils/ext/snprintk.c:508
     896:	f040 8239 	bne.w	d0c <__vsnprintf+0x61c>
/media/wen/My_Passport/Raspbian/raspbian-tee/raspbian-tee/optee_os/lib/libutils/ext/snprintk.c:510
     89a:	07f5      	lsls	r5, r6, #31
     89c:	d505      	bpl.n	8aa <__vsnprintf+0x1ba>
     89e:	2930      	cmp	r1, #48	; 0x30
     8a0:	d003      	beq.n	8aa <__vsnprintf+0x1ba>
/media/wen/My_Passport/Raspbian/raspbian-tee/raspbian-tee/optee_os/lib/libutils/ext/snprintk.c:511
     8a2:	2130      	movs	r1, #48	; 0x30
     8a4:	f803 1c01 	strb.w	r1, [r3, #-1]
     8a8:	1e93      	subs	r3, r2, #2
/media/wen/My_Passport/Raspbian/raspbian-tee/raspbian-tee/optee_os/lib/libutils/ext/snprintk.c:537
     8aa:	f10d 0275 	add.w	r2, sp, #117	; 0x75
     8ae:	4658      	mov	r0, fp
     8b0:	eba2 0b03 	sub.w	fp, r2, r3
     8b4:	e0d5      	b.n	a62 <__vsnprintf+0x372>
/media/wen/My_Passport/Raspbian/raspbian-tee/raspbian-tee/optee_os/lib/libutils/ext/snprintk.c:291
     8b6:	f1b9 0f6f 	cmp.w	r9, #111	; 0x6f
     8ba:	d0ba      	beq.n	832 <__vsnprintf+0x142>
     8bc:	dc1e      	bgt.n	8fc <__vsnprintf+0x20c>
     8be:	f1b9 0f69 	cmp.w	r9, #105	; 0x69
     8c2:	f000 811f 	beq.w	b04 <__vsnprintf+0x414>
     8c6:	dc0a      	bgt.n	8de <__vsnprintf+0x1ee>
     8c8:	f1b9 0f64 	cmp.w	r9, #100	; 0x64
     8cc:	f000 811a 	beq.w	b04 <__vsnprintf+0x414>
     8d0:	f1b9 0f68 	cmp.w	r9, #104	; 0x68
     8d4:	f47f af6c 	bne.w	7b0 <__vsnprintf+0xc0>
/media/wen/My_Passport/Raspbian/raspbian-tee/raspbian-tee/optee_os/lib/libutils/ext/snprintk.c:352
     8d8:	f046 0640 	orr.w	r6, r6, #64	; 0x40
     8dc:	e780      	b.n	7e0 <__vsnprintf+0xf0>
/media/wen/My_Passport/Raspbian/raspbian-tee/raspbian-tee/optee_os/lib/libutils/ext/snprintk.c:291
     8de:	f1b9 0f6c 	cmp.w	r9, #108	; 0x6c
     8e2:	f000 80a1 	beq.w	a28 <__vsnprintf+0x338>
     8e6:	f1b9 0f6e 	cmp.w	r9, #110	; 0x6e
     8ea:	f000 8146 	beq.w	b7a <__vsnprintf+0x48a>
     8ee:	f1b9 0f6a 	cmp.w	r9, #106	; 0x6a
     8f2:	f47f af5d 	bne.w	7b0 <__vsnprintf+0xc0>
/media/wen/My_Passport/Raspbian/raspbian-tee/raspbian-tee/optee_os/lib/libutils/ext/snprintk.c:355
     8f6:	f046 0680 	orr.w	r6, r6, #128	; 0x80
     8fa:	e771      	b.n	7e0 <__vsnprintf+0xf0>
/media/wen/My_Passport/Raspbian/raspbian-tee/raspbian-tee/optee_os/lib/libutils/ext/snprintk.c:291
     8fc:	f1b9 0f74 	cmp.w	r9, #116	; 0x74
     900:	f000 809f 	beq.w	a42 <__vsnprintf+0x352>
     904:	dc22      	bgt.n	94c <__vsnprintf+0x25c>
     906:	f1b9 0f71 	cmp.w	r9, #113	; 0x71
     90a:	f000 8094 	beq.w	a36 <__vsnprintf+0x346>
     90e:	f2c0 8167 	blt.w	be0 <__vsnprintf+0x4f0>
     912:	f1b9 0f73 	cmp.w	r9, #115	; 0x73
     916:	f47f af4b 	bne.w	7b0 <__vsnprintf+0xc0>
/media/wen/My_Passport/Raspbian/raspbian-tee/raspbian-tee/optee_os/lib/libutils/ext/snprintk.c:442
     91a:	6813      	ldr	r3, [r2, #0]
     91c:	1d17      	adds	r7, r2, #4
     91e:	b913      	cbnz	r3, 926 <__vsnprintf+0x236>
/media/wen/My_Passport/Raspbian/raspbian-tee/raspbian-tee/optee_os/lib/libutils/ext/snprintk.c:444
     920:	f8df 34ec 	ldr.w	r3, [pc, #1260]	; e10 <__vsnprintf+0x720>
     924:	447b      	add	r3, pc
/media/wen/My_Passport/Raspbian/raspbian-tee/raspbian-tee/optee_os/lib/libutils/ext/snprintk.c:445
     926:	f1bb 3fff 	cmp.w	fp, #4294967295
     92a:	f000 81ad 	beq.w	c88 <__vsnprintf+0x598>
/media/wen/My_Passport/Raspbian/raspbian-tee/raspbian-tee/optee_os/lib/libutils/ext/snprintk.c:451
     92e:	4618      	mov	r0, r3
     930:	465a      	mov	r2, fp
     932:	2100      	movs	r1, #0
     934:	9311      	str	r3, [sp, #68]	; 0x44
     936:	f005 f9ef 	bl	5d18 <memchr>
/media/wen/My_Passport/Raspbian/raspbian-tee/raspbian-tee/optee_os/lib/libutils/ext/snprintk.c:453
     93a:	9b11      	ldr	r3, [sp, #68]	; 0x44
     93c:	b120      	cbz	r0, 948 <__vsnprintf+0x258>
/media/wen/My_Passport/Raspbian/raspbian-tee/raspbian-tee/optee_os/lib/libutils/ext/snprintk.c:454
     93e:	1ac0      	subs	r0, r0, r3
     940:	4583      	cmp	fp, r0
     942:	bfa8      	it	ge
     944:	4683      	movge	fp, r0
/media/wen/My_Passport/Raspbian/raspbian-tee/raspbian-tee/optee_os/lib/libutils/ext/snprintk.c:285
     946:	2000      	movs	r0, #0
/media/wen/My_Passport/Raspbian/raspbian-tee/raspbian-tee/optee_os/lib/libutils/ext/snprintk.c:461
     948:	4682      	mov	sl, r0
     94a:	e08a      	b.n	a62 <__vsnprintf+0x372>
/media/wen/My_Passport/Raspbian/raspbian-tee/raspbian-tee/optee_os/lib/libutils/ext/snprintk.c:291
     94c:	f1b9 0f78 	cmp.w	r9, #120	; 0x78
     950:	f000 81c2 	beq.w	cd8 <__vsnprintf+0x5e8>
     954:	f1b9 0f7a 	cmp.w	r9, #122	; 0x7a
     958:	d076      	beq.n	a48 <__vsnprintf+0x358>
     95a:	f1b9 0f75 	cmp.w	r9, #117	; 0x75
     95e:	f47f af27 	bne.w	7b0 <__vsnprintf+0xc0>
/media/wen/My_Passport/Raspbian/raspbian-tee/raspbian-tee/optee_os/lib/libutils/ext/snprintk.c:467
     962:	f016 0380 	ands.w	r3, r6, #128	; 0x80
     966:	f000 819b 	beq.w	ca0 <__vsnprintf+0x5b0>
     96a:	3207      	adds	r2, #7
     96c:	f022 0207 	bic.w	r2, r2, #7
     970:	f102 0708 	add.w	r7, r2, #8
     974:	e9d2 4500 	ldrd	r4, r5, [r2]
/media/wen/My_Passport/Raspbian/raspbian-tee/raspbian-tee/optee_os/lib/libutils/ext/snprintk.c:482
     978:	f04f 0a00 	mov.w	sl, #0
     97c:	e0d4      	b.n	b28 <__vsnprintf+0x438>
/media/wen/My_Passport/Raspbian/raspbian-tee/raspbian-tee/optee_os/lib/libutils/ext/snprintk.c:471
     97e:	f8df 3494 	ldr.w	r3, [pc, #1172]	; e14 <__vsnprintf+0x724>
     982:	447b      	add	r3, pc
/media/wen/My_Passport/Raspbian/raspbian-tee/raspbian-tee/optee_os/lib/libutils/ext/snprintk.c:475
     984:	0637      	lsls	r7, r6, #24
/media/wen/My_Passport/Raspbian/raspbian-tee/raspbian-tee/optee_os/lib/libutils/ext/snprintk.c:474
     986:	930f      	str	r3, [sp, #60]	; 0x3c
/media/wen/My_Passport/Raspbian/raspbian-tee/raspbian-tee/optee_os/lib/libutils/ext/snprintk.c:475
     988:	f140 81aa 	bpl.w	ce0 <__vsnprintf+0x5f0>
     98c:	3207      	adds	r2, #7
     98e:	f022 0207 	bic.w	r2, r2, #7
     992:	f102 0708 	add.w	r7, r2, #8
     996:	e9d2 4500 	ldrd	r4, r5, [r2]
/media/wen/My_Passport/Raspbian/raspbian-tee/raspbian-tee/optee_os/lib/libutils/ext/snprintk.c:478
     99a:	07f3      	lsls	r3, r6, #31
     99c:	f140 815c 	bpl.w	c58 <__vsnprintf+0x568>
     9a0:	ea54 0305 	orrs.w	r3, r4, r5
     9a4:	f000 822d 	beq.w	e02 <__vsnprintf+0x712>
/media/wen/My_Passport/Raspbian/raspbian-tee/raspbian-tee/optee_os/lib/libutils/ext/snprintk.c:488
     9a8:	f1bb 3fff 	cmp.w	fp, #4294967295
/media/wen/My_Passport/Raspbian/raspbian-tee/raspbian-tee/optee_os/lib/libutils/ext/snprintk.c:479
     9ac:	f046 0602 	orr.w	r6, r6, #2
/media/wen/My_Passport/Raspbian/raspbian-tee/raspbian-tee/optee_os/lib/libutils/ext/snprintk.c:488
     9b0:	f000 822a 	beq.w	e08 <__vsnprintf+0x718>
     9b4:	f04f 0a00 	mov.w	sl, #0
     9b8:	2302      	movs	r3, #2
     9ba:	e74a      	b.n	852 <__vsnprintf+0x162>
/media/wen/My_Passport/Raspbian/raspbian-tee/raspbian-tee/optee_os/lib/libutils/ext/snprintk.c:299
     9bc:	f1ba 0f00 	cmp.w	sl, #0
     9c0:	f04f 0320 	mov.w	r3, #32
     9c4:	bf08      	it	eq
     9c6:	469a      	moveq	sl, r3
     9c8:	e70a      	b.n	7e0 <__vsnprintf+0xf0>
/media/wen/My_Passport/Raspbian/raspbian-tee/raspbian-tee/optee_os/lib/libutils/ext/snprintk.c:302
     9ca:	f046 0601 	orr.w	r6, r6, #1
     9ce:	e707      	b.n	7e0 <__vsnprintf+0xf0>
/media/wen/My_Passport/Raspbian/raspbian-tee/raspbian-tee/optee_os/lib/libutils/ext/snprintk.c:311
     9d0:	1d13      	adds	r3, r2, #4
     9d2:	6812      	ldr	r2, [r2, #0]
     9d4:	2a00      	cmp	r2, #0
     9d6:	920d      	str	r2, [sp, #52]	; 0x34
     9d8:	f6bf aef4 	bge.w	7c4 <__vsnprintf+0xd4>
/media/wen/My_Passport/Raspbian/raspbian-tee/raspbian-tee/optee_os/lib/libutils/ext/snprintk.c:313
     9dc:	4252      	negs	r2, r2
     9de:	920d      	str	r2, [sp, #52]	; 0x34
/media/wen/My_Passport/Raspbian/raspbian-tee/raspbian-tee/optee_os/lib/libutils/ext/snprintk.c:311
     9e0:	461a      	mov	r2, r3
/media/wen/My_Passport/Raspbian/raspbian-tee/raspbian-tee/optee_os/lib/libutils/ext/snprintk.c:316
     9e2:	f046 0604 	orr.w	r6, r6, #4
     9e6:	e6fb      	b.n	7e0 <__vsnprintf+0xf0>
/media/wen/My_Passport/Raspbian/raspbian-tee/raspbian-tee/optee_os/lib/libutils/ext/snprintk.c:322
     9e8:	990b      	ldr	r1, [sp, #44]	; 0x2c
     9ea:	9b0b      	ldr	r3, [sp, #44]	; 0x2c
     9ec:	3301      	adds	r3, #1
     9ee:	f891 9000 	ldrb.w	r9, [r1]
     9f2:	f1b9 0f2a 	cmp.w	r9, #42	; 0x2a
     9f6:	d00e      	beq.n	a16 <__vsnprintf+0x326>
     9f8:	f04f 0b00 	mov.w	fp, #0
/media/wen/My_Passport/Raspbian/raspbian-tee/raspbian-tee/optee_os/lib/libutils/ext/snprintk.c:330
     9fc:	930b      	str	r3, [sp, #44]	; 0x2c
/media/wen/My_Passport/Raspbian/raspbian-tee/raspbian-tee/optee_os/lib/libutils/ext/snprintk.c:328
     9fe:	f1a9 0330 	sub.w	r3, r9, #48	; 0x30
     a02:	2b09      	cmp	r3, #9
     a04:	f63f aebc 	bhi.w	780 <__vsnprintf+0x90>
/media/wen/My_Passport/Raspbian/raspbian-tee/raspbian-tee/optee_os/lib/libutils/ext/snprintk.c:329
     a08:	210a      	movs	r1, #10
     a0a:	fb01 3b0b 	mla	fp, r1, fp, r3
/media/wen/My_Passport/Raspbian/raspbian-tee/raspbian-tee/optee_os/lib/libutils/ext/snprintk.c:330
     a0e:	9b0b      	ldr	r3, [sp, #44]	; 0x2c
     a10:	f813 9b01 	ldrb.w	r9, [r3], #1
     a14:	e7f2      	b.n	9fc <__vsnprintf+0x30c>
/media/wen/My_Passport/Raspbian/raspbian-tee/raspbian-tee/optee_os/lib/libutils/ext/snprintk.c:324
     a16:	6811      	ldr	r1, [r2, #0]
/media/wen/My_Passport/Raspbian/raspbian-tee/raspbian-tee/optee_os/lib/libutils/ext/snprintk.c:323
     a18:	3204      	adds	r2, #4
/media/wen/My_Passport/Raspbian/raspbian-tee/raspbian-tee/optee_os/lib/libutils/ext/snprintk.c:322
     a1a:	930b      	str	r3, [sp, #44]	; 0x2c
/media/wen/My_Passport/Raspbian/raspbian-tee/raspbian-tee/optee_os/lib/libutils/ext/snprintk.c:324
     a1c:	ea41 7be1 	orr.w	fp, r1, r1, asr #31
     a20:	e6de      	b.n	7e0 <__vsnprintf+0xf0>
/media/wen/My_Passport/Raspbian/raspbian-tee/raspbian-tee/optee_os/lib/libutils/ext/snprintk.c:340
     a22:	f446 6680 	orr.w	r6, r6, #1024	; 0x400
     a26:	e6db      	b.n	7e0 <__vsnprintf+0xf0>
/media/wen/My_Passport/Raspbian/raspbian-tee/raspbian-tee/optee_os/lib/libutils/ext/snprintk.c:358
     a28:	9b0b      	ldr	r3, [sp, #44]	; 0x2c
     a2a:	781b      	ldrb	r3, [r3, #0]
     a2c:	2b6c      	cmp	r3, #108	; 0x6c
     a2e:	d105      	bne.n	a3c <__vsnprintf+0x34c>
/media/wen/My_Passport/Raspbian/raspbian-tee/raspbian-tee/optee_os/lib/libutils/ext/snprintk.c:359
     a30:	9b0b      	ldr	r3, [sp, #44]	; 0x2c
     a32:	3301      	adds	r3, #1
     a34:	930b      	str	r3, [sp, #44]	; 0x2c
/media/wen/My_Passport/Raspbian/raspbian-tee/raspbian-tee/optee_os/lib/libutils/ext/snprintk.c:366
     a36:	f046 0620 	orr.w	r6, r6, #32
     a3a:	e6d1      	b.n	7e0 <__vsnprintf+0xf0>
/media/wen/My_Passport/Raspbian/raspbian-tee/raspbian-tee/optee_os/lib/libutils/ext/snprintk.c:362
     a3c:	f046 0610 	orr.w	r6, r6, #16
     a40:	e6ce      	b.n	7e0 <__vsnprintf+0xf0>
/media/wen/My_Passport/Raspbian/raspbian-tee/raspbian-tee/optee_os/lib/libutils/ext/snprintk.c:369
     a42:	f446 7680 	orr.w	r6, r6, #256	; 0x100
     a46:	e6cb      	b.n	7e0 <__vsnprintf+0xf0>
/media/wen/My_Passport/Raspbian/raspbian-tee/raspbian-tee/optee_os/lib/libutils/ext/snprintk.c:372
     a48:	f446 7600 	orr.w	r6, r6, #512	; 0x200
     a4c:	e6c8      	b.n	7e0 <__vsnprintf+0xf0>
/media/wen/My_Passport/Raspbian/raspbian-tee/raspbian-tee/optee_os/lib/libutils/ext/snprintk.c:375
     a4e:	ab1e      	add	r3, sp, #120	; 0x78
     a50:	1d17      	adds	r7, r2, #4
/media/wen/My_Passport/Raspbian/raspbian-tee/raspbian-tee/optee_os/lib/libutils/ext/snprintk.c:285
     a52:	f04f 0a00 	mov.w	sl, #0
/media/wen/My_Passport/Raspbian/raspbian-tee/raspbian-tee/optee_os/lib/libutils/ext/snprintk.c:375
     a56:	6812      	ldr	r2, [r2, #0]
/media/wen/My_Passport/Raspbian/raspbian-tee/raspbian-tee/optee_os/lib/libutils/ext/snprintk.c:376
     a58:	f04f 0b01 	mov.w	fp, #1
/media/wen/My_Passport/Raspbian/raspbian-tee/raspbian-tee/optee_os/lib/libutils/ext/snprintk.c:377
     a5c:	4650      	mov	r0, sl
/media/wen/My_Passport/Raspbian/raspbian-tee/raspbian-tee/optee_os/lib/libutils/ext/snprintk.c:375
     a5e:	f803 2d28 	strb.w	r2, [r3, #-40]!
/media/wen/My_Passport/Raspbian/raspbian-tee/raspbian-tee/optee_os/lib/libutils/ext/snprintk.c:565
     a62:	4558      	cmp	r0, fp
     a64:	4602      	mov	r2, r0
     a66:	bfb8      	it	lt
     a68:	465a      	movlt	r2, fp
/media/wen/My_Passport/Raspbian/raspbian-tee/raspbian-tee/optee_os/lib/libutils/ext/snprintk.c:566
     a6a:	f1ba 0f00 	cmp.w	sl, #0
     a6e:	f000 8165 	beq.w	d3c <__vsnprintf+0x64c>
/media/wen/My_Passport/Raspbian/raspbian-tee/raspbian-tee/optee_os/lib/libutils/ext/snprintk.c:567
     a72:	3201      	adds	r2, #1
/media/wen/My_Passport/Raspbian/raspbian-tee/raspbian-tee/optee_os/lib/libutils/ext/snprintk.c:572
     a74:	990d      	ldr	r1, [sp, #52]	; 0x34
     a76:	9c0c      	ldr	r4, [sp, #48]	; 0x30
     a78:	4291      	cmp	r1, r2
     a7a:	bfb8      	it	lt
     a7c:	4611      	movlt	r1, r2
     a7e:	440c      	add	r4, r1
/media/wen/My_Passport/Raspbian/raspbian-tee/raspbian-tee/optee_os/lib/libutils/ext/snprintk.c:575
     a80:	f240 4104 	movw	r1, #1028	; 0x404
/media/wen/My_Passport/Raspbian/raspbian-tee/raspbian-tee/optee_os/lib/libutils/ext/snprintk.c:572
     a84:	940c      	str	r4, [sp, #48]	; 0x30
/media/wen/My_Passport/Raspbian/raspbian-tee/raspbian-tee/optee_os/lib/libutils/ext/snprintk.c:575
     a86:	ea16 0401 	ands.w	r4, r6, r1
     a8a:	d106      	bne.n	a9a <__vsnprintf+0x3aa>
/media/wen/My_Passport/Raspbian/raspbian-tee/raspbian-tee/optee_os/lib/libutils/ext/snprintk.c:576
     a8c:	990d      	ldr	r1, [sp, #52]	; 0x34
/media/wen/My_Passport/Raspbian/raspbian-tee/raspbian-tee/optee_os/lib/libutils/ext/snprintk.c:578
     a8e:	f04f 0e20 	mov.w	lr, #32
/media/wen/My_Passport/Raspbian/raspbian-tee/raspbian-tee/optee_os/lib/libutils/ext/snprintk.c:576
     a92:	1a89      	subs	r1, r1, r2
/media/wen/My_Passport/Raspbian/raspbian-tee/raspbian-tee/optee_os/lib/libutils/ext/snprintk.c:577
     a94:	2900      	cmp	r1, #0
     a96:	f300 8155 	bgt.w	d44 <__vsnprintf+0x654>
/media/wen/My_Passport/Raspbian/raspbian-tee/raspbian-tee/optee_os/lib/libutils/ext/snprintk.c:582
     a9a:	f1ba 0f00 	cmp.w	sl, #0
     a9e:	f000 8166 	beq.w	d6e <__vsnprintf+0x67e>
/media/wen/My_Passport/Raspbian/raspbian-tee/raspbian-tee/optee_os/lib/libutils/ext/snprintk.c:583
     aa2:	f1b8 0f00 	cmp.w	r8, #0
     aa6:	f040 8159 	bne.w	d5c <__vsnprintf+0x66c>
/media/wen/My_Passport/Raspbian/raspbian-tee/raspbian-tee/optee_os/lib/libutils/ext/snprintk.c:586
     aaa:	f04f 0800 	mov.w	r8, #0
/media/wen/My_Passport/Raspbian/raspbian-tee/raspbian-tee/optee_os/lib/libutils/ext/snprintk.c:590
     aae:	f5b4 6f80 	cmp.w	r4, #1024	; 0x400
     ab2:	d105      	bne.n	ac0 <__vsnprintf+0x3d0>
/media/wen/My_Passport/Raspbian/raspbian-tee/raspbian-tee/optee_os/lib/libutils/ext/snprintk.c:591
     ab4:	990d      	ldr	r1, [sp, #52]	; 0x34
/media/wen/My_Passport/Raspbian/raspbian-tee/raspbian-tee/optee_os/lib/libutils/ext/snprintk.c:593
     ab6:	2430      	movs	r4, #48	; 0x30
/media/wen/My_Passport/Raspbian/raspbian-tee/raspbian-tee/optee_os/lib/libutils/ext/snprintk.c:591
     ab8:	1a89      	subs	r1, r1, r2
/media/wen/My_Passport/Raspbian/raspbian-tee/raspbian-tee/optee_os/lib/libutils/ext/snprintk.c:592
     aba:	2900      	cmp	r1, #0
     abc:	f300 8173 	bgt.w	da6 <__vsnprintf+0x6b6>
/media/wen/My_Passport/Raspbian/raspbian-tee/raspbian-tee/optee_os/lib/libutils/ext/snprintk.c:597
     ac0:	eba0 000b 	sub.w	r0, r0, fp
/media/wen/My_Passport/Raspbian/raspbian-tee/raspbian-tee/optee_os/lib/libutils/ext/snprintk.c:599
     ac4:	2130      	movs	r1, #48	; 0x30
/media/wen/My_Passport/Raspbian/raspbian-tee/raspbian-tee/optee_os/lib/libutils/ext/snprintk.c:598
     ac6:	2800      	cmp	r0, #0
     ac8:	f300 8179 	bgt.w	dbe <__vsnprintf+0x6ce>
     acc:	eb03 010b 	add.w	r1, r3, fp
/media/wen/My_Passport/Raspbian/raspbian-tee/raspbian-tee/optee_os/lib/libutils/ext/snprintk.c:602
     ad0:	428b      	cmp	r3, r1
     ad2:	f040 8180 	bne.w	dd6 <__vsnprintf+0x6e6>
/media/wen/My_Passport/Raspbian/raspbian-tee/raspbian-tee/optee_os/lib/libutils/ext/snprintk.c:605
     ad6:	0773      	lsls	r3, r6, #29
     ad8:	f57f ae1b 	bpl.w	712 <__vsnprintf+0x22>
/media/wen/My_Passport/Raspbian/raspbian-tee/raspbian-tee/optee_os/lib/libutils/ext/snprintk.c:606
     adc:	9b0d      	ldr	r3, [sp, #52]	; 0x34
     ade:	1a9b      	subs	r3, r3, r2
/media/wen/My_Passport/Raspbian/raspbian-tee/raspbian-tee/optee_os/lib/libutils/ext/snprintk.c:608
     ae0:	2220      	movs	r2, #32
/media/wen/My_Passport/Raspbian/raspbian-tee/raspbian-tee/optee_os/lib/libutils/ext/snprintk.c:607
     ae2:	2b00      	cmp	r3, #0
     ae4:	f77f ae15 	ble.w	712 <__vsnprintf+0x22>
/media/wen/My_Passport/Raspbian/raspbian-tee/raspbian-tee/optee_os/lib/libutils/ext/snprintk.c:608
     ae8:	f1b8 0f00 	cmp.w	r8, #0
     aec:	d006      	beq.n	afc <__vsnprintf+0x40c>
     aee:	990e      	ldr	r1, [sp, #56]	; 0x38
     af0:	4541      	cmp	r1, r8
     af2:	d903      	bls.n	afc <__vsnprintf+0x40c>
     af4:	f888 2000 	strb.w	r2, [r8]
     af8:	f108 0801 	add.w	r8, r8, #1
     afc:	3b01      	subs	r3, #1
     afe:	e7f0      	b.n	ae2 <__vsnprintf+0x3f2>
/media/wen/My_Passport/Raspbian/raspbian-tee/raspbian-tee/optee_os/lib/libutils/ext/snprintk.c:380
     b00:	f046 0610 	orr.w	r6, r6, #16
/media/wen/My_Passport/Raspbian/raspbian-tee/raspbian-tee/optee_os/lib/libutils/ext/snprintk.c:384
     b04:	0631      	lsls	r1, r6, #24
     b06:	d523      	bpl.n	b50 <__vsnprintf+0x460>
     b08:	3207      	adds	r2, #7
     b0a:	f022 0207 	bic.w	r2, r2, #7
     b0e:	f102 0708 	add.w	r7, r2, #8
     b12:	e9d2 4500 	ldrd	r4, r5, [r2]
/media/wen/My_Passport/Raspbian/raspbian-tee/raspbian-tee/optee_os/lib/libutils/ext/snprintk.c:385
     b16:	2c00      	cmp	r4, #0
     b18:	f175 0300 	sbcs.w	r3, r5, #0
     b1c:	da04      	bge.n	b28 <__vsnprintf+0x438>
/media/wen/My_Passport/Raspbian/raspbian-tee/raspbian-tee/optee_os/lib/libutils/ext/snprintk.c:386
     b1e:	4264      	negs	r4, r4
/media/wen/My_Passport/Raspbian/raspbian-tee/raspbian-tee/optee_os/lib/libutils/ext/snprintk.c:387
     b20:	f04f 0a2d 	mov.w	sl, #45	; 0x2d
/media/wen/My_Passport/Raspbian/raspbian-tee/raspbian-tee/optee_os/lib/libutils/ext/snprintk.c:386
     b24:	eb65 0545 	sbc.w	r5, r5, r5, lsl #1
/media/wen/My_Passport/Raspbian/raspbian-tee/raspbian-tee/optee_os/lib/libutils/ext/snprintk.c:488
     b28:	f1bb 3fff 	cmp.w	fp, #4294967295
     b2c:	f040 80ec 	bne.w	d08 <__vsnprintf+0x618>
/media/wen/My_Passport/Raspbian/raspbian-tee/raspbian-tee/optee_os/lib/libutils/ext/snprintk.c:508
     b30:	f10d 0375 	add.w	r3, sp, #117	; 0x75
     b34:	9311      	str	r3, [sp, #68]	; 0x44
/media/wen/My_Passport/Raspbian/raspbian-tee/raspbian-tee/optee_os/lib/libutils/ext/snprintk.c:516
     b36:	2d00      	cmp	r5, #0
     b38:	9b11      	ldr	r3, [sp, #68]	; 0x44
     b3a:	bf08      	it	eq
     b3c:	2c0a      	cmpeq	r4, #10
     b3e:	f103 33ff 	add.w	r3, r3, #4294967295
     b42:	f080 80e5 	bcs.w	d10 <__vsnprintf+0x620>
/media/wen/My_Passport/Raspbian/raspbian-tee/raspbian-tee/optee_os/lib/libutils/ext/snprintk.c:520
     b46:	9a11      	ldr	r2, [sp, #68]	; 0x44
     b48:	3430      	adds	r4, #48	; 0x30
     b4a:	f802 4c01 	strb.w	r4, [r2, #-1]
     b4e:	e6ac      	b.n	8aa <__vsnprintf+0x1ba>
/media/wen/My_Passport/Raspbian/raspbian-tee/raspbian-tee/optee_os/lib/libutils/ext/snprintk.c:384
     b50:	05f3      	lsls	r3, r6, #23
     b52:	d503      	bpl.n	b5c <__vsnprintf+0x46c>
     b54:	1d17      	adds	r7, r2, #4
     b56:	6814      	ldr	r4, [r2, #0]
     b58:	17e5      	asrs	r5, r4, #31
     b5a:	e7dc      	b.n	b16 <__vsnprintf+0x426>
     b5c:	05b7      	lsls	r7, r6, #22
     b5e:	d4f9      	bmi.n	b54 <__vsnprintf+0x464>
     b60:	06b5      	lsls	r5, r6, #26
     b62:	d4d1      	bmi.n	b08 <__vsnprintf+0x418>
     b64:	f016 0f10 	tst.w	r6, #16
     b68:	f102 0704 	add.w	r7, r2, #4
     b6c:	d1f3      	bne.n	b56 <__vsnprintf+0x466>
     b6e:	f016 0f40 	tst.w	r6, #64	; 0x40
     b72:	6814      	ldr	r4, [r2, #0]
     b74:	d0f0      	beq.n	b58 <__vsnprintf+0x468>
     b76:	b224      	sxth	r4, r4
     b78:	e7ee      	b.n	b58 <__vsnprintf+0x468>
/media/wen/My_Passport/Raspbian/raspbian-tee/raspbian-tee/optee_os/lib/libutils/ext/snprintk.c:392
     b7a:	f016 0f80 	tst.w	r6, #128	; 0x80
     b7e:	f102 0704 	add.w	r7, r2, #4
     b82:	d006      	beq.n	b92 <__vsnprintf+0x4a2>
/media/wen/My_Passport/Raspbian/raspbian-tee/raspbian-tee/optee_os/lib/libutils/ext/snprintk.c:399
     b84:	6813      	ldr	r3, [r2, #0]
     b86:	9a0c      	ldr	r2, [sp, #48]	; 0x30
     b88:	4610      	mov	r0, r2
     b8a:	17d1      	asrs	r1, r2, #31
     b8c:	e9c3 0100 	strd	r0, r1, [r3]
     b90:	e5bf      	b.n	712 <__vsnprintf+0x22>
/media/wen/My_Passport/Raspbian/raspbian-tee/raspbian-tee/optee_os/lib/libutils/ext/snprintk.c:394
     b92:	05f4      	lsls	r4, r6, #23
     b94:	d503      	bpl.n	b9e <__vsnprintf+0x4ae>
/media/wen/My_Passport/Raspbian/raspbian-tee/raspbian-tee/optee_os/lib/libutils/ext/snprintk.c:405
     b96:	6813      	ldr	r3, [r2, #0]
     b98:	9a0c      	ldr	r2, [sp, #48]	; 0x30
     b9a:	601a      	str	r2, [r3, #0]
     b9c:	e5b9      	b.n	712 <__vsnprintf+0x22>
/media/wen/My_Passport/Raspbian/raspbian-tee/raspbian-tee/optee_os/lib/libutils/ext/snprintk.c:396
     b9e:	05b0      	lsls	r0, r6, #22
     ba0:	d4f9      	bmi.n	b96 <__vsnprintf+0x4a6>
/media/wen/My_Passport/Raspbian/raspbian-tee/raspbian-tee/optee_os/lib/libutils/ext/snprintk.c:398
     ba2:	06b1      	lsls	r1, r6, #26
     ba4:	d4ee      	bmi.n	b84 <__vsnprintf+0x494>
/media/wen/My_Passport/Raspbian/raspbian-tee/raspbian-tee/optee_os/lib/libutils/ext/snprintk.c:400
     ba6:	06f3      	lsls	r3, r6, #27
     ba8:	d4f5      	bmi.n	b96 <__vsnprintf+0x4a6>
/media/wen/My_Passport/Raspbian/raspbian-tee/raspbian-tee/optee_os/lib/libutils/ext/snprintk.c:402
     baa:	0676      	lsls	r6, r6, #25
     bac:	d5f3      	bpl.n	b96 <__vsnprintf+0x4a6>
/media/wen/My_Passport/Raspbian/raspbian-tee/raspbian-tee/optee_os/lib/libutils/ext/snprintk.c:403
     bae:	6813      	ldr	r3, [r2, #0]
     bb0:	f8bd 2030 	ldrh.w	r2, [sp, #48]	; 0x30
     bb4:	801a      	strh	r2, [r3, #0]
     bb6:	e5ac      	b.n	712 <__vsnprintf+0x22>
/media/wen/My_Passport/Raspbian/raspbian-tee/raspbian-tee/optee_os/lib/libutils/ext/snprintk.c:411
     bb8:	05f4      	lsls	r4, r6, #23
     bba:	d502      	bpl.n	bc2 <__vsnprintf+0x4d2>
     bbc:	1d17      	adds	r7, r2, #4
     bbe:	6814      	ldr	r4, [r2, #0]
     bc0:	e00c      	b.n	bdc <__vsnprintf+0x4ec>
     bc2:	05b0      	lsls	r0, r6, #22
     bc4:	d4fa      	bmi.n	bbc <__vsnprintf+0x4cc>
     bc6:	06b1      	lsls	r1, r6, #26
     bc8:	f53f ae36 	bmi.w	838 <__vsnprintf+0x148>
     bcc:	f016 0f10 	tst.w	r6, #16
     bd0:	f102 0704 	add.w	r7, r2, #4
     bd4:	d1f3      	bne.n	bbe <__vsnprintf+0x4ce>
     bd6:	0673      	lsls	r3, r6, #25
     bd8:	d5f1      	bpl.n	bbe <__vsnprintf+0x4ce>
     bda:	8814      	ldrh	r4, [r2, #0]
     bdc:	2500      	movs	r5, #0
     bde:	e632      	b.n	846 <__vsnprintf+0x156>
/media/wen/My_Passport/Raspbian/raspbian-tee/raspbian-tee/optee_os/lib/libutils/ext/snprintk.c:415
     be0:	9b13      	ldr	r3, [sp, #76]	; 0x4c
     be2:	2b00      	cmp	r3, #0
     be4:	d02d      	beq.n	c42 <__vsnprintf+0x552>
     be6:	9b0b      	ldr	r3, [sp, #44]	; 0x2c
     be8:	781b      	ldrb	r3, [r3, #0]
     bea:	2b55      	cmp	r3, #85	; 0x55
     bec:	d129      	bne.n	c42 <__vsnprintf+0x552>
     bee:	9b0b      	ldr	r3, [sp, #44]	; 0x2c
     bf0:	785b      	ldrb	r3, [r3, #1]
     bf2:	2b6c      	cmp	r3, #108	; 0x6c
     bf4:	d125      	bne.n	c42 <__vsnprintf+0x552>
/media/wen/My_Passport/Raspbian/raspbian-tee/raspbian-tee/optee_os/lib/libutils/ext/snprintk.c:420
     bf6:	9b0b      	ldr	r3, [sp, #44]	; 0x2c
/media/wen/My_Passport/Raspbian/raspbian-tee/raspbian-tee/optee_os/lib/libutils/ext/snprintk.c:421
     bf8:	1d17      	adds	r7, r2, #4
uuid2str():
/media/wen/My_Passport/Raspbian/raspbian-tee/raspbian-tee/optee_os/lib/libutils/ext/snprintk.c:223
     bfa:	ac14      	add	r4, sp, #80	; 0x50
     bfc:	2125      	movs	r1, #37	; 0x25
kprintf():
/media/wen/My_Passport/Raspbian/raspbian-tee/raspbian-tee/optee_os/lib/libutils/ext/snprintk.c:420
     bfe:	3302      	adds	r3, #2
uuid2str():
/media/wen/My_Passport/Raspbian/raspbian-tee/raspbian-tee/optee_os/lib/libutils/ext/snprintk.c:223
     c00:	4620      	mov	r0, r4
kprintf():
/media/wen/My_Passport/Raspbian/raspbian-tee/raspbian-tee/optee_os/lib/libutils/ext/snprintk.c:420
     c02:	930b      	str	r3, [sp, #44]	; 0x2c
/media/wen/My_Passport/Raspbian/raspbian-tee/raspbian-tee/optee_os/lib/libutils/ext/snprintk.c:421
     c04:	6813      	ldr	r3, [r2, #0]
uuid2str():
/media/wen/My_Passport/Raspbian/raspbian-tee/raspbian-tee/optee_os/lib/libutils/ext/snprintk.c:223
     c06:	7bda      	ldrb	r2, [r3, #15]
     c08:	9209      	str	r2, [sp, #36]	; 0x24
     c0a:	7b9a      	ldrb	r2, [r3, #14]
     c0c:	9208      	str	r2, [sp, #32]
     c0e:	7b5a      	ldrb	r2, [r3, #13]
     c10:	9207      	str	r2, [sp, #28]
     c12:	7b1a      	ldrb	r2, [r3, #12]
     c14:	9206      	str	r2, [sp, #24]
     c16:	7ada      	ldrb	r2, [r3, #11]
     c18:	9205      	str	r2, [sp, #20]
     c1a:	7a9a      	ldrb	r2, [r3, #10]
     c1c:	9204      	str	r2, [sp, #16]
     c1e:	7a5a      	ldrb	r2, [r3, #9]
     c20:	9203      	str	r2, [sp, #12]
     c22:	7a1a      	ldrb	r2, [r3, #8]
     c24:	9202      	str	r2, [sp, #8]
     c26:	88da      	ldrh	r2, [r3, #6]
     c28:	9201      	str	r2, [sp, #4]
     c2a:	889a      	ldrh	r2, [r3, #4]
     c2c:	9200      	str	r2, [sp, #0]
     c2e:	4a7a      	ldr	r2, [pc, #488]	; (e18 <__vsnprintf+0x728>)
     c30:	681b      	ldr	r3, [r3, #0]
     c32:	447a      	add	r2, pc
     c34:	f000 f8fd 	bl	e32 <snprintk>
     c38:	4683      	mov	fp, r0
kprintf():
/media/wen/My_Passport/Raspbian/raspbian-tee/raspbian-tee/optee_os/lib/libutils/ext/snprintk.c:285
     c3a:	2000      	movs	r0, #0
/media/wen/My_Passport/Raspbian/raspbian-tee/raspbian-tee/optee_os/lib/libutils/ext/snprintk.c:423
     c3c:	4623      	mov	r3, r4
/media/wen/My_Passport/Raspbian/raspbian-tee/raspbian-tee/optee_os/lib/libutils/ext/snprintk.c:424
     c3e:	4682      	mov	sl, r0
     c40:	e70f      	b.n	a62 <__vsnprintf+0x372>
/media/wen/My_Passport/Raspbian/raspbian-tee/raspbian-tee/optee_os/lib/libutils/ext/snprintk.c:437
     c42:	4b76      	ldr	r3, [pc, #472]	; (e1c <__vsnprintf+0x72c>)
/media/wen/My_Passport/Raspbian/raspbian-tee/raspbian-tee/optee_os/lib/libutils/ext/snprintk.c:435
     c44:	1d17      	adds	r7, r2, #4
     c46:	6814      	ldr	r4, [r2, #0]
     c48:	2500      	movs	r5, #0
/media/wen/My_Passport/Raspbian/raspbian-tee/raspbian-tee/optee_os/lib/libutils/ext/snprintk.c:437
     c4a:	447b      	add	r3, pc
/media/wen/My_Passport/Raspbian/raspbian-tee/raspbian-tee/optee_os/lib/libutils/ext/snprintk.c:438
     c4c:	f046 0602 	orr.w	r6, r6, #2
/media/wen/My_Passport/Raspbian/raspbian-tee/raspbian-tee/optee_os/lib/libutils/ext/snprintk.c:437
     c50:	3311      	adds	r3, #17
/media/wen/My_Passport/Raspbian/raspbian-tee/raspbian-tee/optee_os/lib/libutils/ext/snprintk.c:439
     c52:	f04f 0978 	mov.w	r9, #120	; 0x78
/media/wen/My_Passport/Raspbian/raspbian-tee/raspbian-tee/optee_os/lib/libutils/ext/snprintk.c:437
     c56:	930f      	str	r3, [sp, #60]	; 0x3c
/media/wen/My_Passport/Raspbian/raspbian-tee/raspbian-tee/optee_os/lib/libutils/ext/snprintk.c:488
     c58:	f1bb 3fff 	cmp.w	fp, #4294967295
     c5c:	f47f aeaa 	bne.w	9b4 <__vsnprintf+0x2c4>
     c60:	f04f 0a00 	mov.w	sl, #0
     c64:	f10d 0375 	add.w	r3, sp, #117	; 0x75
/media/wen/My_Passport/Raspbian/raspbian-tee/raspbian-tee/optee_os/lib/libutils/ext/snprintk.c:525
     c68:	990f      	ldr	r1, [sp, #60]	; 0x3c
     c6a:	f004 020f 	and.w	r2, r4, #15
     c6e:	5c8a      	ldrb	r2, [r1, r2]
/media/wen/My_Passport/Raspbian/raspbian-tee/raspbian-tee/optee_os/lib/libutils/ext/snprintk.c:526
     c70:	0929      	lsrs	r1, r5, #4
/media/wen/My_Passport/Raspbian/raspbian-tee/raspbian-tee/optee_os/lib/libutils/ext/snprintk.c:525
     c72:	f803 2d01 	strb.w	r2, [r3, #-1]!
/media/wen/My_Passport/Raspbian/raspbian-tee/raspbian-tee/optee_os/lib/libutils/ext/snprintk.c:526
     c76:	0922      	lsrs	r2, r4, #4
     c78:	ea42 7205 	orr.w	r2, r2, r5, lsl #28
     c7c:	460d      	mov	r5, r1
     c7e:	4614      	mov	r4, r2
/media/wen/My_Passport/Raspbian/raspbian-tee/raspbian-tee/optee_os/lib/libutils/ext/snprintk.c:527
     c80:	ea54 0205 	orrs.w	r2, r4, r5
     c84:	d1f0      	bne.n	c68 <__vsnprintf+0x578>
     c86:	e610      	b.n	8aa <__vsnprintf+0x1ba>
/media/wen/My_Passport/Raspbian/raspbian-tee/raspbian-tee/optee_os/lib/libutils/ext/snprintk.c:460
     c88:	4618      	mov	r0, r3
     c8a:	9311      	str	r3, [sp, #68]	; 0x44
     c8c:	f005 f852 	bl	5d34 <strlen>
     c90:	4683      	mov	fp, r0
/media/wen/My_Passport/Raspbian/raspbian-tee/raspbian-tee/optee_os/lib/libutils/ext/snprintk.c:285
     c92:	2000      	movs	r0, #0
     c94:	9b11      	ldr	r3, [sp, #68]	; 0x44
/media/wen/My_Passport/Raspbian/raspbian-tee/raspbian-tee/optee_os/lib/libutils/ext/snprintk.c:461
     c96:	4682      	mov	sl, r0
     c98:	e6e3      	b.n	a62 <__vsnprintf+0x372>
/media/wen/My_Passport/Raspbian/raspbian-tee/raspbian-tee/optee_os/lib/libutils/ext/snprintk.c:464
     c9a:	f046 0610 	orr.w	r6, r6, #16
     c9e:	e660      	b.n	962 <__vsnprintf+0x272>
/media/wen/My_Passport/Raspbian/raspbian-tee/raspbian-tee/optee_os/lib/libutils/ext/snprintk.c:467
     ca0:	f416 7a80 	ands.w	sl, r6, #256	; 0x100
     ca4:	d003      	beq.n	cae <__vsnprintf+0x5be>
     ca6:	6814      	ldr	r4, [r2, #0]
     ca8:	1d17      	adds	r7, r2, #4
     caa:	2500      	movs	r5, #0
     cac:	e664      	b.n	978 <__vsnprintf+0x288>
     cae:	f416 7300 	ands.w	r3, r6, #512	; 0x200
     cb2:	d003      	beq.n	cbc <__vsnprintf+0x5cc>
     cb4:	1d17      	adds	r7, r2, #4
     cb6:	6814      	ldr	r4, [r2, #0]
     cb8:	2500      	movs	r5, #0
     cba:	e735      	b.n	b28 <__vsnprintf+0x438>
     cbc:	f016 0a20 	ands.w	sl, r6, #32
     cc0:	f47f ae53 	bne.w	96a <__vsnprintf+0x27a>
     cc4:	f016 0310 	ands.w	r3, r6, #16
     cc8:	f102 0704 	add.w	r7, r2, #4
     ccc:	d1f3      	bne.n	cb6 <__vsnprintf+0x5c6>
     cce:	f016 0a40 	ands.w	sl, r6, #64	; 0x40
     cd2:	d0f0      	beq.n	cb6 <__vsnprintf+0x5c6>
     cd4:	8814      	ldrh	r4, [r2, #0]
     cd6:	e7e8      	b.n	caa <__vsnprintf+0x5ba>
/media/wen/My_Passport/Raspbian/raspbian-tee/raspbian-tee/optee_os/lib/libutils/ext/snprintk.c:474
     cd8:	4b51      	ldr	r3, [pc, #324]	; (e20 <__vsnprintf+0x730>)
     cda:	447b      	add	r3, pc
     cdc:	3311      	adds	r3, #17
     cde:	e651      	b.n	984 <__vsnprintf+0x294>
/media/wen/My_Passport/Raspbian/raspbian-tee/raspbian-tee/optee_os/lib/libutils/ext/snprintk.c:475
     ce0:	05f5      	lsls	r5, r6, #23
     ce2:	d502      	bpl.n	cea <__vsnprintf+0x5fa>
     ce4:	1d17      	adds	r7, r2, #4
     ce6:	6814      	ldr	r4, [r2, #0]
     ce8:	e00c      	b.n	d04 <__vsnprintf+0x614>
     cea:	05b4      	lsls	r4, r6, #22
     cec:	d4fa      	bmi.n	ce4 <__vsnprintf+0x5f4>
     cee:	06b0      	lsls	r0, r6, #26
     cf0:	f53f ae4c 	bmi.w	98c <__vsnprintf+0x29c>
     cf4:	f016 0f10 	tst.w	r6, #16
     cf8:	f102 0704 	add.w	r7, r2, #4
     cfc:	d1f3      	bne.n	ce6 <__vsnprintf+0x5f6>
     cfe:	0671      	lsls	r1, r6, #25
     d00:	d5f1      	bpl.n	ce6 <__vsnprintf+0x5f6>
     d02:	8814      	ldrh	r4, [r2, #0]
     d04:	2500      	movs	r5, #0
     d06:	e648      	b.n	99a <__vsnprintf+0x2aa>
/media/wen/My_Passport/Raspbian/raspbian-tee/raspbian-tee/optee_os/lib/libutils/ext/snprintk.c:488
     d08:	2301      	movs	r3, #1
     d0a:	e5a2      	b.n	852 <__vsnprintf+0x162>
/media/wen/My_Passport/Raspbian/raspbian-tee/raspbian-tee/optee_os/lib/libutils/ext/snprintk.c:508
     d0c:	461a      	mov	r2, r3
     d0e:	e5b3      	b.n	878 <__vsnprintf+0x188>
/media/wen/My_Passport/Raspbian/raspbian-tee/raspbian-tee/optee_os/lib/libutils/ext/snprintk.c:517
     d10:	9311      	str	r3, [sp, #68]	; 0x44
     d12:	4620      	mov	r0, r4
     d14:	4629      	mov	r1, r5
     d16:	220a      	movs	r2, #10
     d18:	2300      	movs	r3, #0
     d1a:	f000 e8a4 	blx	e64 <__aeabi_uldivmod>
     d1e:	9b11      	ldr	r3, [sp, #68]	; 0x44
     d20:	3230      	adds	r2, #48	; 0x30
/media/wen/My_Passport/Raspbian/raspbian-tee/raspbian-tee/optee_os/lib/libutils/ext/snprintk.c:518
     d22:	4620      	mov	r0, r4
     d24:	4629      	mov	r1, r5
/media/wen/My_Passport/Raspbian/raspbian-tee/raspbian-tee/optee_os/lib/libutils/ext/snprintk.c:517
     d26:	701a      	strb	r2, [r3, #0]
/media/wen/My_Passport/Raspbian/raspbian-tee/raspbian-tee/optee_os/lib/libutils/ext/snprintk.c:518
     d28:	220a      	movs	r2, #10
     d2a:	2300      	movs	r3, #0
     d2c:	f000 e89a 	blx	e64 <__aeabi_uldivmod>
     d30:	4604      	mov	r4, r0
     d32:	460d      	mov	r5, r1
     d34:	e6ff      	b.n	b36 <__vsnprintf+0x446>
/media/wen/My_Passport/Raspbian/raspbian-tee/raspbian-tee/optee_os/lib/libutils/ext/snprintk.c:496
     d36:	f10d 0375 	add.w	r3, sp, #117	; 0x75
     d3a:	e5b6      	b.n	8aa <__vsnprintf+0x1ba>
/media/wen/My_Passport/Raspbian/raspbian-tee/raspbian-tee/optee_os/lib/libutils/ext/snprintk.c:568
     d3c:	07b4      	lsls	r4, r6, #30
/media/wen/My_Passport/Raspbian/raspbian-tee/raspbian-tee/optee_os/lib/libutils/ext/snprintk.c:569
     d3e:	bf48      	it	mi
     d40:	3202      	addmi	r2, #2
     d42:	e697      	b.n	a74 <__vsnprintf+0x384>
/media/wen/My_Passport/Raspbian/raspbian-tee/raspbian-tee/optee_os/lib/libutils/ext/snprintk.c:578
     d44:	f1b8 0f00 	cmp.w	r8, #0
     d48:	d006      	beq.n	d58 <__vsnprintf+0x668>
     d4a:	9d0e      	ldr	r5, [sp, #56]	; 0x38
     d4c:	4545      	cmp	r5, r8
     d4e:	d903      	bls.n	d58 <__vsnprintf+0x668>
     d50:	f888 e000 	strb.w	lr, [r8]
     d54:	f108 0801 	add.w	r8, r8, #1
     d58:	3901      	subs	r1, #1
     d5a:	e69b      	b.n	a94 <__vsnprintf+0x3a4>
/media/wen/My_Passport/Raspbian/raspbian-tee/raspbian-tee/optee_os/lib/libutils/ext/snprintk.c:583
     d5c:	990e      	ldr	r1, [sp, #56]	; 0x38
     d5e:	4541      	cmp	r1, r8
     d60:	f67f aea5 	bls.w	aae <__vsnprintf+0x3be>
     d64:	f888 a000 	strb.w	sl, [r8]
     d68:	f108 0801 	add.w	r8, r8, #1
     d6c:	e69f      	b.n	aae <__vsnprintf+0x3be>
/media/wen/My_Passport/Raspbian/raspbian-tee/raspbian-tee/optee_os/lib/libutils/ext/snprintk.c:584
     d6e:	07b1      	lsls	r1, r6, #30
     d70:	f57f ae9d 	bpl.w	aae <__vsnprintf+0x3be>
/media/wen/My_Passport/Raspbian/raspbian-tee/raspbian-tee/optee_os/lib/libutils/ext/snprintk.c:585
     d74:	f1b8 0f00 	cmp.w	r8, #0
     d78:	f43f ae97 	beq.w	aaa <__vsnprintf+0x3ba>
     d7c:	990e      	ldr	r1, [sp, #56]	; 0x38
     d7e:	4541      	cmp	r1, r8
     d80:	f67f ae95 	bls.w	aae <__vsnprintf+0x3be>
     d84:	2130      	movs	r1, #48	; 0x30
     d86:	f888 1000 	strb.w	r1, [r8]
/media/wen/My_Passport/Raspbian/raspbian-tee/raspbian-tee/optee_os/lib/libutils/ext/snprintk.c:586
     d8a:	f118 0101 	adds.w	r1, r8, #1
     d8e:	f43f ae8c 	beq.w	aaa <__vsnprintf+0x3ba>
     d92:	9d0e      	ldr	r5, [sp, #56]	; 0x38
     d94:	428d      	cmp	r5, r1
     d96:	d904      	bls.n	da2 <__vsnprintf+0x6b2>
     d98:	f888 9001 	strb.w	r9, [r8, #1]
     d9c:	f108 0802 	add.w	r8, r8, #2
     da0:	e685      	b.n	aae <__vsnprintf+0x3be>
     da2:	4688      	mov	r8, r1
     da4:	e683      	b.n	aae <__vsnprintf+0x3be>
/media/wen/My_Passport/Raspbian/raspbian-tee/raspbian-tee/optee_os/lib/libutils/ext/snprintk.c:593
     da6:	f1b8 0f00 	cmp.w	r8, #0
     daa:	d006      	beq.n	dba <__vsnprintf+0x6ca>
     dac:	9d0e      	ldr	r5, [sp, #56]	; 0x38
     dae:	4545      	cmp	r5, r8
     db0:	d903      	bls.n	dba <__vsnprintf+0x6ca>
     db2:	f888 4000 	strb.w	r4, [r8]
     db6:	f108 0801 	add.w	r8, r8, #1
     dba:	3901      	subs	r1, #1
     dbc:	e67d      	b.n	aba <__vsnprintf+0x3ca>
/media/wen/My_Passport/Raspbian/raspbian-tee/raspbian-tee/optee_os/lib/libutils/ext/snprintk.c:599
     dbe:	f1b8 0f00 	cmp.w	r8, #0
     dc2:	d006      	beq.n	dd2 <__vsnprintf+0x6e2>
     dc4:	9c0e      	ldr	r4, [sp, #56]	; 0x38
     dc6:	4544      	cmp	r4, r8
     dc8:	d903      	bls.n	dd2 <__vsnprintf+0x6e2>
     dca:	f888 1000 	strb.w	r1, [r8]
     dce:	f108 0801 	add.w	r8, r8, #1
     dd2:	3801      	subs	r0, #1
     dd4:	e677      	b.n	ac6 <__vsnprintf+0x3d6>
/media/wen/My_Passport/Raspbian/raspbian-tee/raspbian-tee/optee_os/lib/libutils/ext/snprintk.c:603
     dd6:	f1b8 0f00 	cmp.w	r8, #0
     dda:	d007      	beq.n	dec <__vsnprintf+0x6fc>
     ddc:	980e      	ldr	r0, [sp, #56]	; 0x38
     dde:	4540      	cmp	r0, r8
     de0:	d904      	bls.n	dec <__vsnprintf+0x6fc>
     de2:	7818      	ldrb	r0, [r3, #0]
     de4:	f108 0801 	add.w	r8, r8, #1
     de8:	f808 0c01 	strb.w	r0, [r8, #-1]
/media/wen/My_Passport/Raspbian/raspbian-tee/raspbian-tee/optee_os/lib/libutils/ext/snprintk.c:602
     dec:	3301      	adds	r3, #1
     dee:	e66f      	b.n	ad0 <__vsnprintf+0x3e0>
__vsnprintf():
/media/wen/My_Passport/Raspbian/raspbian-tee/raspbian-tee/optee_os/lib/libutils/ext/snprintk.c:148
     df0:	990c      	ldr	r1, [sp, #48]	; 0x30
     df2:	5453      	strb	r3, [r2, r1]
/media/wen/My_Passport/Raspbian/raspbian-tee/raspbian-tee/optee_os/lib/libutils/ext/snprintk.c:150
     df4:	e4a1      	b.n	73a <__vsnprintf+0x4a>
kprintf():
/media/wen/My_Passport/Raspbian/raspbian-tee/raspbian-tee/optee_os/lib/libutils/ext/snprintk.c:489
     df6:	f426 6680 	bic.w	r6, r6, #1024	; 0x400
/media/wen/My_Passport/Raspbian/raspbian-tee/raspbian-tee/optee_os/lib/libutils/ext/snprintk.c:482
     dfa:	f04f 0a00 	mov.w	sl, #0
/media/wen/My_Passport/Raspbian/raspbian-tee/raspbian-tee/optee_os/lib/libutils/ext/snprintk.c:476
     dfe:	2302      	movs	r3, #2
     e00:	e52c      	b.n	85c <__vsnprintf+0x16c>
/media/wen/My_Passport/Raspbian/raspbian-tee/raspbian-tee/optee_os/lib/libutils/ext/snprintk.c:488
     e02:	f1bb 3fff 	cmp.w	fp, #4294967295
     e06:	d1f6      	bne.n	df6 <__vsnprintf+0x706>
     e08:	f04f 3bff 	mov.w	fp, #4294967295
     e0c:	e728      	b.n	c60 <__vsnprintf+0x570>
     e0e:	bf00      	nop
     e10:	00005a97 	.word	0x00005a97
     e14:	00005a17 	.word	0x00005a17
     e18:	00005790 	.word	0x00005790
     e1c:	0000574f 	.word	0x0000574f
     e20:	000056bf 	.word	0x000056bf

00000e24 <vsnprintk>:
vsnprintk():
/media/wen/My_Passport/Raspbian/raspbian-tee/raspbian-tee/optee_os/lib/libutils/ext/snprintk.c:129
     e24:	b513      	push	{r0, r1, r4, lr}
/media/wen/My_Passport/Raspbian/raspbian-tee/raspbian-tee/optee_os/lib/libutils/ext/snprintk.c:130
     e26:	2401      	movs	r4, #1
     e28:	9400      	str	r4, [sp, #0]
     e2a:	f7ff fc61 	bl	6f0 <__vsnprintf>
/media/wen/My_Passport/Raspbian/raspbian-tee/raspbian-tee/optee_os/lib/libutils/ext/snprintk.c:131
     e2e:	b002      	add	sp, #8
     e30:	bd10      	pop	{r4, pc}

00000e32 <snprintk>:
snprintk():
/media/wen/My_Passport/Raspbian/raspbian-tee/raspbian-tee/optee_os/lib/libutils/ext/snprintk.c:112
     e32:	b40c      	push	{r2, r3}
     e34:	b507      	push	{r0, r1, r2, lr}
     e36:	ab04      	add	r3, sp, #16
     e38:	f853 2b04 	ldr.w	r2, [r3], #4
/media/wen/My_Passport/Raspbian/raspbian-tee/raspbian-tee/optee_os/lib/libutils/ext/snprintk.c:116
     e3c:	9301      	str	r3, [sp, #4]
/media/wen/My_Passport/Raspbian/raspbian-tee/raspbian-tee/optee_os/lib/libutils/ext/snprintk.c:117
     e3e:	f7ff fff1 	bl	e24 <vsnprintk>
/media/wen/My_Passport/Raspbian/raspbian-tee/raspbian-tee/optee_os/lib/libutils/ext/snprintk.c:121
     e42:	b003      	add	sp, #12
     e44:	f85d eb04 	ldr.w	lr, [sp], #4
     e48:	b002      	add	sp, #8
     e4a:	4770      	bx	lr

00000e4c <__aeabi_ldivmod>:
__aeabi_ldivmod():
/media/wen/My_Passport/Raspbian/raspbian-tee/raspbian-tee/optee_os/lib/libutils/isoc/arch/arm/arm32_aeabi_ldivmod_a32.S:24
     e4c:	e92d5000 	push	{ip, lr}
/media/wen/My_Passport/Raspbian/raspbian-tee/raspbian-tee/optee_os/lib/libutils/isoc/arch/arm/arm32_aeabi_ldivmod_a32.S:26
     e50:	e92d000f 	push	{r0, r1, r2, r3}
/media/wen/My_Passport/Raspbian/raspbian-tee/raspbian-tee/optee_os/lib/libutils/isoc/arch/arm/arm32_aeabi_ldivmod_a32.S:28
     e54:	e1a0000d 	mov	r0, sp
/media/wen/My_Passport/Raspbian/raspbian-tee/raspbian-tee/optee_os/lib/libutils/isoc/arch/arm/arm32_aeabi_ldivmod_a32.S:29
     e58:	fa0013d6 	blx	5db8 <__l_divmod>
/media/wen/My_Passport/Raspbian/raspbian-tee/raspbian-tee/optee_os/lib/libutils/isoc/arch/arm/arm32_aeabi_ldivmod_a32.S:30
     e5c:	e8bd000f 	pop	{r0, r1, r2, r3}
/media/wen/My_Passport/Raspbian/raspbian-tee/raspbian-tee/optee_os/lib/libutils/isoc/arch/arm/arm32_aeabi_ldivmod_a32.S:31
     e60:	e8bd9000 	pop	{ip, pc}

00000e64 <__aeabi_uldivmod>:
__aeabi_uldivmod():
/media/wen/My_Passport/Raspbian/raspbian-tee/raspbian-tee/optee_os/lib/libutils/isoc/arch/arm/arm32_aeabi_ldivmod_a32.S:42
     e64:	e92d5000 	push	{ip, lr}
/media/wen/My_Passport/Raspbian/raspbian-tee/raspbian-tee/optee_os/lib/libutils/isoc/arch/arm/arm32_aeabi_ldivmod_a32.S:44
     e68:	e92d000f 	push	{r0, r1, r2, r3}
/media/wen/My_Passport/Raspbian/raspbian-tee/raspbian-tee/optee_os/lib/libutils/isoc/arch/arm/arm32_aeabi_ldivmod_a32.S:46
     e6c:	e1a0000d 	mov	r0, sp
/media/wen/My_Passport/Raspbian/raspbian-tee/raspbian-tee/optee_os/lib/libutils/isoc/arch/arm/arm32_aeabi_ldivmod_a32.S:47
     e70:	fa0013b3 	blx	5d44 <__ul_divmod>
/media/wen/My_Passport/Raspbian/raspbian-tee/raspbian-tee/optee_os/lib/libutils/isoc/arch/arm/arm32_aeabi_ldivmod_a32.S:48
     e74:	e8bd000f 	pop	{r0, r1, r2, r3}
/media/wen/My_Passport/Raspbian/raspbian-tee/raspbian-tee/optee_os/lib/libutils/isoc/arch/arm/arm32_aeabi_ldivmod_a32.S:49
     e78:	e8bd9000 	pop	{ip, pc}

00000e7c <trace_ext_puts>:
trace_ext_puts():
/media/wen/My_Passport/Raspbian/raspbian-tee/raspbian-tee/optee_os/lib/libutee/trace_ext.c:17
     e7c:	b510      	push	{r4, lr}
     e7e:	4604      	mov	r4, r0
/media/wen/My_Passport/Raspbian/raspbian-tee/raspbian-tee/optee_os/lib/libutee/trace_ext.c:18
     e80:	f004 ff58 	bl	5d34 <strlen>
     e84:	4601      	mov	r1, r0
     e86:	4620      	mov	r0, r4
/media/wen/My_Passport/Raspbian/raspbian-tee/raspbian-tee/optee_os/lib/libutee/trace_ext.c:19
     e88:	e8bd 4010 	ldmia.w	sp!, {r4, lr}
/media/wen/My_Passport/Raspbian/raspbian-tee/raspbian-tee/optee_os/lib/libutee/trace_ext.c:18
     e8c:	f005 b864 	b.w	5f58 <__utee_log_from_thumb>

00000e90 <trace_ext_get_thread_id>:
trace_ext_get_thread_id():
/media/wen/My_Passport/Raspbian/raspbian-tee/raspbian-tee/optee_os/lib/libutee/trace_ext.c:24
     e90:	f04f 30ff 	mov.w	r0, #4294967295
     e94:	4770      	bx	lr

00000e96 <printf>:
printf():
/media/wen/My_Passport/Raspbian/raspbian-tee/raspbian-tee/optee_os/lib/libutee/trace_ext.c:32
     e96:	b40f      	push	{r0, r1, r2, r3}
     e98:	b530      	push	{r4, r5, lr}
     e9a:	b0c3      	sub	sp, #268	; 0x10c
/media/wen/My_Passport/Raspbian/raspbian-tee/raspbian-tee/optee_os/lib/libutee/trace_ext.c:37
     e9c:	f7ff fb7c 	bl	598 <trace_get_level>
     ea0:	2800      	cmp	r0, #0
     ea2:	dd13      	ble.n	ecc <printf+0x36>
/media/wen/My_Passport/Raspbian/raspbian-tee/raspbian-tee/optee_os/lib/libutee/trace_ext.c:41
     ea4:	ad02      	add	r5, sp, #8
/media/wen/My_Passport/Raspbian/raspbian-tee/raspbian-tee/optee_os/lib/libutee/trace_ext.c:40
     ea6:	ab47      	add	r3, sp, #284	; 0x11c
/media/wen/My_Passport/Raspbian/raspbian-tee/raspbian-tee/optee_os/lib/libutee/trace_ext.c:41
     ea8:	9a46      	ldr	r2, [sp, #280]	; 0x118
     eaa:	f44f 7180 	mov.w	r1, #256	; 0x100
     eae:	4628      	mov	r0, r5
/media/wen/My_Passport/Raspbian/raspbian-tee/raspbian-tee/optee_os/lib/libutee/trace_ext.c:40
     eb0:	9301      	str	r3, [sp, #4]
/media/wen/My_Passport/Raspbian/raspbian-tee/raspbian-tee/optee_os/lib/libutee/trace_ext.c:41
     eb2:	f005 f808 	bl	5ec6 <vsnprintf>
/media/wen/My_Passport/Raspbian/raspbian-tee/raspbian-tee/optee_os/lib/libutee/trace_ext.c:44
     eb6:	1e04      	subs	r4, r0, #0
     eb8:	db02      	blt.n	ec0 <printf+0x2a>
/media/wen/My_Passport/Raspbian/raspbian-tee/raspbian-tee/optee_os/lib/libutee/trace_ext.c:47
     eba:	4628      	mov	r0, r5
     ebc:	f7ff ffde 	bl	e7c <trace_ext_puts>
/media/wen/My_Passport/Raspbian/raspbian-tee/raspbian-tee/optee_os/lib/libutee/trace_ext.c:50
     ec0:	4620      	mov	r0, r4
     ec2:	b043      	add	sp, #268	; 0x10c
     ec4:	e8bd 4030 	ldmia.w	sp!, {r4, r5, lr}
     ec8:	b004      	add	sp, #16
     eca:	4770      	bx	lr
/media/wen/My_Passport/Raspbian/raspbian-tee/raspbian-tee/optee_os/lib/libutee/trace_ext.c:38
     ecc:	2400      	movs	r4, #0
     ece:	e7f7      	b.n	ec0 <printf+0x2a>

00000ed0 <puts>:
puts():
/media/wen/My_Passport/Raspbian/raspbian-tee/raspbian-tee/optee_os/lib/libutee/trace_ext.c:53
     ed0:	b510      	push	{r4, lr}
     ed2:	4604      	mov	r4, r0
/media/wen/My_Passport/Raspbian/raspbian-tee/raspbian-tee/optee_os/lib/libutee/trace_ext.c:54
     ed4:	f7ff fb60 	bl	598 <trace_get_level>
     ed8:	2800      	cmp	r0, #0
     eda:	dd06      	ble.n	eea <puts+0x1a>
/media/wen/My_Passport/Raspbian/raspbian-tee/raspbian-tee/optee_os/lib/libutee/trace_ext.c:55
     edc:	4620      	mov	r0, r4
     ede:	f7ff ffcd 	bl	e7c <trace_ext_puts>
/media/wen/My_Passport/Raspbian/raspbian-tee/raspbian-tee/optee_os/lib/libutee/trace_ext.c:56
     ee2:	4803      	ldr	r0, [pc, #12]	; (ef0 <puts+0x20>)
     ee4:	4478      	add	r0, pc
     ee6:	f7ff ffc9 	bl	e7c <trace_ext_puts>
/media/wen/My_Passport/Raspbian/raspbian-tee/raspbian-tee/optee_os/lib/libutee/trace_ext.c:59
     eea:	2001      	movs	r0, #1
     eec:	bd10      	pop	{r4, pc}
     eee:	bf00      	nop
     ef0:	00005b80 	.word	0x00005b80

00000ef4 <putchar>:
putchar():
/media/wen/My_Passport/Raspbian/raspbian-tee/raspbian-tee/optee_os/lib/libutee/trace_ext.c:62
     ef4:	b513      	push	{r0, r1, r4, lr}
/media/wen/My_Passport/Raspbian/raspbian-tee/raspbian-tee/optee_os/lib/libutee/trace_ext.c:63
     ef6:	2300      	movs	r3, #0
/media/wen/My_Passport/Raspbian/raspbian-tee/raspbian-tee/optee_os/lib/libutee/trace_ext.c:62
     ef8:	4604      	mov	r4, r0
/media/wen/My_Passport/Raspbian/raspbian-tee/raspbian-tee/optee_os/lib/libutee/trace_ext.c:63
     efa:	f88d 0004 	strb.w	r0, [sp, #4]
     efe:	f88d 3005 	strb.w	r3, [sp, #5]
/media/wen/My_Passport/Raspbian/raspbian-tee/raspbian-tee/optee_os/lib/libutee/trace_ext.c:65
     f02:	f7ff fb49 	bl	598 <trace_get_level>
     f06:	2800      	cmp	r0, #0
     f08:	dd02      	ble.n	f10 <putchar+0x1c>
/media/wen/My_Passport/Raspbian/raspbian-tee/raspbian-tee/optee_os/lib/libutee/trace_ext.c:66
     f0a:	a801      	add	r0, sp, #4
     f0c:	f7ff ffb6 	bl	e7c <trace_ext_puts>
/media/wen/My_Passport/Raspbian/raspbian-tee/raspbian-tee/optee_os/lib/libutee/trace_ext.c:73
     f10:	b2e0      	uxtb	r0, r4
     f12:	b002      	add	sp, #8
     f14:	bd10      	pop	{r4, pc}
     f16:	bf00      	nop

00000f18 <__utee_from_param>:
__utee_from_param():
/media/wen/My_Passport/Raspbian/raspbian-tee/raspbian-tee/optee_os/lib/libutee/tee_api.c:23
     f18:	2300      	movs	r3, #0
/media/wen/My_Passport/Raspbian/raspbian-tee/raspbian-tee/optee_os/lib/libutee/tee_api.c:20
     f1a:	b5f0      	push	{r4, r5, r6, r7, lr}
     f1c:	4696      	mov	lr, r2
     f1e:	4615      	mov	r5, r2
/media/wen/My_Passport/Raspbian/raspbian-tee/raspbian-tee/optee_os/lib/libutee/tee_api.c:39
     f20:	2600      	movs	r6, #0
     f22:	2700      	movs	r7, #0
/media/wen/My_Passport/Raspbian/raspbian-tee/raspbian-tee/optee_os/lib/libutee/tee_api.c:35
     f24:	461a      	mov	r2, r3
/media/wen/My_Passport/Raspbian/raspbian-tee/raspbian-tee/optee_os/lib/libutee/tee_api.c:23
     f26:	e880 000a 	stmia.w	r0, {r1, r3}
/media/wen/My_Passport/Raspbian/raspbian-tee/raspbian-tee/optee_os/lib/libutee/tee_api.c:25
     f2a:	fa21 f403 	lsr.w	r4, r1, r3
     f2e:	f004 040f 	and.w	r4, r4, #15
     f32:	3c01      	subs	r4, #1
     f34:	2c06      	cmp	r4, #6
     f36:	d813      	bhi.n	f60 <__utee_from_param+0x48>
     f38:	e8df f004 	tbb	[pc, r4]
     f3c:	12040404 	.word	0x12040404
     f40:	0404      	.short	0x0404
     f42:	04          	.byte	0x04
     f43:	00          	.byte	0x00
/media/wen/My_Passport/Raspbian/raspbian-tee/raspbian-tee/optee_os/lib/libutee/tee_api.c:35
     f44:	f85e 4013 	ldr.w	r4, [lr, r3, lsl #1]
     f48:	60c2      	str	r2, [r0, #12]
     f4a:	6084      	str	r4, [r0, #8]
/media/wen/My_Passport/Raspbian/raspbian-tee/raspbian-tee/optee_os/lib/libutee/tee_api.c:36
     f4c:	686c      	ldr	r4, [r5, #4]
     f4e:	6142      	str	r2, [r0, #20]
     f50:	6104      	str	r4, [r0, #16]
     f52:	3304      	adds	r3, #4
     f54:	3508      	adds	r5, #8
/media/wen/My_Passport/Raspbian/raspbian-tee/raspbian-tee/optee_os/lib/libutee/tee_api.c:24 (discriminator 2)
     f56:	2b10      	cmp	r3, #16
     f58:	f100 0010 	add.w	r0, r0, #16
     f5c:	d1e5      	bne.n	f2a <__utee_from_param+0x12>
/media/wen/My_Passport/Raspbian/raspbian-tee/raspbian-tee/optee_os/lib/libutee/tee_api.c:44
     f5e:	bdf0      	pop	{r4, r5, r6, r7, pc}
/media/wen/My_Passport/Raspbian/raspbian-tee/raspbian-tee/optee_os/lib/libutee/tee_api.c:39
     f60:	e9c0 6702 	strd	r6, r7, [r0, #8]
/media/wen/My_Passport/Raspbian/raspbian-tee/raspbian-tee/optee_os/lib/libutee/tee_api.c:40
     f64:	e9c0 6704 	strd	r6, r7, [r0, #16]
/media/wen/My_Passport/Raspbian/raspbian-tee/raspbian-tee/optee_os/lib/libutee/tee_api.c:41
     f68:	e7f3      	b.n	f52 <__utee_from_param+0x3a>

00000f6a <__utee_to_param>:
__utee_to_param():
/media/wen/My_Passport/Raspbian/raspbian-tee/raspbian-tee/optee_os/lib/libutee/tee_api.c:48
     f6a:	b5f0      	push	{r4, r5, r6, r7, lr}
/media/wen/My_Passport/Raspbian/raspbian-tee/raspbian-tee/optee_os/lib/libutee/tee_api.c:50
     f6c:	2300      	movs	r3, #0
     f6e:	6816      	ldr	r6, [r2, #0]
     f70:	4605      	mov	r5, r0
/media/wen/My_Passport/Raspbian/raspbian-tee/raspbian-tee/optee_os/lib/libutee/tee_api.c:56
     f72:	fa26 f403 	lsr.w	r4, r6, r3
/media/wen/My_Passport/Raspbian/raspbian-tee/raspbian-tee/optee_os/lib/libutee/tee_api.c:53
     f76:	f8d2 e008 	ldr.w	lr, [r2, #8]
/media/wen/My_Passport/Raspbian/raspbian-tee/raspbian-tee/optee_os/lib/libutee/tee_api.c:56
     f7a:	f004 040f 	and.w	r4, r4, #15
/media/wen/My_Passport/Raspbian/raspbian-tee/raspbian-tee/optee_os/lib/libutee/tee_api.c:54
     f7e:	6917      	ldr	r7, [r2, #16]
/media/wen/My_Passport/Raspbian/raspbian-tee/raspbian-tee/optee_os/lib/libutee/tee_api.c:56
     f80:	3c01      	subs	r4, #1
     f82:	2c06      	cmp	r4, #6
     f84:	d808      	bhi.n	f98 <__utee_to_param+0x2e>
     f86:	e8df f004 	tbb	[pc, r4]
     f8a:	0404      	.short	0x0404
     f8c:	04040704 	.word	0x04040704
     f90:	04          	.byte	0x04
     f91:	00          	.byte	0x00
/media/wen/My_Passport/Raspbian/raspbian-tee/raspbian-tee/optee_os/lib/libutee/tee_api.c:66
     f92:	f840 e013 	str.w	lr, [r0, r3, lsl #1]
/media/wen/My_Passport/Raspbian/raspbian-tee/raspbian-tee/optee_os/lib/libutee/tee_api.c:67
     f96:	606f      	str	r7, [r5, #4]
     f98:	3304      	adds	r3, #4
     f9a:	3210      	adds	r2, #16
/media/wen/My_Passport/Raspbian/raspbian-tee/raspbian-tee/optee_os/lib/libutee/tee_api.c:52 (discriminator 2)
     f9c:	2b10      	cmp	r3, #16
     f9e:	f105 0508 	add.w	r5, r5, #8
     fa2:	d1e6      	bne.n	f72 <__utee_to_param+0x8>
/media/wen/My_Passport/Raspbian/raspbian-tee/raspbian-tee/optee_os/lib/libutee/tee_api.c:74
     fa4:	b101      	cbz	r1, fa8 <__utee_to_param+0x3e>
/media/wen/My_Passport/Raspbian/raspbian-tee/raspbian-tee/optee_os/lib/libutee/tee_api.c:75
     fa6:	600e      	str	r6, [r1, #0]
     fa8:	bdf0      	pop	{r4, r5, r6, r7, pc}

00000faa <TEE_OpenTASession>:
TEE_OpenTASession():
/media/wen/My_Passport/Raspbian/raspbian-tee/raspbian-tee/optee_os/lib/libutee/tee_api.c:84
     faa:	b5f0      	push	{r4, r5, r6, r7, lr}
     fac:	4605      	mov	r5, r0
     fae:	460f      	mov	r7, r1
     fb0:	b097      	sub	sp, #92	; 0x5c
     fb2:	4611      	mov	r1, r2
/media/wen/My_Passport/Raspbian/raspbian-tee/raspbian-tee/optee_os/lib/libutee/tee_api.c:89
     fb4:	ac04      	add	r4, sp, #16
     fb6:	461a      	mov	r2, r3
     fb8:	4620      	mov	r0, r4
/media/wen/My_Passport/Raspbian/raspbian-tee/raspbian-tee/optee_os/lib/libutee/tee_api.c:84
     fba:	461e      	mov	r6, r3
/media/wen/My_Passport/Raspbian/raspbian-tee/raspbian-tee/optee_os/lib/libutee/tee_api.c:89
     fbc:	f7ff ffac 	bl	f18 <__utee_from_param>
/media/wen/My_Passport/Raspbian/raspbian-tee/raspbian-tee/optee_os/lib/libutee/tee_api.c:90
     fc0:	9b1d      	ldr	r3, [sp, #116]	; 0x74
     fc2:	4622      	mov	r2, r4
     fc4:	4639      	mov	r1, r7
     fc6:	9300      	str	r3, [sp, #0]
     fc8:	4628      	mov	r0, r5
     fca:	ab03      	add	r3, sp, #12
     fcc:	f000 ea60 	blx	1490 <utee_open_ta_session>
     fd0:	4605      	mov	r5, r0
/media/wen/My_Passport/Raspbian/raspbian-tee/raspbian-tee/optee_os/lib/libutee/tee_api.c:92
     fd2:	4622      	mov	r2, r4
     fd4:	2100      	movs	r1, #0
     fd6:	4630      	mov	r0, r6
     fd8:	f7ff ffc7 	bl	f6a <__utee_to_param>
/media/wen/My_Passport/Raspbian/raspbian-tee/raspbian-tee/optee_os/lib/libutee/tee_api.c:98
     fdc:	b10d      	cbz	r5, fe2 <TEE_OpenTASession+0x38>
/media/wen/My_Passport/Raspbian/raspbian-tee/raspbian-tee/optee_os/lib/libutee/tee_api.c:99
     fde:	2300      	movs	r3, #0
     fe0:	9303      	str	r3, [sp, #12]
/media/wen/My_Passport/Raspbian/raspbian-tee/raspbian-tee/optee_os/lib/libutee/tee_api.c:101
     fe2:	9b1c      	ldr	r3, [sp, #112]	; 0x70
/media/wen/My_Passport/Raspbian/raspbian-tee/raspbian-tee/optee_os/lib/libutee/tee_api.c:103
     fe4:	4628      	mov	r0, r5
/media/wen/My_Passport/Raspbian/raspbian-tee/raspbian-tee/optee_os/lib/libutee/tee_api.c:101
     fe6:	9a03      	ldr	r2, [sp, #12]
     fe8:	601a      	str	r2, [r3, #0]
/media/wen/My_Passport/Raspbian/raspbian-tee/raspbian-tee/optee_os/lib/libutee/tee_api.c:103
     fea:	b017      	add	sp, #92	; 0x5c
     fec:	bdf0      	pop	{r4, r5, r6, r7, pc}

00000fee <TEE_CloseTASession>:
TEE_CloseTASession():
/media/wen/My_Passport/Raspbian/raspbian-tee/raspbian-tee/optee_os/lib/libutee/tee_api.c:106
     fee:	b508      	push	{r3, lr}
/media/wen/My_Passport/Raspbian/raspbian-tee/raspbian-tee/optee_os/lib/libutee/tee_api.c:107
     ff0:	b130      	cbz	r0, 1000 <TEE_CloseTASession+0x12>
/media/wen/My_Passport/Raspbian/raspbian-tee/raspbian-tee/optee_os/lib/libutee/tee_api.c:108
     ff2:	f000 ea5a 	blx	14a8 <utee_close_ta_session>
/media/wen/My_Passport/Raspbian/raspbian-tee/raspbian-tee/optee_os/lib/libutee/tee_api.c:110
     ff6:	b118      	cbz	r0, 1000 <TEE_CloseTASession+0x12>
/media/wen/My_Passport/Raspbian/raspbian-tee/raspbian-tee/optee_os/lib/libutee/tee_api.c:113
     ff8:	e8bd 4008 	ldmia.w	sp!, {r3, lr}
/media/wen/My_Passport/Raspbian/raspbian-tee/raspbian-tee/optee_os/lib/libutee/tee_api.c:111
     ffc:	f004 bf52 	b.w	5ea4 <TEE_Panic>
    1000:	bd08      	pop	{r3, pc}

00001002 <TEE_InvokeTACommand>:
TEE_InvokeTACommand():
/media/wen/My_Passport/Raspbian/raspbian-tee/raspbian-tee/optee_os/lib/libutee/tee_api.c:120
    1002:	e92d 41f0 	stmdb	sp!, {r4, r5, r6, r7, r8, lr}
    1006:	4604      	mov	r4, r0
    1008:	460f      	mov	r7, r1
    100a:	b096      	sub	sp, #88	; 0x58
/media/wen/My_Passport/Raspbian/raspbian-tee/raspbian-tee/optee_os/lib/libutee/tee_api.c:125
    100c:	4619      	mov	r1, r3
    100e:	ad04      	add	r5, sp, #16
/media/wen/My_Passport/Raspbian/raspbian-tee/raspbian-tee/optee_os/lib/libutee/tee_api.c:120
    1010:	4690      	mov	r8, r2
/media/wen/My_Passport/Raspbian/raspbian-tee/raspbian-tee/optee_os/lib/libutee/tee_api.c:125
    1012:	4628      	mov	r0, r5
    1014:	9a1c      	ldr	r2, [sp, #112]	; 0x70
/media/wen/My_Passport/Raspbian/raspbian-tee/raspbian-tee/optee_os/lib/libutee/tee_api.c:120
    1016:	9e1d      	ldr	r6, [sp, #116]	; 0x74
/media/wen/My_Passport/Raspbian/raspbian-tee/raspbian-tee/optee_os/lib/libutee/tee_api.c:125
    1018:	f7ff ff7e 	bl	f18 <__utee_from_param>
/media/wen/My_Passport/Raspbian/raspbian-tee/raspbian-tee/optee_os/lib/libutee/tee_api.c:126
    101c:	ab03      	add	r3, sp, #12
    101e:	4642      	mov	r2, r8
    1020:	9300      	str	r3, [sp, #0]
    1022:	4639      	mov	r1, r7
    1024:	462b      	mov	r3, r5
    1026:	4620      	mov	r0, r4
    1028:	f000 ea48 	blx	14bc <utee_invoke_ta_command>
/media/wen/My_Passport/Raspbian/raspbian-tee/raspbian-tee/optee_os/lib/libutee/tee_api.c:129
    102c:	462a      	mov	r2, r5
/media/wen/My_Passport/Raspbian/raspbian-tee/raspbian-tee/optee_os/lib/libutee/tee_api.c:126
    102e:	4604      	mov	r4, r0
/media/wen/My_Passport/Raspbian/raspbian-tee/raspbian-tee/optee_os/lib/libutee/tee_api.c:129
    1030:	2100      	movs	r1, #0
    1032:	981c      	ldr	r0, [sp, #112]	; 0x70
    1034:	f7ff ff99 	bl	f6a <__utee_to_param>
    1038:	9b03      	ldr	r3, [sp, #12]
/media/wen/My_Passport/Raspbian/raspbian-tee/raspbian-tee/optee_os/lib/libutee/tee_api.c:131
    103a:	b106      	cbz	r6, 103e <TEE_InvokeTACommand+0x3c>
/media/wen/My_Passport/Raspbian/raspbian-tee/raspbian-tee/optee_os/lib/libutee/tee_api.c:132
    103c:	6033      	str	r3, [r6, #0]
/media/wen/My_Passport/Raspbian/raspbian-tee/raspbian-tee/optee_os/lib/libutee/tee_api.c:134
    103e:	2b04      	cmp	r3, #4
    1040:	d009      	beq.n	1056 <TEE_InvokeTACommand+0x54>
/media/wen/My_Passport/Raspbian/raspbian-tee/raspbian-tee/optee_os/lib/libutee/tee_api.c:137
    1042:	b144      	cbz	r4, 1056 <TEE_InvokeTACommand+0x54>
/media/wen/My_Passport/Raspbian/raspbian-tee/raspbian-tee/optee_os/lib/libutee/tee_api.c:137 (discriminator 1)
    1044:	4b06      	ldr	r3, [pc, #24]	; (1060 <TEE_InvokeTACommand+0x5e>)
    1046:	429c      	cmp	r4, r3
    1048:	d005      	beq.n	1056 <TEE_InvokeTACommand+0x54>
/media/wen/My_Passport/Raspbian/raspbian-tee/raspbian-tee/optee_os/lib/libutee/tee_api.c:138
    104a:	4b06      	ldr	r3, [pc, #24]	; (1064 <TEE_InvokeTACommand+0x62>)
    104c:	429c      	cmp	r4, r3
    104e:	d002      	beq.n	1056 <TEE_InvokeTACommand+0x54>
/media/wen/My_Passport/Raspbian/raspbian-tee/raspbian-tee/optee_os/lib/libutee/tee_api.c:140
    1050:	4620      	mov	r0, r4
    1052:	f004 ff27 	bl	5ea4 <TEE_Panic>
/media/wen/My_Passport/Raspbian/raspbian-tee/raspbian-tee/optee_os/lib/libutee/tee_api.c:143
    1056:	4620      	mov	r0, r4
    1058:	b016      	add	sp, #88	; 0x58
    105a:	e8bd 81f0 	ldmia.w	sp!, {r4, r5, r6, r7, r8, pc}
    105e:	bf00      	nop
    1060:	ffff000c 	.word	0xffff000c
    1064:	ffff3024 	.word	0xffff3024

00001068 <TEE_GetCancellationFlag>:
TEE_GetCancellationFlag():
/media/wen/My_Passport/Raspbian/raspbian-tee/raspbian-tee/optee_os/lib/libutee/tee_api.c:148
    1068:	b507      	push	{r0, r1, r2, lr}
/media/wen/My_Passport/Raspbian/raspbian-tee/raspbian-tee/optee_os/lib/libutee/tee_api.c:150
    106a:	a801      	add	r0, sp, #4
    106c:	f000 ea32 	blx	14d4 <utee_get_cancellation_flag>
/media/wen/My_Passport/Raspbian/raspbian-tee/raspbian-tee/optee_os/lib/libutee/tee_api.c:152
    1070:	b108      	cbz	r0, 1076 <TEE_GetCancellationFlag+0xe>
/media/wen/My_Passport/Raspbian/raspbian-tee/raspbian-tee/optee_os/lib/libutee/tee_api.c:153
    1072:	2300      	movs	r3, #0
    1074:	9301      	str	r3, [sp, #4]
/media/wen/My_Passport/Raspbian/raspbian-tee/raspbian-tee/optee_os/lib/libutee/tee_api.c:155
    1076:	9801      	ldr	r0, [sp, #4]
    1078:	3000      	adds	r0, #0
    107a:	bf18      	it	ne
    107c:	2001      	movne	r0, #1
    107e:	b003      	add	sp, #12
    1080:	f85d fb04 	ldr.w	pc, [sp], #4

00001084 <TEE_UnmaskCancellation>:
TEE_UnmaskCancellation():
/media/wen/My_Passport/Raspbian/raspbian-tee/raspbian-tee/optee_os/lib/libutee/tee_api.c:158
    1084:	b507      	push	{r0, r1, r2, lr}
/media/wen/My_Passport/Raspbian/raspbian-tee/raspbian-tee/optee_os/lib/libutee/tee_api.c:160
    1086:	a801      	add	r0, sp, #4
    1088:	f000 ea38 	blx	14fc <utee_unmask_cancellation>
/media/wen/My_Passport/Raspbian/raspbian-tee/raspbian-tee/optee_os/lib/libutee/tee_api.c:162
    108c:	b108      	cbz	r0, 1092 <TEE_UnmaskCancellation+0xe>
/media/wen/My_Passport/Raspbian/raspbian-tee/raspbian-tee/optee_os/lib/libutee/tee_api.c:163
    108e:	f004 ff09 	bl	5ea4 <TEE_Panic>
/media/wen/My_Passport/Raspbian/raspbian-tee/raspbian-tee/optee_os/lib/libutee/tee_api.c:165
    1092:	9801      	ldr	r0, [sp, #4]
    1094:	3000      	adds	r0, #0
    1096:	bf18      	it	ne
    1098:	2001      	movne	r0, #1
    109a:	b003      	add	sp, #12
    109c:	f85d fb04 	ldr.w	pc, [sp], #4

000010a0 <TEE_MaskCancellation>:
TEE_MaskCancellation():
/media/wen/My_Passport/Raspbian/raspbian-tee/raspbian-tee/optee_os/lib/libutee/tee_api.c:168
    10a0:	b507      	push	{r0, r1, r2, lr}
/media/wen/My_Passport/Raspbian/raspbian-tee/raspbian-tee/optee_os/lib/libutee/tee_api.c:170
    10a2:	a801      	add	r0, sp, #4
    10a4:	f000 ea34 	blx	1510 <utee_mask_cancellation>
/media/wen/My_Passport/Raspbian/raspbian-tee/raspbian-tee/optee_os/lib/libutee/tee_api.c:172
    10a8:	b108      	cbz	r0, 10ae <TEE_MaskCancellation+0xe>
/media/wen/My_Passport/Raspbian/raspbian-tee/raspbian-tee/optee_os/lib/libutee/tee_api.c:173
    10aa:	f004 fefb 	bl	5ea4 <TEE_Panic>
/media/wen/My_Passport/Raspbian/raspbian-tee/raspbian-tee/optee_os/lib/libutee/tee_api.c:175
    10ae:	9801      	ldr	r0, [sp, #4]
    10b0:	3000      	adds	r0, #0
    10b2:	bf18      	it	ne
    10b4:	2001      	movne	r0, #1
    10b6:	b003      	add	sp, #12
    10b8:	f85d fb04 	ldr.w	pc, [sp], #4

000010bc <TEE_CheckMemoryAccessRights>:
TEE_CheckMemoryAccessRights():
/media/wen/My_Passport/Raspbian/raspbian-tee/raspbian-tee/optee_os/lib/libutee/tee_api.c:184
    10bc:	b10a      	cbz	r2, 10c2 <TEE_CheckMemoryAccessRights+0x6>
/media/wen/My_Passport/Raspbian/raspbian-tee/raspbian-tee/optee_os/lib/libutee/tee_api.c:188
    10be:	f004 bf3b 	b.w	5f38 <__utee_check_access_rights_from_thumb>
/media/wen/My_Passport/Raspbian/raspbian-tee/raspbian-tee/optee_os/lib/libutee/tee_api.c:200
    10c2:	4610      	mov	r0, r2
    10c4:	4770      	bx	lr

000010c6 <TEE_SetInstanceData>:
TEE_SetInstanceData():
/media/wen/My_Passport/Raspbian/raspbian-tee/raspbian-tee/optee_os/lib/libutee/tee_api.c:204
    10c6:	4b02      	ldr	r3, [pc, #8]	; (10d0 <TEE_SetInstanceData+0xa>)
    10c8:	447b      	add	r3, pc
    10ca:	6018      	str	r0, [r3, #0]
    10cc:	4770      	bx	lr
    10ce:	bf00      	nop
    10d0:	00006fc4 	.word	0x00006fc4

000010d4 <TEE_GetInstanceData>:
TEE_GetInstanceData():
/media/wen/My_Passport/Raspbian/raspbian-tee/raspbian-tee/optee_os/lib/libutee/tee_api.c:210
    10d4:	4b01      	ldr	r3, [pc, #4]	; (10dc <TEE_GetInstanceData+0x8>)
    10d6:	447b      	add	r3, pc
    10d8:	6818      	ldr	r0, [r3, #0]
    10da:	4770      	bx	lr
    10dc:	00006fb6 	.word	0x00006fb6

000010e0 <TEE_MemMove>:
TEE_MemMove():
/media/wen/My_Passport/Raspbian/raspbian-tee/raspbian-tee/optee_os/lib/libutee/tee_api.c:214
    10e0:	f004 bf07 	b.w	5ef2 <memmove>

000010e4 <TEE_MemCompare>:
TEE_MemCompare():
/media/wen/My_Passport/Raspbian/raspbian-tee/raspbian-tee/optee_os/lib/libutee/tee_api.c:219
    10e4:	f004 bef6 	b.w	5ed4 <memcmp>

000010e8 <TEE_MemFill>:
TEE_MemFill():
/media/wen/My_Passport/Raspbian/raspbian-tee/raspbian-tee/optee_os/lib/libutee/tee_api.c:224
    10e8:	f004 be0b 	b.w	5d02 <memset>

000010ec <TEE_GetSystemTime>:
TEE_GetSystemTime():
/media/wen/My_Passport/Raspbian/raspbian-tee/raspbian-tee/optee_os/lib/libutee/tee_api.c:230
    10ec:	b508      	push	{r3, lr}
/media/wen/My_Passport/Raspbian/raspbian-tee/raspbian-tee/optee_os/lib/libutee/tee_api.c:231
    10ee:	4601      	mov	r1, r0
    10f0:	2000      	movs	r0, #0
    10f2:	f000 ea22 	blx	1538 <utee_get_time>
/media/wen/My_Passport/Raspbian/raspbian-tee/raspbian-tee/optee_os/lib/libutee/tee_api.c:233
    10f6:	b118      	cbz	r0, 1100 <TEE_GetSystemTime+0x14>
/media/wen/My_Passport/Raspbian/raspbian-tee/raspbian-tee/optee_os/lib/libutee/tee_api.c:235
    10f8:	e8bd 4008 	ldmia.w	sp!, {r3, lr}
/media/wen/My_Passport/Raspbian/raspbian-tee/raspbian-tee/optee_os/lib/libutee/tee_api.c:234
    10fc:	f004 bed2 	b.w	5ea4 <TEE_Panic>
    1100:	bd08      	pop	{r3, pc}

00001102 <TEE_Wait>:
TEE_Wait():
/media/wen/My_Passport/Raspbian/raspbian-tee/raspbian-tee/optee_os/lib/libutee/tee_api.c:238
    1102:	b510      	push	{r4, lr}
/media/wen/My_Passport/Raspbian/raspbian-tee/raspbian-tee/optee_os/lib/libutee/tee_api.c:239
    1104:	f000 ea0e 	blx	1524 <utee_wait>
/media/wen/My_Passport/Raspbian/raspbian-tee/raspbian-tee/optee_os/lib/libutee/tee_api.c:241
    1108:	4604      	mov	r4, r0
    110a:	b120      	cbz	r0, 1116 <TEE_Wait+0x14>
/media/wen/My_Passport/Raspbian/raspbian-tee/raspbian-tee/optee_os/lib/libutee/tee_api.c:241 (discriminator 1)
    110c:	4b03      	ldr	r3, [pc, #12]	; (111c <TEE_Wait+0x1a>)
    110e:	4298      	cmp	r0, r3
    1110:	d001      	beq.n	1116 <TEE_Wait+0x14>
/media/wen/My_Passport/Raspbian/raspbian-tee/raspbian-tee/optee_os/lib/libutee/tee_api.c:242
    1112:	f004 fec7 	bl	5ea4 <TEE_Panic>
/media/wen/My_Passport/Raspbian/raspbian-tee/raspbian-tee/optee_os/lib/libutee/tee_api.c:245
    1116:	4620      	mov	r0, r4
    1118:	bd10      	pop	{r4, pc}
    111a:	bf00      	nop
    111c:	ffff0002 	.word	0xffff0002

00001120 <TEE_GetTAPersistentTime>:
TEE_GetTAPersistentTime():
/media/wen/My_Passport/Raspbian/raspbian-tee/raspbian-tee/optee_os/lib/libutee/tee_api.c:248
    1120:	b538      	push	{r3, r4, r5, lr}
/media/wen/My_Passport/Raspbian/raspbian-tee/raspbian-tee/optee_os/lib/libutee/tee_api.c:251
    1122:	4601      	mov	r1, r0
/media/wen/My_Passport/Raspbian/raspbian-tee/raspbian-tee/optee_os/lib/libutee/tee_api.c:248
    1124:	4605      	mov	r5, r0
/media/wen/My_Passport/Raspbian/raspbian-tee/raspbian-tee/optee_os/lib/libutee/tee_api.c:251
    1126:	2001      	movs	r0, #1
    1128:	f000 ea06 	blx	1538 <utee_get_time>
/media/wen/My_Passport/Raspbian/raspbian-tee/raspbian-tee/optee_os/lib/libutee/tee_api.c:253
    112c:	4604      	mov	r4, r0
    112e:	b170      	cbz	r0, 114e <TEE_GetTAPersistentTime+0x2e>
/media/wen/My_Passport/Raspbian/raspbian-tee/raspbian-tee/optee_os/lib/libutee/tee_api.c:253 (discriminator 1)
    1130:	4b08      	ldr	r3, [pc, #32]	; (1154 <TEE_GetTAPersistentTime+0x34>)
    1132:	4298      	cmp	r0, r3
    1134:	d00b      	beq.n	114e <TEE_GetTAPersistentTime+0x2e>
/media/wen/My_Passport/Raspbian/raspbian-tee/raspbian-tee/optee_os/lib/libutee/tee_api.c:254
    1136:	2300      	movs	r3, #0
    1138:	602b      	str	r3, [r5, #0]
/media/wen/My_Passport/Raspbian/raspbian-tee/raspbian-tee/optee_os/lib/libutee/tee_api.c:255
    113a:	606b      	str	r3, [r5, #4]
/media/wen/My_Passport/Raspbian/raspbian-tee/raspbian-tee/optee_os/lib/libutee/tee_api.c:258
    113c:	f500 4330 	add.w	r3, r0, #45056	; 0xb000
    1140:	2b01      	cmp	r3, #1
    1142:	d904      	bls.n	114e <TEE_GetTAPersistentTime+0x2e>
/media/wen/My_Passport/Raspbian/raspbian-tee/raspbian-tee/optee_os/lib/libutee/tee_api.c:261
    1144:	4b04      	ldr	r3, [pc, #16]	; (1158 <TEE_GetTAPersistentTime+0x38>)
    1146:	4298      	cmp	r0, r3
    1148:	d001      	beq.n	114e <TEE_GetTAPersistentTime+0x2e>
/media/wen/My_Passport/Raspbian/raspbian-tee/raspbian-tee/optee_os/lib/libutee/tee_api.c:263
    114a:	f004 feab 	bl	5ea4 <TEE_Panic>
/media/wen/My_Passport/Raspbian/raspbian-tee/raspbian-tee/optee_os/lib/libutee/tee_api.c:266
    114e:	4620      	mov	r0, r4
    1150:	bd38      	pop	{r3, r4, r5, pc}
    1152:	bf00      	nop
    1154:	ffff300f 	.word	0xffff300f
    1158:	ffff000c 	.word	0xffff000c

0000115c <TEE_SetTAPersistentTime>:
TEE_SetTAPersistentTime():
/media/wen/My_Passport/Raspbian/raspbian-tee/raspbian-tee/optee_os/lib/libutee/tee_api.c:269
    115c:	b510      	push	{r4, lr}
/media/wen/My_Passport/Raspbian/raspbian-tee/raspbian-tee/optee_os/lib/libutee/tee_api.c:272
    115e:	f000 e9f6 	blx	154c <utee_set_ta_time>
/media/wen/My_Passport/Raspbian/raspbian-tee/raspbian-tee/optee_os/lib/libutee/tee_api.c:274
    1162:	4604      	mov	r4, r0
    1164:	b138      	cbz	r0, 1176 <TEE_SetTAPersistentTime+0x1a>
/media/wen/My_Passport/Raspbian/raspbian-tee/raspbian-tee/optee_os/lib/libutee/tee_api.c:274 (discriminator 1)
    1166:	4b05      	ldr	r3, [pc, #20]	; (117c <TEE_SetTAPersistentTime+0x20>)
    1168:	4298      	cmp	r0, r3
    116a:	d004      	beq.n	1176 <TEE_SetTAPersistentTime+0x1a>
/media/wen/My_Passport/Raspbian/raspbian-tee/raspbian-tee/optee_os/lib/libutee/tee_api.c:275
    116c:	4b04      	ldr	r3, [pc, #16]	; (1180 <TEE_SetTAPersistentTime+0x24>)
    116e:	4298      	cmp	r0, r3
    1170:	d001      	beq.n	1176 <TEE_SetTAPersistentTime+0x1a>
/media/wen/My_Passport/Raspbian/raspbian-tee/raspbian-tee/optee_os/lib/libutee/tee_api.c:277
    1172:	f004 fe97 	bl	5ea4 <TEE_Panic>
/media/wen/My_Passport/Raspbian/raspbian-tee/raspbian-tee/optee_os/lib/libutee/tee_api.c:280
    1176:	4620      	mov	r0, r4
    1178:	bd10      	pop	{r4, pc}
    117a:	bf00      	nop
    117c:	ffff000c 	.word	0xffff000c
    1180:	ffff3041 	.word	0xffff3041

00001184 <TEE_GetREETime>:
TEE_GetREETime():
/media/wen/My_Passport/Raspbian/raspbian-tee/raspbian-tee/optee_os/lib/libutee/tee_api.c:283
    1184:	b508      	push	{r3, lr}
/media/wen/My_Passport/Raspbian/raspbian-tee/raspbian-tee/optee_os/lib/libutee/tee_api.c:284
    1186:	4601      	mov	r1, r0
    1188:	2002      	movs	r0, #2
    118a:	f000 e9d6 	blx	1538 <utee_get_time>
/media/wen/My_Passport/Raspbian/raspbian-tee/raspbian-tee/optee_os/lib/libutee/tee_api.c:286
    118e:	b118      	cbz	r0, 1198 <TEE_GetREETime+0x14>
/media/wen/My_Passport/Raspbian/raspbian-tee/raspbian-tee/optee_os/lib/libutee/tee_api.c:288
    1190:	e8bd 4008 	ldmia.w	sp!, {r3, lr}
/media/wen/My_Passport/Raspbian/raspbian-tee/raspbian-tee/optee_os/lib/libutee/tee_api.c:287
    1194:	f004 be86 	b.w	5ea4 <TEE_Panic>
    1198:	bd08      	pop	{r3, pc}

0000119a <TEE_Malloc>:
TEE_Malloc():
/media/wen/My_Passport/Raspbian/raspbian-tee/raspbian-tee/optee_os/lib/libutee/tee_api.c:291
    119a:	b507      	push	{r0, r1, r2, lr}
/media/wen/My_Passport/Raspbian/raspbian-tee/raspbian-tee/optee_os/lib/libutee/tee_api.c:292
    119c:	b931      	cbnz	r1, 11ac <TEE_Malloc+0x12>
/media/wen/My_Passport/Raspbian/raspbian-tee/raspbian-tee/optee_os/lib/libutee/tee_api.c:293
    119e:	4601      	mov	r1, r0
    11a0:	2001      	movs	r0, #1
/media/wen/My_Passport/Raspbian/raspbian-tee/raspbian-tee/optee_os/lib/libutee/tee_api.c:300
    11a2:	b003      	add	sp, #12
    11a4:	f85d eb04 	ldr.w	lr, [sp], #4
/media/wen/My_Passport/Raspbian/raspbian-tee/raspbian-tee/optee_os/lib/libutee/tee_api.c:293
    11a8:	f004 ba6a 	b.w	5680 <calloc>
/media/wen/My_Passport/Raspbian/raspbian-tee/raspbian-tee/optee_os/lib/libutee/tee_api.c:294
    11ac:	f1b1 4f00 	cmp.w	r1, #2147483648	; 0x80000000
    11b0:	d104      	bne.n	11bc <TEE_Malloc+0x22>
/media/wen/My_Passport/Raspbian/raspbian-tee/raspbian-tee/optee_os/lib/libutee/tee_api.c:300
    11b2:	b003      	add	sp, #12
    11b4:	f85d eb04 	ldr.w	lr, [sp], #4
/media/wen/My_Passport/Raspbian/raspbian-tee/raspbian-tee/optee_os/lib/libutee/tee_api.c:295
    11b8:	f004 ba58 	b.w	566c <malloc>
/media/wen/My_Passport/Raspbian/raspbian-tee/raspbian-tee/optee_os/lib/libutee/tee_api.c:297
    11bc:	4b07      	ldr	r3, [pc, #28]	; (11dc <TEE_Malloc+0x42>)
    11be:	4808      	ldr	r0, [pc, #32]	; (11e0 <TEE_Malloc+0x46>)
    11c0:	447b      	add	r3, pc
    11c2:	9101      	str	r1, [sp, #4]
    11c4:	9300      	str	r3, [sp, #0]
    11c6:	2301      	movs	r3, #1
    11c8:	461a      	mov	r2, r3
    11ca:	f240 1129 	movw	r1, #297	; 0x129
    11ce:	4478      	add	r0, pc
    11d0:	f7ff f9ec 	bl	5ac <trace_printf>
/media/wen/My_Passport/Raspbian/raspbian-tee/raspbian-tee/optee_os/lib/libutee/tee_api.c:300
    11d4:	2000      	movs	r0, #0
    11d6:	b003      	add	sp, #12
    11d8:	f85d fb04 	ldr.w	pc, [sp], #4
    11dc:	0000523e 	.word	0x0000523e
    11e0:	00005225 	.word	0x00005225

000011e4 <TEE_Realloc>:
TEE_Realloc():
/media/wen/My_Passport/Raspbian/raspbian-tee/raspbian-tee/optee_os/lib/libutee/tee_api.c:304
    11e4:	f004 ba70 	b.w	56c8 <realloc>

000011e8 <TEE_Free>:
TEE_Free():
/media/wen/My_Passport/Raspbian/raspbian-tee/raspbian-tee/optee_os/lib/libutee/tee_api.c:309
    11e8:	f004 ba41 	b.w	566e <free>

000011ec <TEE_CacheClean>:
TEE_CacheClean():
/media/wen/My_Passport/Raspbian/raspbian-tee/raspbian-tee/optee_os/lib/libutee/tee_api.c:315
    11ec:	2200      	movs	r2, #0
    11ee:	f004 be9b 	b.w	5f28 <__utee_cache_operation_from_thumb>

000011f2 <TEE_CacheFlush>:
TEE_CacheFlush():
/media/wen/My_Passport/Raspbian/raspbian-tee/raspbian-tee/optee_os/lib/libutee/tee_api.c:319
    11f2:	2201      	movs	r2, #1
    11f4:	f004 be98 	b.w	5f28 <__utee_cache_operation_from_thumb>

000011f8 <TEE_CacheInvalidate>:
TEE_CacheInvalidate():
/media/wen/My_Passport/Raspbian/raspbian-tee/raspbian-tee/optee_os/lib/libutee/tee_api.c:324
    11f8:	2202      	movs	r2, #2
    11fa:	f004 be95 	b.w	5f28 <__utee_cache_operation_from_thumb>
    11fe:	bf00      	nop

00001200 <ta_header_get_session>:
ta_header_get_session():
/media/wen/My_Passport/Raspbian/raspbian-tee/raspbian-tee/optee_os/lib/libutee/arch/arm/user_ta_entry.c:81
    1200:	4b05      	ldr	r3, [pc, #20]	; (1218 <ta_header_get_session+0x18>)
    1202:	447b      	add	r3, pc
    1204:	681b      	ldr	r3, [r3, #0]
/media/wen/My_Passport/Raspbian/raspbian-tee/raspbian-tee/optee_os/lib/libutee/arch/arm/user_ta_entry.c:81 (discriminator 1)
    1206:	b90b      	cbnz	r3, 120c <ta_header_get_session+0xc>
/media/wen/My_Passport/Raspbian/raspbian-tee/raspbian-tee/optee_os/lib/libutee/arch/arm/user_ta_entry.c:86
    1208:	4618      	mov	r0, r3
    120a:	4770      	bx	lr
/media/wen/My_Passport/Raspbian/raspbian-tee/raspbian-tee/optee_os/lib/libutee/arch/arm/user_ta_entry.c:82
    120c:	681a      	ldr	r2, [r3, #0]
    120e:	4282      	cmp	r2, r0
    1210:	d0fa      	beq.n	1208 <ta_header_get_session+0x8>
/media/wen/My_Passport/Raspbian/raspbian-tee/raspbian-tee/optee_os/lib/libutee/arch/arm/user_ta_entry.c:81 (discriminator 2)
    1212:	689b      	ldr	r3, [r3, #8]
    1214:	e7f7      	b.n	1206 <ta_header_get_session+0x6>
    1216:	bf00      	nop
    1218:	00006e66 	.word	0x00006e66

0000121c <ta_header_remove_session>:
ta_header_remove_session():
/media/wen/My_Passport/Raspbian/raspbian-tee/raspbian-tee/optee_os/lib/libutee/arch/arm/user_ta_entry.c:119
    121c:	4b14      	ldr	r3, [pc, #80]	; (1270 <ta_header_remove_session+0x54>)
/media/wen/My_Passport/Raspbian/raspbian-tee/raspbian-tee/optee_os/lib/libutee/arch/arm/user_ta_entry.c:115
    121e:	b510      	push	{r4, lr}
/media/wen/My_Passport/Raspbian/raspbian-tee/raspbian-tee/optee_os/lib/libutee/arch/arm/user_ta_entry.c:119
    1220:	447b      	add	r3, pc
/media/wen/My_Passport/Raspbian/raspbian-tee/raspbian-tee/optee_os/lib/libutee/arch/arm/user_ta_entry.c:115
    1222:	4c14      	ldr	r4, [pc, #80]	; (1274 <ta_header_remove_session+0x58>)
/media/wen/My_Passport/Raspbian/raspbian-tee/raspbian-tee/optee_os/lib/libutee/arch/arm/user_ta_entry.c:119
    1224:	681b      	ldr	r3, [r3, #0]
/media/wen/My_Passport/Raspbian/raspbian-tee/raspbian-tee/optee_os/lib/libutee/arch/arm/user_ta_entry.c:115
    1226:	447c      	add	r4, pc
/media/wen/My_Passport/Raspbian/raspbian-tee/raspbian-tee/optee_os/lib/libutee/arch/arm/user_ta_entry.c:119 (discriminator 1)
    1228:	b903      	cbnz	r3, 122c <ta_header_remove_session+0x10>
    122a:	bd10      	pop	{r4, pc}
/media/wen/My_Passport/Raspbian/raspbian-tee/raspbian-tee/optee_os/lib/libutee/arch/arm/user_ta_entry.c:120
    122c:	681a      	ldr	r2, [r3, #0]
    122e:	4282      	cmp	r2, r0
    1230:	689a      	ldr	r2, [r3, #8]
    1232:	d11b      	bne.n	126c <ta_header_remove_session+0x50>
    1234:	68d9      	ldr	r1, [r3, #12]
/media/wen/My_Passport/Raspbian/raspbian-tee/raspbian-tee/optee_os/lib/libutee/arch/arm/user_ta_entry.c:121
    1236:	b1aa      	cbz	r2, 1264 <ta_header_remove_session+0x48>
/media/wen/My_Passport/Raspbian/raspbian-tee/raspbian-tee/optee_os/lib/libutee/arch/arm/user_ta_entry.c:121 (discriminator 1)
    1238:	60d1      	str	r1, [r2, #12]
/media/wen/My_Passport/Raspbian/raspbian-tee/raspbian-tee/optee_os/lib/libutee/arch/arm/user_ta_entry.c:121 (discriminator 4)
    123a:	68d9      	ldr	r1, [r3, #12]
/media/wen/My_Passport/Raspbian/raspbian-tee/raspbian-tee/optee_os/lib/libutee/arch/arm/user_ta_entry.c:122 (discriminator 4)
    123c:	4618      	mov	r0, r3
/media/wen/My_Passport/Raspbian/raspbian-tee/raspbian-tee/optee_os/lib/libutee/arch/arm/user_ta_entry.c:121 (discriminator 4)
    123e:	600a      	str	r2, [r1, #0]
/media/wen/My_Passport/Raspbian/raspbian-tee/raspbian-tee/optee_os/lib/libutee/arch/arm/user_ta_entry.c:122 (discriminator 4)
    1240:	f7ff ffd2 	bl	11e8 <TEE_Free>
/media/wen/My_Passport/Raspbian/raspbian-tee/raspbian-tee/optee_os/lib/libutee/arch/arm/user_ta_entry.c:127 (discriminator 4)
    1244:	4b0c      	ldr	r3, [pc, #48]	; (1278 <ta_header_remove_session+0x5c>)
    1246:	447b      	add	r3, pc
    1248:	681b      	ldr	r3, [r3, #0]
    124a:	2b00      	cmp	r3, #0
    124c:	d1ed      	bne.n	122a <ta_header_remove_session+0xe>
/media/wen/My_Passport/Raspbian/raspbian-tee/raspbian-tee/optee_os/lib/libutee/arch/arm/user_ta_entry.c:125 (discriminator 1)
    124e:	4b0b      	ldr	r3, [pc, #44]	; (127c <ta_header_remove_session+0x60>)
    1250:	58e3      	ldr	r3, [r4, r3]
    1252:	695b      	ldr	r3, [r3, #20]
    1254:	f003 0314 	and.w	r3, r3, #20
/media/wen/My_Passport/Raspbian/raspbian-tee/raspbian-tee/optee_os/lib/libutee/arch/arm/user_ta_entry.c:127 (discriminator 1)
    1258:	2b14      	cmp	r3, #20
    125a:	d0e6      	beq.n	122a <ta_header_remove_session+0xe>
/media/wen/My_Passport/Raspbian/raspbian-tee/raspbian-tee/optee_os/lib/libutee/arch/arm/user_ta_entry.c:133
    125c:	e8bd 4010 	ldmia.w	sp!, {r4, lr}
uninit_instance():
/media/wen/My_Passport/Raspbian/raspbian-tee/raspbian-tee/optee_os/lib/libutee/arch/arm/user_ta_entry.c:63
    1260:	f7ff b8d2 	b.w	408 <TA_DestroyEntryPoint>
ta_header_remove_session():
/media/wen/My_Passport/Raspbian/raspbian-tee/raspbian-tee/optee_os/lib/libutee/arch/arm/user_ta_entry.c:121 (discriminator 2)
    1264:	4806      	ldr	r0, [pc, #24]	; (1280 <ta_header_remove_session+0x64>)
    1266:	4478      	add	r0, pc
    1268:	6041      	str	r1, [r0, #4]
    126a:	e7e6      	b.n	123a <ta_header_remove_session+0x1e>
/media/wen/My_Passport/Raspbian/raspbian-tee/raspbian-tee/optee_os/lib/libutee/arch/arm/user_ta_entry.c:119 (discriminator 2)
    126c:	4613      	mov	r3, r2
    126e:	e7db      	b.n	1228 <ta_header_remove_session+0xc>
    1270:	00006e48 	.word	0x00006e48
    1274:	00006326 	.word	0x00006326
    1278:	00006e22 	.word	0x00006e22
    127c:	0000002c 	.word	0x0000002c
    1280:	00006e02 	.word	0x00006e02

00001284 <__utee_entry>:
__utee_entry():
/media/wen/My_Passport/Raspbian/raspbian-tee/raspbian-tee/optee_os/lib/libutee/arch/arm/user_ta_entry.c:200
    1284:	b580      	push	{r7, lr}
    1286:	4616      	mov	r6, r2
    1288:	4c5a      	ldr	r4, [pc, #360]	; (13f4 <__utee_entry+0x170>)
    128a:	b08c      	sub	sp, #48	; 0x30
    128c:	460f      	mov	r7, r1
    128e:	447c      	add	r4, pc
    1290:	4698      	mov	r8, r3
/media/wen/My_Passport/Raspbian/raspbian-tee/raspbian-tee/optee_os/lib/libutee/arch/arm/user_ta_entry.c:211
    1292:	2801      	cmp	r0, #1
    1294:	d074      	beq.n	1380 <__utee_entry+0xfc>
    1296:	d307      	bcc.n	12a8 <__utee_entry+0x24>
    1298:	2802      	cmp	r0, #2
    129a:	d07e      	beq.n	139a <__utee_entry+0x116>
/media/wen/My_Passport/Raspbian/raspbian-tee/raspbian-tee/optee_os/lib/libutee/arch/arm/user_ta_entry.c:223
    129c:	2000      	movs	r0, #0
/media/wen/My_Passport/Raspbian/raspbian-tee/raspbian-tee/optee_os/lib/libutee/arch/arm/user_ta_entry.c:222
    129e:	f04f 34ff 	mov.w	r4, #4294967295
/media/wen/My_Passport/Raspbian/raspbian-tee/raspbian-tee/optee_os/lib/libutee/arch/arm/user_ta_entry.c:223
    12a2:	f004 fdff 	bl	5ea4 <TEE_Panic>
/media/wen/My_Passport/Raspbian/raspbian-tee/raspbian-tee/optee_os/lib/libutee/arch/arm/user_ta_entry.c:224
    12a6:	e026      	b.n	12f6 <__utee_entry+0x72>
ta_header_add_session():
/media/wen/My_Passport/Raspbian/raspbian-tee/raspbian-tee/optee_os/lib/libutee/arch/arm/user_ta_entry.c:90
    12a8:	4608      	mov	r0, r1
    12aa:	f7ff ffa9 	bl	1200 <ta_header_get_session>
/media/wen/My_Passport/Raspbian/raspbian-tee/raspbian-tee/optee_os/lib/libutee/arch/arm/user_ta_entry.c:93
    12ae:	2800      	cmp	r0, #0
    12b0:	d138      	bne.n	1324 <__utee_entry+0xa0>
/media/wen/My_Passport/Raspbian/raspbian-tee/raspbian-tee/optee_os/lib/libutee/arch/arm/user_ta_entry.c:96
    12b2:	4b51      	ldr	r3, [pc, #324]	; (13f8 <__utee_entry+0x174>)
    12b4:	447b      	add	r3, pc
    12b6:	781a      	ldrb	r2, [r3, #0]
    12b8:	b13a      	cbz	r2, 12ca <__utee_entry+0x46>
/media/wen/My_Passport/Raspbian/raspbian-tee/raspbian-tee/optee_os/lib/libutee/arch/arm/user_ta_entry.c:103
    12ba:	f04f 4100 	mov.w	r1, #2147483648	; 0x80000000
    12be:	2010      	movs	r0, #16
    12c0:	f7ff ff6b 	bl	119a <TEE_Malloc>
/media/wen/My_Passport/Raspbian/raspbian-tee/raspbian-tee/optee_os/lib/libutee/arch/arm/user_ta_entry.c:105
    12c4:	bb18      	cbnz	r0, 130e <__utee_entry+0x8a>
/media/wen/My_Passport/Raspbian/raspbian-tee/raspbian-tee/optee_os/lib/libutee/arch/arm/user_ta_entry.c:106
    12c6:	4c49      	ldr	r4, [pc, #292]	; (13ec <__utee_entry+0x168>)
    12c8:	e015      	b.n	12f6 <__utee_entry+0x72>
/media/wen/My_Passport/Raspbian/raspbian-tee/raspbian-tee/optee_os/lib/libutee/arch/arm/user_ta_entry.c:97
    12ca:	2201      	movs	r2, #1
    12cc:	701a      	strb	r2, [r3, #0]
init_instance():
/media/wen/My_Passport/Raspbian/raspbian-tee/raspbian-tee/optee_os/lib/libutee/arch/arm/user_ta_entry.c:53
    12ce:	f004 fd0b 	bl	5ce8 <tahead_get_trace_level>
    12d2:	f7ff f951 	bl	578 <trace_set_level>
/media/wen/My_Passport/Raspbian/raspbian-tee/raspbian-tee/optee_os/lib/libutee/arch/arm/user_ta_entry.c:55
    12d6:	4b49      	ldr	r3, [pc, #292]	; (13fc <__utee_entry+0x178>)
    12d8:	4a49      	ldr	r2, [pc, #292]	; (1400 <__utee_entry+0x17c>)
    12da:	58e3      	ldr	r3, [r4, r3]
    12dc:	58a2      	ldr	r2, [r4, r2]
    12de:	4610      	mov	r0, r2
    12e0:	9201      	str	r2, [sp, #4]
    12e2:	6819      	ldr	r1, [r3, #0]
    12e4:	f004 fb6a 	bl	59bc <malloc_add_pool>
/media/wen/My_Passport/Raspbian/raspbian-tee/raspbian-tee/optee_os/lib/libutee/arch/arm/user_ta_entry.c:56
    12e8:	f000 fdc8 	bl	1e7c <_TEE_MathAPI_Init>
/media/wen/My_Passport/Raspbian/raspbian-tee/raspbian-tee/optee_os/lib/libutee/arch/arm/user_ta_entry.c:57
    12ec:	f7ff f88a 	bl	404 <TA_CreateEntryPoint>
ta_header_add_session():
/media/wen/My_Passport/Raspbian/raspbian-tee/raspbian-tee/optee_os/lib/libutee/arch/arm/user_ta_entry.c:99
    12f0:	4604      	mov	r4, r0
    12f2:	2800      	cmp	r0, #0
    12f4:	d0e1      	beq.n	12ba <__utee_entry+0x36>
ta_header_save_params():
/media/wen/My_Passport/Raspbian/raspbian-tee/raspbian-tee/optee_os/lib/libutee/arch/arm/user_ta_entry.c:69
    12f6:	4843      	ldr	r0, [pc, #268]	; (1404 <__utee_entry+0x180>)
    12f8:	2100      	movs	r1, #0
/media/wen/My_Passport/Raspbian/raspbian-tee/raspbian-tee/optee_os/lib/libutee/arch/arm/user_ta_entry.c:74
    12fa:	2220      	movs	r2, #32
/media/wen/My_Passport/Raspbian/raspbian-tee/raspbian-tee/optee_os/lib/libutee/arch/arm/user_ta_entry.c:69
    12fc:	4478      	add	r0, pc
/media/wen/My_Passport/Raspbian/raspbian-tee/raspbian-tee/optee_os/lib/libutee/arch/arm/user_ta_entry.c:74
    12fe:	3008      	adds	r0, #8
/media/wen/My_Passport/Raspbian/raspbian-tee/raspbian-tee/optee_os/lib/libutee/arch/arm/user_ta_entry.c:69
    1300:	f840 1c04 	str.w	r1, [r0, #-4]
/media/wen/My_Passport/Raspbian/raspbian-tee/raspbian-tee/optee_os/lib/libutee/arch/arm/user_ta_entry.c:74
    1304:	f004 fcfd 	bl	5d02 <memset>
__utee_entry():
/media/wen/My_Passport/Raspbian/raspbian-tee/raspbian-tee/optee_os/lib/libutee/arch/arm/user_ta_entry.c:227
    1308:	4620      	mov	r0, r4
    130a:	f000 e88e 	blx	1428 <utee_return>
ta_header_add_session():
/media/wen/My_Passport/Raspbian/raspbian-tee/raspbian-tee/optee_os/lib/libutee/arch/arm/user_ta_entry.c:108
    130e:	2300      	movs	r3, #0
/media/wen/My_Passport/Raspbian/raspbian-tee/raspbian-tee/optee_os/lib/libutee/arch/arm/user_ta_entry.c:107
    1310:	6007      	str	r7, [r0, #0]
/media/wen/My_Passport/Raspbian/raspbian-tee/raspbian-tee/optee_os/lib/libutee/arch/arm/user_ta_entry.c:108
    1312:	6043      	str	r3, [r0, #4]
/media/wen/My_Passport/Raspbian/raspbian-tee/raspbian-tee/optee_os/lib/libutee/arch/arm/user_ta_entry.c:109
    1314:	6083      	str	r3, [r0, #8]
    1316:	4b3c      	ldr	r3, [pc, #240]	; (1408 <__utee_entry+0x184>)
    1318:	447b      	add	r3, pc
    131a:	685a      	ldr	r2, [r3, #4]
    131c:	60c2      	str	r2, [r0, #12]
    131e:	6010      	str	r0, [r2, #0]
    1320:	3008      	adds	r0, #8
    1322:	6058      	str	r0, [r3, #4]
entry_open_session():
/media/wen/My_Passport/Raspbian/raspbian-tee/raspbian-tee/optee_os/lib/libutee/arch/arm/user_ta_entry.c:147
    1324:	4638      	mov	r0, r7
    1326:	f7ff ff6b 	bl	1200 <ta_header_get_session>
/media/wen/My_Passport/Raspbian/raspbian-tee/raspbian-tee/optee_os/lib/libutee/arch/arm/user_ta_entry.c:148
    132a:	4681      	mov	r9, r0
    132c:	b908      	cbnz	r0, 1332 <__utee_entry+0xae>
entry_close_session():
/media/wen/My_Passport/Raspbian/raspbian-tee/raspbian-tee/optee_os/lib/libutee/arch/arm/user_ta_entry.c:169
    132e:	4c30      	ldr	r4, [pc, #192]	; (13f0 <__utee_entry+0x16c>)
    1330:	e7e1      	b.n	12f6 <__utee_entry+0x72>
entry_open_session():
/media/wen/My_Passport/Raspbian/raspbian-tee/raspbian-tee/optee_os/lib/libutee/arch/arm/user_ta_entry.c:151
    1332:	f10d 0810 	add.w	r8, sp, #16
ta_header_save_params():
/media/wen/My_Passport/Raspbian/raspbian-tee/raspbian-tee/optee_os/lib/libutee/arch/arm/user_ta_entry.c:69
    1336:	4c35      	ldr	r4, [pc, #212]	; (140c <__utee_entry+0x188>)
/media/wen/My_Passport/Raspbian/raspbian-tee/raspbian-tee/optee_os/lib/libutee/arch/arm/user_ta_entry.c:72
    1338:	4645      	mov	r5, r8
entry_open_session():
/media/wen/My_Passport/Raspbian/raspbian-tee/raspbian-tee/optee_os/lib/libutee/arch/arm/user_ta_entry.c:151
    133a:	4632      	mov	r2, r6
    133c:	a903      	add	r1, sp, #12
    133e:	4640      	mov	r0, r8
    1340:	f7ff fe13 	bl	f6a <__utee_to_param>
ta_header_save_params():
/media/wen/My_Passport/Raspbian/raspbian-tee/raspbian-tee/optee_os/lib/libutee/arch/arm/user_ta_entry.c:69
    1344:	447c      	add	r4, pc
/media/wen/My_Passport/Raspbian/raspbian-tee/raspbian-tee/optee_os/lib/libutee/arch/arm/user_ta_entry.c:72
    1346:	cd0f      	ldmia	r5!, {r0, r1, r2, r3}
    1348:	3408      	adds	r4, #8
entry_open_session():
/media/wen/My_Passport/Raspbian/raspbian-tee/raspbian-tee/optee_os/lib/libutee/arch/arm/user_ta_entry.c:152
    134a:	f8dd e00c 	ldr.w	lr, [sp, #12]
ta_header_save_params():
/media/wen/My_Passport/Raspbian/raspbian-tee/raspbian-tee/optee_os/lib/libutee/arch/arm/user_ta_entry.c:69
    134e:	f844 ec04 	str.w	lr, [r4, #-4]
/media/wen/My_Passport/Raspbian/raspbian-tee/raspbian-tee/optee_os/lib/libutee/arch/arm/user_ta_entry.c:72
    1352:	c40f      	stmia	r4!, {r0, r1, r2, r3}
    1354:	e895 000f 	ldmia.w	r5, {r0, r1, r2, r3}
    1358:	e884 000f 	stmia.w	r4, {r0, r1, r2, r3}
entry_open_session():
/media/wen/My_Passport/Raspbian/raspbian-tee/raspbian-tee/optee_os/lib/libutee/arch/arm/user_ta_entry.c:154
    135c:	f109 0204 	add.w	r2, r9, #4
    1360:	4641      	mov	r1, r8
    1362:	4670      	mov	r0, lr
    1364:	f7ff f851 	bl	40a <TA_OpenSessionEntryPoint>
    1368:	4604      	mov	r4, r0
/media/wen/My_Passport/Raspbian/raspbian-tee/raspbian-tee/optee_os/lib/libutee/arch/arm/user_ta_entry.c:157
    136a:	4642      	mov	r2, r8
    136c:	9903      	ldr	r1, [sp, #12]
    136e:	4630      	mov	r0, r6
    1370:	f7ff fdd2 	bl	f18 <__utee_from_param>
/media/wen/My_Passport/Raspbian/raspbian-tee/raspbian-tee/optee_os/lib/libutee/arch/arm/user_ta_entry.c:159
    1374:	2c00      	cmp	r4, #0
    1376:	d0be      	beq.n	12f6 <__utee_entry+0x72>
/media/wen/My_Passport/Raspbian/raspbian-tee/raspbian-tee/optee_os/lib/libutee/arch/arm/user_ta_entry.c:160
    1378:	4638      	mov	r0, r7
    137a:	f7ff ff4f 	bl	121c <ta_header_remove_session>
    137e:	e7ba      	b.n	12f6 <__utee_entry+0x72>
entry_close_session():
/media/wen/My_Passport/Raspbian/raspbian-tee/raspbian-tee/optee_os/lib/libutee/arch/arm/user_ta_entry.c:166
    1380:	4608      	mov	r0, r1
    1382:	f7ff ff3d 	bl	1200 <ta_header_get_session>
/media/wen/My_Passport/Raspbian/raspbian-tee/raspbian-tee/optee_os/lib/libutee/arch/arm/user_ta_entry.c:168
    1386:	2800      	cmp	r0, #0
    1388:	d0d1      	beq.n	132e <__utee_entry+0xaa>
/media/wen/My_Passport/Raspbian/raspbian-tee/raspbian-tee/optee_os/lib/libutee/arch/arm/user_ta_entry.c:171
    138a:	6840      	ldr	r0, [r0, #4]
/media/wen/My_Passport/Raspbian/raspbian-tee/raspbian-tee/optee_os/lib/libutee/arch/arm/user_ta_entry.c:174
    138c:	2400      	movs	r4, #0
/media/wen/My_Passport/Raspbian/raspbian-tee/raspbian-tee/optee_os/lib/libutee/arch/arm/user_ta_entry.c:171
    138e:	f7ff f851 	bl	434 <TA_CloseSessionEntryPoint>
/media/wen/My_Passport/Raspbian/raspbian-tee/raspbian-tee/optee_os/lib/libutee/arch/arm/user_ta_entry.c:173
    1392:	4638      	mov	r0, r7
    1394:	f7ff ff42 	bl	121c <ta_header_remove_session>
    1398:	e7ad      	b.n	12f6 <__utee_entry+0x72>
entry_invoke_command():
/media/wen/My_Passport/Raspbian/raspbian-tee/raspbian-tee/optee_os/lib/libutee/arch/arm/user_ta_entry.c:183
    139a:	4608      	mov	r0, r1
    139c:	f7ff ff30 	bl	1200 <ta_header_get_session>
/media/wen/My_Passport/Raspbian/raspbian-tee/raspbian-tee/optee_os/lib/libutee/arch/arm/user_ta_entry.c:185
    13a0:	4681      	mov	r9, r0
    13a2:	2800      	cmp	r0, #0
    13a4:	d0c3      	beq.n	132e <__utee_entry+0xaa>
/media/wen/My_Passport/Raspbian/raspbian-tee/raspbian-tee/optee_os/lib/libutee/arch/arm/user_ta_entry.c:188
    13a6:	af04      	add	r7, sp, #16
ta_header_save_params():
/media/wen/My_Passport/Raspbian/raspbian-tee/raspbian-tee/optee_os/lib/libutee/arch/arm/user_ta_entry.c:69
    13a8:	4c19      	ldr	r4, [pc, #100]	; (1410 <__utee_entry+0x18c>)
/media/wen/My_Passport/Raspbian/raspbian-tee/raspbian-tee/optee_os/lib/libutee/arch/arm/user_ta_entry.c:72
    13aa:	463d      	mov	r5, r7
entry_invoke_command():
/media/wen/My_Passport/Raspbian/raspbian-tee/raspbian-tee/optee_os/lib/libutee/arch/arm/user_ta_entry.c:188
    13ac:	4632      	mov	r2, r6
    13ae:	a903      	add	r1, sp, #12
    13b0:	4638      	mov	r0, r7
    13b2:	f7ff fdda 	bl	f6a <__utee_to_param>
ta_header_save_params():
/media/wen/My_Passport/Raspbian/raspbian-tee/raspbian-tee/optee_os/lib/libutee/arch/arm/user_ta_entry.c:69
    13b6:	447c      	add	r4, pc
/media/wen/My_Passport/Raspbian/raspbian-tee/raspbian-tee/optee_os/lib/libutee/arch/arm/user_ta_entry.c:72
    13b8:	cd0f      	ldmia	r5!, {r0, r1, r2, r3}
    13ba:	3408      	adds	r4, #8
entry_invoke_command():
/media/wen/My_Passport/Raspbian/raspbian-tee/raspbian-tee/optee_os/lib/libutee/arch/arm/user_ta_entry.c:189
    13bc:	f8dd e00c 	ldr.w	lr, [sp, #12]
ta_header_save_params():
/media/wen/My_Passport/Raspbian/raspbian-tee/raspbian-tee/optee_os/lib/libutee/arch/arm/user_ta_entry.c:69
    13c0:	f844 ec04 	str.w	lr, [r4, #-4]
/media/wen/My_Passport/Raspbian/raspbian-tee/raspbian-tee/optee_os/lib/libutee/arch/arm/user_ta_entry.c:72
    13c4:	c40f      	stmia	r4!, {r0, r1, r2, r3}
    13c6:	e895 000f 	ldmia.w	r5, {r0, r1, r2, r3}
    13ca:	e884 000f 	stmia.w	r4, {r0, r1, r2, r3}
entry_invoke_command():
/media/wen/My_Passport/Raspbian/raspbian-tee/raspbian-tee/optee_os/lib/libutee/arch/arm/user_ta_entry.c:191
    13ce:	4672      	mov	r2, lr
    13d0:	4641      	mov	r1, r8
    13d2:	463b      	mov	r3, r7
    13d4:	f8d9 0004 	ldr.w	r0, [r9, #4]
    13d8:	f7ff f82e 	bl	438 <TA_InvokeCommandEntryPoint>
/media/wen/My_Passport/Raspbian/raspbian-tee/raspbian-tee/optee_os/lib/libutee/arch/arm/user_ta_entry.c:194
    13dc:	463a      	mov	r2, r7
/media/wen/My_Passport/Raspbian/raspbian-tee/raspbian-tee/optee_os/lib/libutee/arch/arm/user_ta_entry.c:191
    13de:	4604      	mov	r4, r0
/media/wen/My_Passport/Raspbian/raspbian-tee/raspbian-tee/optee_os/lib/libutee/arch/arm/user_ta_entry.c:194
    13e0:	9903      	ldr	r1, [sp, #12]
    13e2:	4630      	mov	r0, r6
    13e4:	f7ff fd98 	bl	f18 <__utee_from_param>
    13e8:	e785      	b.n	12f6 <__utee_entry+0x72>
    13ea:	bf00      	nop
    13ec:	ffff000c 	.word	0xffff000c
    13f0:	ffff0007 	.word	0xffff0007
    13f4:	000062be 	.word	0x000062be
    13f8:	00006ddc 	.word	0x00006ddc
    13fc:	0000000c 	.word	0x0000000c
    1400:	00000020 	.word	0x00000020
    1404:	00006d94 	.word	0x00006d94
    1408:	00006d50 	.word	0x00006d50
    140c:	00006d4c 	.word	0x00006d4c
    1410:	00006cda 	.word	0x00006cda

00001414 <utee_panic>:
utee_panic():
/media/wen/My_Passport/Raspbian/raspbian-tee/raspbian-tee/optee_os/lib/libutee/arch/arm/utee_syscalls_a32.S:47
    1414:	e92d4fff 	push	{r0, r1, r2, r3, r4, r5, r6, r7, r8, r9, sl, fp, lr}
/media/wen/My_Passport/Raspbian/raspbian-tee/raspbian-tee/optee_os/lib/libutee/arch/arm/utee_syscalls_a32.S:49
    1418:	e1a0e00f 	mov	lr, pc
/media/wen/My_Passport/Raspbian/raspbian-tee/raspbian-tee/optee_os/lib/libutee/arch/arm/utee_syscalls_a32.S:50
    141c:	e52de004 	push	{lr}		; (str lr, [sp, #-4]!)
/media/wen/My_Passport/Raspbian/raspbian-tee/raspbian-tee/optee_os/lib/libutee/arch/arm/utee_syscalls_a32.S:52
    1420:	e1a0100d 	mov	r1, sp
/media/wen/My_Passport/Raspbian/raspbian-tee/raspbian-tee/optee_os/lib/libutee/arch/arm/utee_syscalls_a32.S:53
    1424:	eb000009 	bl	1450 <__utee_panic>

00001428 <utee_return>:
utee_return():
/media/wen/My_Passport/Raspbian/raspbian-tee/raspbian-tee/optee_os/lib/libutee/arch/arm/utee_syscalls_asm.S:8
    1428:	e92d40e0 	push	{r5, r6, r7, lr}
    142c:	e3a07000 	mov	r7, #0
    1430:	e3a06000 	mov	r6, #0
    1434:	ef000000 	svc	0x00000000
    1438:	e8bd80e0 	pop	{r5, r6, r7, pc}

0000143c <utee_log>:
utee_log():
/media/wen/My_Passport/Raspbian/raspbian-tee/raspbian-tee/optee_os/lib/libutee/arch/arm/utee_syscalls_asm.S:10
    143c:	e92d40e0 	push	{r5, r6, r7, lr}
    1440:	e3a07001 	mov	r7, #1
    1444:	e3a06000 	mov	r6, #0
    1448:	ef000000 	svc	0x00000000
    144c:	e8bd80e0 	pop	{r5, r6, r7, pc}

00001450 <__utee_panic>:
__utee_panic():
/media/wen/My_Passport/Raspbian/raspbian-tee/raspbian-tee/optee_os/lib/libutee/arch/arm/utee_syscalls_asm.S:12
    1450:	e92d40e0 	push	{r5, r6, r7, lr}
    1454:	e3a07002 	mov	r7, #2
    1458:	e3a06000 	mov	r6, #0
    145c:	ef000000 	svc	0x00000000
    1460:	e8bd80e0 	pop	{r5, r6, r7, pc}

00001464 <utee_get_property>:
utee_get_property():
/media/wen/My_Passport/Raspbian/raspbian-tee/raspbian-tee/optee_os/lib/libutee/arch/arm/utee_syscalls_asm.S:14
    1464:	e92d40e0 	push	{r5, r6, r7, lr}
    1468:	e3a07003 	mov	r7, #3
    146c:	e3a06003 	mov	r6, #3
    1470:	e28d5010 	add	r5, sp, #16
    1474:	ef000000 	svc	0x00000000
    1478:	e8bd80e0 	pop	{r5, r6, r7, pc}

0000147c <utee_get_property_name_to_index>:
utee_get_property_name_to_index():
/media/wen/My_Passport/Raspbian/raspbian-tee/raspbian-tee/optee_os/lib/libutee/arch/arm/utee_syscalls_asm.S:16
    147c:	e92d40e0 	push	{r5, r6, r7, lr}
    1480:	e3a07004 	mov	r7, #4
    1484:	e3a06000 	mov	r6, #0
    1488:	ef000000 	svc	0x00000000
    148c:	e8bd80e0 	pop	{r5, r6, r7, pc}

00001490 <utee_open_ta_session>:
utee_open_ta_session():
/media/wen/My_Passport/Raspbian/raspbian-tee/raspbian-tee/optee_os/lib/libutee/arch/arm/utee_syscalls_asm.S:19
    1490:	e92d40e0 	push	{r5, r6, r7, lr}
    1494:	e3a07005 	mov	r7, #5
    1498:	e3a06001 	mov	r6, #1
    149c:	e28d5010 	add	r5, sp, #16
    14a0:	ef000000 	svc	0x00000000
    14a4:	e8bd80e0 	pop	{r5, r6, r7, pc}

000014a8 <utee_close_ta_session>:
utee_close_ta_session():
/media/wen/My_Passport/Raspbian/raspbian-tee/raspbian-tee/optee_os/lib/libutee/arch/arm/utee_syscalls_asm.S:21
    14a8:	e92d40e0 	push	{r5, r6, r7, lr}
    14ac:	e3a07006 	mov	r7, #6
    14b0:	e3a06000 	mov	r6, #0
    14b4:	ef000000 	svc	0x00000000
    14b8:	e8bd80e0 	pop	{r5, r6, r7, pc}

000014bc <utee_invoke_ta_command>:
utee_invoke_ta_command():
/media/wen/My_Passport/Raspbian/raspbian-tee/raspbian-tee/optee_os/lib/libutee/arch/arm/utee_syscalls_asm.S:23
    14bc:	e92d40e0 	push	{r5, r6, r7, lr}
    14c0:	e3a07007 	mov	r7, #7
    14c4:	e3a06001 	mov	r6, #1
    14c8:	e28d5010 	add	r5, sp, #16
    14cc:	ef000000 	svc	0x00000000
    14d0:	e8bd80e0 	pop	{r5, r6, r7, pc}

000014d4 <utee_get_cancellation_flag>:
utee_get_cancellation_flag():
/media/wen/My_Passport/Raspbian/raspbian-tee/raspbian-tee/optee_os/lib/libutee/arch/arm/utee_syscalls_asm.S:25
    14d4:	e92d40e0 	push	{r5, r6, r7, lr}
    14d8:	e3a07009 	mov	r7, #9
    14dc:	e3a06000 	mov	r6, #0
    14e0:	ef000000 	svc	0x00000000
    14e4:	e8bd80e0 	pop	{r5, r6, r7, pc}

000014e8 <utee_check_access_rights>:
utee_check_access_rights():
/media/wen/My_Passport/Raspbian/raspbian-tee/raspbian-tee/optee_os/lib/libutee/arch/arm/utee_syscalls_asm.S:28
    14e8:	e92d40e0 	push	{r5, r6, r7, lr}
    14ec:	e3a07008 	mov	r7, #8
    14f0:	e3a06000 	mov	r6, #0
    14f4:	ef000000 	svc	0x00000000
    14f8:	e8bd80e0 	pop	{r5, r6, r7, pc}

000014fc <utee_unmask_cancellation>:
utee_unmask_cancellation():
/media/wen/My_Passport/Raspbian/raspbian-tee/raspbian-tee/optee_os/lib/libutee/arch/arm/utee_syscalls_asm.S:30
    14fc:	e92d40e0 	push	{r5, r6, r7, lr}
    1500:	e3a0700a 	mov	r7, #10
    1504:	e3a06000 	mov	r6, #0
    1508:	ef000000 	svc	0x00000000
    150c:	e8bd80e0 	pop	{r5, r6, r7, pc}

00001510 <utee_mask_cancellation>:
utee_mask_cancellation():
/media/wen/My_Passport/Raspbian/raspbian-tee/raspbian-tee/optee_os/lib/libutee/arch/arm/utee_syscalls_asm.S:32
    1510:	e92d40e0 	push	{r5, r6, r7, lr}
    1514:	e3a0700b 	mov	r7, #11
    1518:	e3a06000 	mov	r6, #0
    151c:	ef000000 	svc	0x00000000
    1520:	e8bd80e0 	pop	{r5, r6, r7, pc}

00001524 <utee_wait>:
utee_wait():
/media/wen/My_Passport/Raspbian/raspbian-tee/raspbian-tee/optee_os/lib/libutee/arch/arm/utee_syscalls_asm.S:34
    1524:	e92d40e0 	push	{r5, r6, r7, lr}
    1528:	e3a0700c 	mov	r7, #12
    152c:	e3a06000 	mov	r6, #0
    1530:	ef000000 	svc	0x00000000
    1534:	e8bd80e0 	pop	{r5, r6, r7, pc}

00001538 <utee_get_time>:
utee_get_time():
/media/wen/My_Passport/Raspbian/raspbian-tee/raspbian-tee/optee_os/lib/libutee/arch/arm/utee_syscalls_asm.S:36
    1538:	e92d40e0 	push	{r5, r6, r7, lr}
    153c:	e3a0700d 	mov	r7, #13
    1540:	e3a06000 	mov	r6, #0
    1544:	ef000000 	svc	0x00000000
    1548:	e8bd80e0 	pop	{r5, r6, r7, pc}

0000154c <utee_set_ta_time>:
utee_set_ta_time():
/media/wen/My_Passport/Raspbian/raspbian-tee/raspbian-tee/optee_os/lib/libutee/arch/arm/utee_syscalls_asm.S:38
    154c:	e92d40e0 	push	{r5, r6, r7, lr}
    1550:	e3a0700e 	mov	r7, #14
    1554:	e3a06000 	mov	r6, #0
    1558:	ef000000 	svc	0x00000000
    155c:	e8bd80e0 	pop	{r5, r6, r7, pc}

00001560 <utee_cryp_state_alloc>:
utee_cryp_state_alloc():
/media/wen/My_Passport/Raspbian/raspbian-tee/raspbian-tee/optee_os/lib/libutee/arch/arm/utee_syscalls_asm.S:40
    1560:	e92d40e0 	push	{r5, r6, r7, lr}
    1564:	e3a0700f 	mov	r7, #15
    1568:	e3a06001 	mov	r6, #1
    156c:	e28d5010 	add	r5, sp, #16
    1570:	ef000000 	svc	0x00000000
    1574:	e8bd80e0 	pop	{r5, r6, r7, pc}

00001578 <utee_cryp_state_copy>:
utee_cryp_state_copy():
/media/wen/My_Passport/Raspbian/raspbian-tee/raspbian-tee/optee_os/lib/libutee/arch/arm/utee_syscalls_asm.S:42
    1578:	e92d40e0 	push	{r5, r6, r7, lr}
    157c:	e3a07010 	mov	r7, #16
    1580:	e3a06000 	mov	r6, #0
    1584:	ef000000 	svc	0x00000000
    1588:	e8bd80e0 	pop	{r5, r6, r7, pc}

0000158c <utee_cryp_state_free>:
utee_cryp_state_free():
/media/wen/My_Passport/Raspbian/raspbian-tee/raspbian-tee/optee_os/lib/libutee/arch/arm/utee_syscalls_asm.S:44
    158c:	e92d40e0 	push	{r5, r6, r7, lr}
    1590:	e3a07011 	mov	r7, #17
    1594:	e3a06000 	mov	r6, #0
    1598:	ef000000 	svc	0x00000000
    159c:	e8bd80e0 	pop	{r5, r6, r7, pc}

000015a0 <utee_hash_init>:
utee_hash_init():
/media/wen/My_Passport/Raspbian/raspbian-tee/raspbian-tee/optee_os/lib/libutee/arch/arm/utee_syscalls_asm.S:46
    15a0:	e92d40e0 	push	{r5, r6, r7, lr}
    15a4:	e3a07012 	mov	r7, #18
    15a8:	e3a06000 	mov	r6, #0
    15ac:	ef000000 	svc	0x00000000
    15b0:	e8bd80e0 	pop	{r5, r6, r7, pc}

000015b4 <utee_hash_update>:
utee_hash_update():
/media/wen/My_Passport/Raspbian/raspbian-tee/raspbian-tee/optee_os/lib/libutee/arch/arm/utee_syscalls_asm.S:48
    15b4:	e92d40e0 	push	{r5, r6, r7, lr}
    15b8:	e3a07013 	mov	r7, #19
    15bc:	e3a06000 	mov	r6, #0
    15c0:	ef000000 	svc	0x00000000
    15c4:	e8bd80e0 	pop	{r5, r6, r7, pc}

000015c8 <utee_hash_final>:
utee_hash_final():
/media/wen/My_Passport/Raspbian/raspbian-tee/raspbian-tee/optee_os/lib/libutee/arch/arm/utee_syscalls_asm.S:50
    15c8:	e92d40e0 	push	{r5, r6, r7, lr}
    15cc:	e3a07014 	mov	r7, #20
    15d0:	e3a06001 	mov	r6, #1
    15d4:	e28d5010 	add	r5, sp, #16
    15d8:	ef000000 	svc	0x00000000
    15dc:	e8bd80e0 	pop	{r5, r6, r7, pc}

000015e0 <utee_cipher_init>:
utee_cipher_init():
/media/wen/My_Passport/Raspbian/raspbian-tee/raspbian-tee/optee_os/lib/libutee/arch/arm/utee_syscalls_asm.S:52
    15e0:	e92d40e0 	push	{r5, r6, r7, lr}
    15e4:	e3a07015 	mov	r7, #21
    15e8:	e3a06000 	mov	r6, #0
    15ec:	ef000000 	svc	0x00000000
    15f0:	e8bd80e0 	pop	{r5, r6, r7, pc}

000015f4 <utee_cipher_update>:
utee_cipher_update():
/media/wen/My_Passport/Raspbian/raspbian-tee/raspbian-tee/optee_os/lib/libutee/arch/arm/utee_syscalls_asm.S:54
    15f4:	e92d40e0 	push	{r5, r6, r7, lr}
    15f8:	e3a07016 	mov	r7, #22
    15fc:	e3a06001 	mov	r6, #1
    1600:	e28d5010 	add	r5, sp, #16
    1604:	ef000000 	svc	0x00000000
    1608:	e8bd80e0 	pop	{r5, r6, r7, pc}

0000160c <utee_cipher_final>:
utee_cipher_final():
/media/wen/My_Passport/Raspbian/raspbian-tee/raspbian-tee/optee_os/lib/libutee/arch/arm/utee_syscalls_asm.S:56
    160c:	e92d40e0 	push	{r5, r6, r7, lr}
    1610:	e3a07017 	mov	r7, #23
    1614:	e3a06001 	mov	r6, #1
    1618:	e28d5010 	add	r5, sp, #16
    161c:	ef000000 	svc	0x00000000
    1620:	e8bd80e0 	pop	{r5, r6, r7, pc}

00001624 <utee_cryp_obj_get_info>:
utee_cryp_obj_get_info():
/media/wen/My_Passport/Raspbian/raspbian-tee/raspbian-tee/optee_os/lib/libutee/arch/arm/utee_syscalls_asm.S:58
    1624:	e92d40e0 	push	{r5, r6, r7, lr}
    1628:	e3a07018 	mov	r7, #24
    162c:	e3a06000 	mov	r6, #0
    1630:	ef000000 	svc	0x00000000
    1634:	e8bd80e0 	pop	{r5, r6, r7, pc}

00001638 <utee_cryp_obj_restrict_usage>:
utee_cryp_obj_restrict_usage():
/media/wen/My_Passport/Raspbian/raspbian-tee/raspbian-tee/optee_os/lib/libutee/arch/arm/utee_syscalls_asm.S:60
    1638:	e92d40e0 	push	{r5, r6, r7, lr}
    163c:	e3a07019 	mov	r7, #25
    1640:	e3a06000 	mov	r6, #0
    1644:	ef000000 	svc	0x00000000
    1648:	e8bd80e0 	pop	{r5, r6, r7, pc}

0000164c <utee_cryp_obj_get_attr>:
utee_cryp_obj_get_attr():
/media/wen/My_Passport/Raspbian/raspbian-tee/raspbian-tee/optee_os/lib/libutee/arch/arm/utee_syscalls_asm.S:63
    164c:	e92d40e0 	push	{r5, r6, r7, lr}
    1650:	e3a0701a 	mov	r7, #26
    1654:	e3a06000 	mov	r6, #0
    1658:	ef000000 	svc	0x00000000
    165c:	e8bd80e0 	pop	{r5, r6, r7, pc}

00001660 <utee_cryp_obj_alloc>:
utee_cryp_obj_alloc():
/media/wen/My_Passport/Raspbian/raspbian-tee/raspbian-tee/optee_os/lib/libutee/arch/arm/utee_syscalls_asm.S:65
    1660:	e92d40e0 	push	{r5, r6, r7, lr}
    1664:	e3a0701b 	mov	r7, #27
    1668:	e3a06000 	mov	r6, #0
    166c:	ef000000 	svc	0x00000000
    1670:	e8bd80e0 	pop	{r5, r6, r7, pc}

00001674 <utee_cryp_obj_close>:
utee_cryp_obj_close():
/media/wen/My_Passport/Raspbian/raspbian-tee/raspbian-tee/optee_os/lib/libutee/arch/arm/utee_syscalls_asm.S:67
    1674:	e92d40e0 	push	{r5, r6, r7, lr}
    1678:	e3a0701c 	mov	r7, #28
    167c:	e3a06000 	mov	r6, #0
    1680:	ef000000 	svc	0x00000000
    1684:	e8bd80e0 	pop	{r5, r6, r7, pc}

00001688 <utee_cryp_obj_reset>:
utee_cryp_obj_reset():
/media/wen/My_Passport/Raspbian/raspbian-tee/raspbian-tee/optee_os/lib/libutee/arch/arm/utee_syscalls_asm.S:69
    1688:	e92d40e0 	push	{r5, r6, r7, lr}
    168c:	e3a0701d 	mov	r7, #29
    1690:	e3a06000 	mov	r6, #0
    1694:	ef000000 	svc	0x00000000
    1698:	e8bd80e0 	pop	{r5, r6, r7, pc}

0000169c <utee_cryp_obj_populate>:
utee_cryp_obj_populate():
/media/wen/My_Passport/Raspbian/raspbian-tee/raspbian-tee/optee_os/lib/libutee/arch/arm/utee_syscalls_asm.S:71
    169c:	e92d40e0 	push	{r5, r6, r7, lr}
    16a0:	e3a0701e 	mov	r7, #30
    16a4:	e3a06000 	mov	r6, #0
    16a8:	ef000000 	svc	0x00000000
    16ac:	e8bd80e0 	pop	{r5, r6, r7, pc}

000016b0 <utee_cryp_obj_copy>:
utee_cryp_obj_copy():
/media/wen/My_Passport/Raspbian/raspbian-tee/raspbian-tee/optee_os/lib/libutee/arch/arm/utee_syscalls_asm.S:73
    16b0:	e92d40e0 	push	{r5, r6, r7, lr}
    16b4:	e3a0701f 	mov	r7, #31
    16b8:	e3a06000 	mov	r6, #0
    16bc:	ef000000 	svc	0x00000000
    16c0:	e8bd80e0 	pop	{r5, r6, r7, pc}

000016c4 <utee_cryp_derive_key>:
utee_cryp_derive_key():
/media/wen/My_Passport/Raspbian/raspbian-tee/raspbian-tee/optee_os/lib/libutee/arch/arm/utee_syscalls_asm.S:75
    16c4:	e92d40e0 	push	{r5, r6, r7, lr}
    16c8:	e3a07020 	mov	r7, #32
    16cc:	e3a06000 	mov	r6, #0
    16d0:	ef000000 	svc	0x00000000
    16d4:	e8bd80e0 	pop	{r5, r6, r7, pc}

000016d8 <utee_cryp_random_number_generate>:
utee_cryp_random_number_generate():
/media/wen/My_Passport/Raspbian/raspbian-tee/raspbian-tee/optee_os/lib/libutee/arch/arm/utee_syscalls_asm.S:77
    16d8:	e92d40e0 	push	{r5, r6, r7, lr}
    16dc:	e3a07021 	mov	r7, #33	; 0x21
    16e0:	e3a06000 	mov	r6, #0
    16e4:	ef000000 	svc	0x00000000
    16e8:	e8bd80e0 	pop	{r5, r6, r7, pc}

000016ec <utee_authenc_init>:
utee_authenc_init():
/media/wen/My_Passport/Raspbian/raspbian-tee/raspbian-tee/optee_os/lib/libutee/arch/arm/utee_syscalls_asm.S:80
    16ec:	e92d40e0 	push	{r5, r6, r7, lr}
    16f0:	e3a07022 	mov	r7, #34	; 0x22
    16f4:	e3a06002 	mov	r6, #2
    16f8:	e28d5010 	add	r5, sp, #16
    16fc:	ef000000 	svc	0x00000000
    1700:	e8bd80e0 	pop	{r5, r6, r7, pc}

00001704 <utee_authenc_update_aad>:
utee_authenc_update_aad():
/media/wen/My_Passport/Raspbian/raspbian-tee/raspbian-tee/optee_os/lib/libutee/arch/arm/utee_syscalls_asm.S:82
    1704:	e92d40e0 	push	{r5, r6, r7, lr}
    1708:	e3a07023 	mov	r7, #35	; 0x23
    170c:	e3a06000 	mov	r6, #0
    1710:	ef000000 	svc	0x00000000
    1714:	e8bd80e0 	pop	{r5, r6, r7, pc}

00001718 <utee_authenc_update_payload>:
utee_authenc_update_payload():
/media/wen/My_Passport/Raspbian/raspbian-tee/raspbian-tee/optee_os/lib/libutee/arch/arm/utee_syscalls_asm.S:84
    1718:	e92d40e0 	push	{r5, r6, r7, lr}
    171c:	e3a07024 	mov	r7, #36	; 0x24
    1720:	e3a06001 	mov	r6, #1
    1724:	e28d5010 	add	r5, sp, #16
    1728:	ef000000 	svc	0x00000000
    172c:	e8bd80e0 	pop	{r5, r6, r7, pc}

00001730 <utee_authenc_enc_final>:
utee_authenc_enc_final():
/media/wen/My_Passport/Raspbian/raspbian-tee/raspbian-tee/optee_os/lib/libutee/arch/arm/utee_syscalls_asm.S:87
    1730:	e92d40e0 	push	{r5, r6, r7, lr}
    1734:	e3a07025 	mov	r7, #37	; 0x25
    1738:	e3a06003 	mov	r6, #3
    173c:	e28d5010 	add	r5, sp, #16
    1740:	ef000000 	svc	0x00000000
    1744:	e8bd80e0 	pop	{r5, r6, r7, pc}

00001748 <utee_authenc_dec_final>:
utee_authenc_dec_final():
/media/wen/My_Passport/Raspbian/raspbian-tee/raspbian-tee/optee_os/lib/libutee/arch/arm/utee_syscalls_asm.S:89
    1748:	e92d40e0 	push	{r5, r6, r7, lr}
    174c:	e3a07026 	mov	r7, #38	; 0x26
    1750:	e3a06003 	mov	r6, #3
    1754:	e28d5010 	add	r5, sp, #16
    1758:	ef000000 	svc	0x00000000
    175c:	e8bd80e0 	pop	{r5, r6, r7, pc}

00001760 <utee_asymm_operate>:
utee_asymm_operate():
/media/wen/My_Passport/Raspbian/raspbian-tee/raspbian-tee/optee_os/lib/libutee/arch/arm/utee_syscalls_asm.S:91
    1760:	e92d40e0 	push	{r5, r6, r7, lr}
    1764:	e3a07027 	mov	r7, #39	; 0x27
    1768:	e3a06003 	mov	r6, #3
    176c:	e28d5010 	add	r5, sp, #16
    1770:	ef000000 	svc	0x00000000
    1774:	e8bd80e0 	pop	{r5, r6, r7, pc}

00001778 <utee_asymm_verify>:
utee_asymm_verify():
/media/wen/My_Passport/Raspbian/raspbian-tee/raspbian-tee/optee_os/lib/libutee/arch/arm/utee_syscalls_asm.S:93
    1778:	e92d40e0 	push	{r5, r6, r7, lr}
    177c:	e3a07028 	mov	r7, #40	; 0x28
    1780:	e3a06003 	mov	r6, #3
    1784:	e28d5010 	add	r5, sp, #16
    1788:	ef000000 	svc	0x00000000
    178c:	e8bd80e0 	pop	{r5, r6, r7, pc}

00001790 <utee_storage_obj_open>:
utee_storage_obj_open():
/media/wen/My_Passport/Raspbian/raspbian-tee/raspbian-tee/optee_os/lib/libutee/arch/arm/utee_syscalls_asm.S:95
    1790:	e92d40e0 	push	{r5, r6, r7, lr}
    1794:	e3a07029 	mov	r7, #41	; 0x29
    1798:	e3a06001 	mov	r6, #1
    179c:	e28d5010 	add	r5, sp, #16
    17a0:	ef000000 	svc	0x00000000
    17a4:	e8bd80e0 	pop	{r5, r6, r7, pc}

000017a8 <utee_storage_obj_create>:
utee_storage_obj_create():
/media/wen/My_Passport/Raspbian/raspbian-tee/raspbian-tee/optee_os/lib/libutee/arch/arm/utee_syscalls_asm.S:97
    17a8:	e92d40e0 	push	{r5, r6, r7, lr}
    17ac:	e3a0702a 	mov	r7, #42	; 0x2a
    17b0:	e3a06004 	mov	r6, #4
    17b4:	e28d5010 	add	r5, sp, #16
    17b8:	ef000000 	svc	0x00000000
    17bc:	e8bd80e0 	pop	{r5, r6, r7, pc}

000017c0 <utee_storage_obj_del>:
utee_storage_obj_del():
/media/wen/My_Passport/Raspbian/raspbian-tee/raspbian-tee/optee_os/lib/libutee/arch/arm/utee_syscalls_asm.S:99
    17c0:	e92d40e0 	push	{r5, r6, r7, lr}
    17c4:	e3a0702b 	mov	r7, #43	; 0x2b
    17c8:	e3a06000 	mov	r6, #0
    17cc:	ef000000 	svc	0x00000000
    17d0:	e8bd80e0 	pop	{r5, r6, r7, pc}

000017d4 <utee_storage_obj_rename>:
utee_storage_obj_rename():
/media/wen/My_Passport/Raspbian/raspbian-tee/raspbian-tee/optee_os/lib/libutee/arch/arm/utee_syscalls_asm.S:101
    17d4:	e92d40e0 	push	{r5, r6, r7, lr}
    17d8:	e3a0702c 	mov	r7, #44	; 0x2c
    17dc:	e3a06000 	mov	r6, #0
    17e0:	ef000000 	svc	0x00000000
    17e4:	e8bd80e0 	pop	{r5, r6, r7, pc}

000017e8 <utee_storage_alloc_enum>:
utee_storage_alloc_enum():
/media/wen/My_Passport/Raspbian/raspbian-tee/raspbian-tee/optee_os/lib/libutee/arch/arm/utee_syscalls_asm.S:103
    17e8:	e92d40e0 	push	{r5, r6, r7, lr}
    17ec:	e3a0702d 	mov	r7, #45	; 0x2d
    17f0:	e3a06000 	mov	r6, #0
    17f4:	ef000000 	svc	0x00000000
    17f8:	e8bd80e0 	pop	{r5, r6, r7, pc}

000017fc <utee_storage_free_enum>:
utee_storage_free_enum():
/media/wen/My_Passport/Raspbian/raspbian-tee/raspbian-tee/optee_os/lib/libutee/arch/arm/utee_syscalls_asm.S:105
    17fc:	e92d40e0 	push	{r5, r6, r7, lr}
    1800:	e3a0702e 	mov	r7, #46	; 0x2e
    1804:	e3a06000 	mov	r6, #0
    1808:	ef000000 	svc	0x00000000
    180c:	e8bd80e0 	pop	{r5, r6, r7, pc}

00001810 <utee_storage_reset_enum>:
utee_storage_reset_enum():
/media/wen/My_Passport/Raspbian/raspbian-tee/raspbian-tee/optee_os/lib/libutee/arch/arm/utee_syscalls_asm.S:107
    1810:	e92d40e0 	push	{r5, r6, r7, lr}
    1814:	e3a0702f 	mov	r7, #47	; 0x2f
    1818:	e3a06000 	mov	r6, #0
    181c:	ef000000 	svc	0x00000000
    1820:	e8bd80e0 	pop	{r5, r6, r7, pc}

00001824 <utee_storage_start_enum>:
utee_storage_start_enum():
/media/wen/My_Passport/Raspbian/raspbian-tee/raspbian-tee/optee_os/lib/libutee/arch/arm/utee_syscalls_asm.S:109
    1824:	e92d40e0 	push	{r5, r6, r7, lr}
    1828:	e3a07030 	mov	r7, #48	; 0x30
    182c:	e3a06000 	mov	r6, #0
    1830:	ef000000 	svc	0x00000000
    1834:	e8bd80e0 	pop	{r5, r6, r7, pc}

00001838 <utee_storage_next_enum>:
utee_storage_next_enum():
/media/wen/My_Passport/Raspbian/raspbian-tee/raspbian-tee/optee_os/lib/libutee/arch/arm/utee_syscalls_asm.S:111
    1838:	e92d40e0 	push	{r5, r6, r7, lr}
    183c:	e3a07031 	mov	r7, #49	; 0x31
    1840:	e3a06000 	mov	r6, #0
    1844:	ef000000 	svc	0x00000000
    1848:	e8bd80e0 	pop	{r5, r6, r7, pc}

0000184c <utee_storage_obj_read>:
utee_storage_obj_read():
/media/wen/My_Passport/Raspbian/raspbian-tee/raspbian-tee/optee_os/lib/libutee/arch/arm/utee_syscalls_asm.S:113
    184c:	e92d40e0 	push	{r5, r6, r7, lr}
    1850:	e3a07032 	mov	r7, #50	; 0x32
    1854:	e3a06000 	mov	r6, #0
    1858:	ef000000 	svc	0x00000000
    185c:	e8bd80e0 	pop	{r5, r6, r7, pc}

00001860 <utee_storage_obj_write>:
utee_storage_obj_write():
/media/wen/My_Passport/Raspbian/raspbian-tee/raspbian-tee/optee_os/lib/libutee/arch/arm/utee_syscalls_asm.S:115
    1860:	e92d40e0 	push	{r5, r6, r7, lr}
    1864:	e3a07033 	mov	r7, #51	; 0x33
    1868:	e3a06000 	mov	r6, #0
    186c:	ef000000 	svc	0x00000000
    1870:	e8bd80e0 	pop	{r5, r6, r7, pc}

00001874 <utee_storage_obj_trunc>:
utee_storage_obj_trunc():
/media/wen/My_Passport/Raspbian/raspbian-tee/raspbian-tee/optee_os/lib/libutee/arch/arm/utee_syscalls_asm.S:117
    1874:	e92d40e0 	push	{r5, r6, r7, lr}
    1878:	e3a07034 	mov	r7, #52	; 0x34
    187c:	e3a06000 	mov	r6, #0
    1880:	ef000000 	svc	0x00000000
    1884:	e8bd80e0 	pop	{r5, r6, r7, pc}

00001888 <utee_storage_obj_seek>:
utee_storage_obj_seek():
/media/wen/My_Passport/Raspbian/raspbian-tee/raspbian-tee/optee_os/lib/libutee/arch/arm/utee_syscalls_asm.S:119
    1888:	e92d40e0 	push	{r5, r6, r7, lr}
    188c:	e3a07035 	mov	r7, #53	; 0x35
    1890:	e3a06000 	mov	r6, #0
    1894:	ef000000 	svc	0x00000000
    1898:	e8bd80e0 	pop	{r5, r6, r7, pc}

0000189c <utee_cryp_obj_generate_key>:
utee_cryp_obj_generate_key():
/media/wen/My_Passport/Raspbian/raspbian-tee/raspbian-tee/optee_os/lib/libutee/arch/arm/utee_syscalls_asm.S:121
    189c:	e92d40e0 	push	{r5, r6, r7, lr}
    18a0:	e3a07036 	mov	r7, #54	; 0x36
    18a4:	e3a06000 	mov	r6, #0
    18a8:	ef000000 	svc	0x00000000
    18ac:	e8bd80e0 	pop	{r5, r6, r7, pc}

000018b0 <utee_cache_operation>:
utee_cache_operation():
/media/wen/My_Passport/Raspbian/raspbian-tee/raspbian-tee/optee_os/lib/libutee/arch/arm/utee_syscalls_asm.S:124
    18b0:	e92d40e0 	push	{r5, r6, r7, lr}
    18b4:	e3a07046 	mov	r7, #70	; 0x46
    18b8:	e3a06000 	mov	r6, #0
    18bc:	ef000000 	svc	0x00000000
    18c0:	e8bd80e0 	pop	{r5, r6, r7, pc}

000018c4 <__utee_mcount>:
__utee_mcount():
/media/wen/My_Passport/Raspbian/raspbian-tee/raspbian-tee/optee_os/lib/libutee/arch/arm/gprof/gprof_a32.S:49
    18c4:	e52de004 	push	{lr}		; (str lr, [sp, #-4]!)
/media/wen/My_Passport/Raspbian/raspbian-tee/raspbian-tee/optee_os/lib/libutee/arch/arm/gprof/gprof_a32.S:50
    18c8:	e8bd5000 	pop	{ip, lr}
/media/wen/My_Passport/Raspbian/raspbian-tee/raspbian-tee/optee_os/lib/libutee/arch/arm/gprof/gprof_a32.S:51
    18cc:	e12fff1c 	bx	ip

000018d0 <mpi_panic>:
mpi_panic():
/media/wen/My_Passport/Raspbian/raspbian-tee/raspbian-tee/optee_os/lib/libutee/tee_api_arith_mpi.c:29
    18d0:	b508      	push	{r3, lr}
/media/wen/My_Passport/Raspbian/raspbian-tee/raspbian-tee/optee_os/lib/libutee/tee_api_arith_mpi.c:30
    18d2:	4613      	mov	r3, r2
    18d4:	460a      	mov	r2, r1
    18d6:	4601      	mov	r1, r0
    18d8:	4804      	ldr	r0, [pc, #16]	; (18ec <mpi_panic+0x1c>)
    18da:	4478      	add	r0, pc
    18dc:	f7ff fadb 	bl	e96 <printf>
/media/wen/My_Passport/Raspbian/raspbian-tee/raspbian-tee/optee_os/lib/libutee/tee_api_arith_mpi.c:31
    18e0:	4801      	ldr	r0, [pc, #4]	; (18e8 <mpi_panic+0x18>)
    18e2:	f004 fadf 	bl	5ea4 <TEE_Panic>
    18e6:	e7fe      	b.n	18e6 <mpi_panic+0x16>
    18e8:	00b16127 	.word	0x00b16127
    18ec:	00004c98 	.word	0x00004c98

000018f0 <get_const_mpi>:
get_const_mpi():
/media/wen/My_Passport/Raspbian/raspbian-tee/raspbian-tee/optee_os/lib/libutee/tee_api_arith_mpi.c:110
    18f0:	b530      	push	{r4, r5, lr}
init_static_mpi():
/media/wen/My_Passport/Raspbian/raspbian-tee/raspbian-tee/optee_os/lib/libutee/tee_api_arith_mpi.c:65
    18f2:	3108      	adds	r1, #8
    18f4:	f831 2c02 	ldrh.w	r2, [r1, #-2]
get_const_mpi():
/media/wen/My_Passport/Raspbian/raspbian-tee/raspbian-tee/optee_os/lib/libutee/tee_api_arith_mpi.c:110
    18f8:	b087      	sub	sp, #28
init_static_mpi():
/media/wen/My_Passport/Raspbian/raspbian-tee/raspbian-tee/optee_os/lib/libutee/tee_api_arith_mpi.c:65
    18fa:	f831 3c04 	ldrh.w	r3, [r1, #-4]
    18fe:	ac03      	add	r4, sp, #12
get_const_mpi():
/media/wen/My_Passport/Raspbian/raspbian-tee/raspbian-tee/optee_os/lib/libutee/tee_api_arith_mpi.c:110
    1900:	4605      	mov	r5, r0
init_static_mpi():
/media/wen/My_Passport/Raspbian/raspbian-tee/raspbian-tee/optee_os/lib/libutee/tee_api_arith_mpi.c:65
    1902:	4620      	mov	r0, r4
    1904:	9200      	str	r2, [sp, #0]
    1906:	f851 2c08 	ldr.w	r2, [r1, #-8]
    190a:	f001 fa47 	bl	2d9c <mbedtls_mpi_init_static>
get_mpi():
/media/wen/My_Passport/Raspbian/raspbian-tee/raspbian-tee/optee_os/lib/libutee/tee_api_arith_mpi.c:99
    190e:	4628      	mov	r0, r5
    1910:	f001 fa32 	bl	2d78 <mbedtls_mpi_init_mempool>
get_const_mpi():
/media/wen/My_Passport/Raspbian/raspbian-tee/raspbian-tee/optee_os/lib/libutee/tee_api_arith_mpi.c:115
    1914:	4621      	mov	r1, r4
    1916:	4628      	mov	r0, r5
    1918:	f001 fb2c 	bl	2f74 <mbedtls_mpi_copy>
    191c:	4602      	mov	r2, r0
    191e:	b120      	cbz	r0, 192a <get_const_mpi+0x3a>
/media/wen/My_Passport/Raspbian/raspbian-tee/raspbian-tee/optee_os/lib/libutee/tee_api_arith_mpi.c:115 (discriminator 1)
    1920:	4803      	ldr	r0, [pc, #12]	; (1930 <get_const_mpi+0x40>)
    1922:	2173      	movs	r1, #115	; 0x73
    1924:	4478      	add	r0, pc
    1926:	f7ff ffd3 	bl	18d0 <mpi_panic>
/media/wen/My_Passport/Raspbian/raspbian-tee/raspbian-tee/optee_os/lib/libutee/tee_api_arith_mpi.c:116
    192a:	b007      	add	sp, #28
    192c:	bd30      	pop	{r4, r5, pc}
    192e:	bf00      	nop
    1930:	00004aeb 	.word	0x00004aeb

00001934 <mpi_is_odd>:
mpi_is_odd():
/media/wen/My_Passport/Raspbian/raspbian-tee/raspbian-tee/optee_os/lib/libutee/tee_api_arith_mpi.c:599
    1934:	b508      	push	{r3, lr}
/media/wen/My_Passport/Raspbian/raspbian-tee/raspbian-tee/optee_os/lib/libutee/tee_api_arith_mpi.c:600
    1936:	2100      	movs	r1, #0
    1938:	f001 fbf3 	bl	3122 <mbedtls_mpi_get_bit>
/media/wen/My_Passport/Raspbian/raspbian-tee/raspbian-tee/optee_os/lib/libutee/tee_api_arith_mpi.c:601
    193c:	3000      	adds	r0, #0
    193e:	bf18      	it	ne
    1940:	2001      	movne	r0, #1
    1942:	bd08      	pop	{r3, pc}

00001944 <rng_read>:
rng_read():
/media/wen/My_Passport/Raspbian/raspbian-tee/raspbian-tee/optee_os/lib/libutee/tee_api_arith_mpi.c:763
    1944:	b508      	push	{r3, lr}
    1946:	4608      	mov	r0, r1
/media/wen/My_Passport/Raspbian/raspbian-tee/raspbian-tee/optee_os/lib/libutee/tee_api_arith_mpi.c:764
    1948:	4611      	mov	r1, r2
    194a:	f7ff eec6 	blx	16d8 <utee_cryp_random_number_generate>
    194e:	2800      	cmp	r0, #0
/media/wen/My_Passport/Raspbian/raspbian-tee/raspbian-tee/optee_os/lib/libutee/tee_api_arith_mpi.c:767
    1950:	f06f 0001 	mvn.w	r0, #1
    1954:	bf08      	it	eq
    1956:	2000      	moveq	r0, #0
    1958:	bd08      	pop	{r3, pc}

0000195a <put_mpi>:
put_mpi():
/media/wen/My_Passport/Raspbian/raspbian-tee/raspbian-tee/optee_os/lib/libutee/tee_api_arith_mpi.c:128
    195a:	7842      	ldrb	r2, [r0, #1]
    195c:	2a02      	cmp	r2, #2
    195e:	d108      	bne.n	1972 <put_mpi+0x18>
/media/wen/My_Passport/Raspbian/raspbian-tee/raspbian-tee/optee_os/lib/libutee/tee_api_arith_mpi.c:129
    1960:	6882      	ldr	r2, [r0, #8]
/media/wen/My_Passport/Raspbian/raspbian-tee/raspbian-tee/optee_os/lib/libutee/tee_api_arith_mpi.c:131
    1962:	f990 1000 	ldrsb.w	r1, [r0]
/media/wen/My_Passport/Raspbian/raspbian-tee/raspbian-tee/optee_os/lib/libutee/tee_api_arith_mpi.c:132
    1966:	8883      	ldrh	r3, [r0, #4]
/media/wen/My_Passport/Raspbian/raspbian-tee/raspbian-tee/optee_os/lib/libutee/tee_api_arith_mpi.c:131
    1968:	f842 1c08 	str.w	r1, [r2, #-8]
/media/wen/My_Passport/Raspbian/raspbian-tee/raspbian-tee/optee_os/lib/libutee/tee_api_arith_mpi.c:132
    196c:	f822 3c02 	strh.w	r3, [r2, #-2]
    1970:	4770      	bx	lr
/media/wen/My_Passport/Raspbian/raspbian-tee/raspbian-tee/optee_os/lib/libutee/tee_api_arith_mpi.c:134
    1972:	f001 ba1c 	b.w	2dae <mbedtls_mpi_free>

00001976 <mpi_egcd>:
mpi_egcd():
/media/wen/My_Passport/Raspbian/raspbian-tee/raspbian-tee/optee_os/lib/libutee/tee_api_arith_mpi.c:614
    1976:	e92d 4ff0 	stmdb	sp!, {r4, r5, r6, r7, r8, r9, sl, fp, lr}
    197a:	4681      	mov	r9, r0
    197c:	b09b      	sub	sp, #108	; 0x6c
get_mpi():
/media/wen/My_Passport/Raspbian/raspbian-tee/raspbian-tee/optee_os/lib/libutee/tee_api_arith_mpi.c:99
    197e:	f10d 0814 	add.w	r8, sp, #20
    1982:	af08      	add	r7, sp, #32
    1984:	4640      	mov	r0, r8
    1986:	ad0b      	add	r5, sp, #44	; 0x2c
mpi_egcd():
/media/wen/My_Passport/Raspbian/raspbian-tee/raspbian-tee/optee_os/lib/libutee/tee_api_arith_mpi.c:614
    1988:	9102      	str	r1, [sp, #8]
get_mpi():
/media/wen/My_Passport/Raspbian/raspbian-tee/raspbian-tee/optee_os/lib/libutee/tee_api_arith_mpi.c:99
    198a:	ac0e      	add	r4, sp, #56	; 0x38
mpi_egcd():
/media/wen/My_Passport/Raspbian/raspbian-tee/raspbian-tee/optee_os/lib/libutee/tee_api_arith_mpi.c:614
    198c:	9203      	str	r2, [sp, #12]
get_mpi():
/media/wen/My_Passport/Raspbian/raspbian-tee/raspbian-tee/optee_os/lib/libutee/tee_api_arith_mpi.c:99
    198e:	f10d 0a44 	add.w	sl, sp, #68	; 0x44
mpi_egcd():
/media/wen/My_Passport/Raspbian/raspbian-tee/raspbian-tee/optee_os/lib/libutee/tee_api_arith_mpi.c:614
    1992:	9301      	str	r3, [sp, #4]
get_mpi():
/media/wen/My_Passport/Raspbian/raspbian-tee/raspbian-tee/optee_os/lib/libutee/tee_api_arith_mpi.c:99
    1994:	f001 f9f0 	bl	2d78 <mbedtls_mpi_init_mempool>
    1998:	4638      	mov	r0, r7
    199a:	f10d 0b50 	add.w	fp, sp, #80	; 0x50
    199e:	f001 f9eb 	bl	2d78 <mbedtls_mpi_init_mempool>
    19a2:	4628      	mov	r0, r5
    19a4:	f001 f9e8 	bl	2d78 <mbedtls_mpi_init_mempool>
    19a8:	4620      	mov	r0, r4
    19aa:	f001 f9e5 	bl	2d78 <mbedtls_mpi_init_mempool>
    19ae:	4650      	mov	r0, sl
    19b0:	f001 f9e2 	bl	2d78 <mbedtls_mpi_init_mempool>
    19b4:	ae17      	add	r6, sp, #92	; 0x5c
    19b6:	4658      	mov	r0, fp
    19b8:	f001 f9de 	bl	2d78 <mbedtls_mpi_init_mempool>
    19bc:	4630      	mov	r0, r6
    19be:	f001 f9db 	bl	2d78 <mbedtls_mpi_init_mempool>
mpi_egcd():
/media/wen/My_Passport/Raspbian/raspbian-tee/raspbian-tee/optee_os/lib/libutee/tee_api_arith_mpi.c:633
    19c2:	2100      	movs	r1, #0
    19c4:	9824      	ldr	r0, [sp, #144]	; 0x90
    19c6:	f001 fd83 	bl	34d0 <mbedtls_mpi_cmp_int>
    19ca:	bb20      	cbnz	r0, 1a16 <mpi_egcd+0xa0>
/media/wen/My_Passport/Raspbian/raspbian-tee/raspbian-tee/optee_os/lib/libutee/tee_api_arith_mpi.c:634
    19cc:	2101      	movs	r1, #1
    19ce:	9802      	ldr	r0, [sp, #8]
    19d0:	f001 fb8b 	bl	30ea <mbedtls_mpi_lset>
    19d4:	4602      	mov	r2, r0
    19d6:	b130      	cbz	r0, 19e6 <mpi_egcd+0x70>
/media/wen/My_Passport/Raspbian/raspbian-tee/raspbian-tee/optee_os/lib/libutee/tee_api_arith_mpi.c:634 (discriminator 1)
    19d8:	48dd      	ldr	r0, [pc, #884]	; (1d50 <mpi_egcd+0x3da>)
    19da:	f240 217a 	movw	r1, #634	; 0x27a
    19de:	4478      	add	r0, pc
/media/wen/My_Passport/Raspbian/raspbian-tee/raspbian-tee/optee_os/lib/libutee/tee_api_arith_mpi.c:635 (discriminator 1)
    19e0:	300e      	adds	r0, #14
    19e2:	f7ff ff75 	bl	18d0 <mpi_panic>
/media/wen/My_Passport/Raspbian/raspbian-tee/raspbian-tee/optee_os/lib/libutee/tee_api_arith_mpi.c:635
    19e6:	4601      	mov	r1, r0
    19e8:	9803      	ldr	r0, [sp, #12]
    19ea:	f001 fb7e 	bl	30ea <mbedtls_mpi_lset>
    19ee:	4602      	mov	r2, r0
    19f0:	b120      	cbz	r0, 19fc <mpi_egcd+0x86>
/media/wen/My_Passport/Raspbian/raspbian-tee/raspbian-tee/optee_os/lib/libutee/tee_api_arith_mpi.c:635 (discriminator 1)
    19f2:	48d8      	ldr	r0, [pc, #864]	; (1d54 <mpi_egcd+0x3de>)
    19f4:	f240 217b 	movw	r1, #635	; 0x27b
    19f8:	4478      	add	r0, pc
    19fa:	e7f1      	b.n	19e0 <mpi_egcd+0x6a>
/media/wen/My_Passport/Raspbian/raspbian-tee/raspbian-tee/optee_os/lib/libutee/tee_api_arith_mpi.c:636
    19fc:	9901      	ldr	r1, [sp, #4]
    19fe:	4648      	mov	r0, r9
    1a00:	f001 fab8 	bl	2f74 <mbedtls_mpi_copy>
    1a04:	4602      	mov	r2, r0
    1a06:	2800      	cmp	r0, #0
    1a08:	f000 818a 	beq.w	1d20 <mpi_egcd+0x3aa>
/media/wen/My_Passport/Raspbian/raspbian-tee/raspbian-tee/optee_os/lib/libutee/tee_api_arith_mpi.c:636 (discriminator 1)
    1a0c:	48d2      	ldr	r0, [pc, #840]	; (1d58 <mpi_egcd+0x3e2>)
    1a0e:	f44f 711f 	mov.w	r1, #636	; 0x27c
    1a12:	4478      	add	r0, pc
    1a14:	e7e4      	b.n	19e0 <mpi_egcd+0x6a>
/media/wen/My_Passport/Raspbian/raspbian-tee/raspbian-tee/optee_os/lib/libutee/tee_api_arith_mpi.c:640
    1a16:	9901      	ldr	r1, [sp, #4]
    1a18:	4650      	mov	r0, sl
    1a1a:	f001 faab 	bl	2f74 <mbedtls_mpi_copy>
    1a1e:	4602      	mov	r2, r0
    1a20:	b120      	cbz	r0, 1a2c <mpi_egcd+0xb6>
/media/wen/My_Passport/Raspbian/raspbian-tee/raspbian-tee/optee_os/lib/libutee/tee_api_arith_mpi.c:640 (discriminator 1)
    1a22:	48ce      	ldr	r0, [pc, #824]	; (1d5c <mpi_egcd+0x3e6>)
    1a24:	f44f 7120 	mov.w	r1, #640	; 0x280
    1a28:	4478      	add	r0, pc
    1a2a:	e7d9      	b.n	19e0 <mpi_egcd+0x6a>
/media/wen/My_Passport/Raspbian/raspbian-tee/raspbian-tee/optee_os/lib/libutee/tee_api_arith_mpi.c:641
    1a2c:	9924      	ldr	r1, [sp, #144]	; 0x90
    1a2e:	4658      	mov	r0, fp
    1a30:	f001 faa0 	bl	2f74 <mbedtls_mpi_copy>
    1a34:	4602      	mov	r2, r0
    1a36:	b178      	cbz	r0, 1a58 <mpi_egcd+0xe2>
/media/wen/My_Passport/Raspbian/raspbian-tee/raspbian-tee/optee_os/lib/libutee/tee_api_arith_mpi.c:641 (discriminator 1)
    1a38:	48c9      	ldr	r0, [pc, #804]	; (1d60 <mpi_egcd+0x3ea>)
    1a3a:	f240 2181 	movw	r1, #641	; 0x281
    1a3e:	4478      	add	r0, pc
    1a40:	e7ce      	b.n	19e0 <mpi_egcd+0x6a>
/media/wen/My_Passport/Raspbian/raspbian-tee/raspbian-tee/optee_os/lib/libutee/tee_api_arith_mpi.c:647
    1a42:	2101      	movs	r1, #1
    1a44:	4658      	mov	r0, fp
    1a46:	f001 fc85 	bl	3354 <mbedtls_mpi_shift_r>
    1a4a:	4602      	mov	r2, r0
    1a4c:	b128      	cbz	r0, 1a5a <mpi_egcd+0xe4>
/media/wen/My_Passport/Raspbian/raspbian-tee/raspbian-tee/optee_os/lib/libutee/tee_api_arith_mpi.c:647 (discriminator 1)
    1a4e:	48c5      	ldr	r0, [pc, #788]	; (1d64 <mpi_egcd+0x3ee>)
    1a50:	f240 2187 	movw	r1, #647	; 0x287
    1a54:	4478      	add	r0, pc
    1a56:	e7c3      	b.n	19e0 <mpi_egcd+0x6a>
    1a58:	9001      	str	r0, [sp, #4]
mpi_is_even():
/media/wen/My_Passport/Raspbian/raspbian-tee/raspbian-tee/optee_os/lib/libutee/tee_api_arith_mpi.c:605
    1a5a:	4650      	mov	r0, sl
    1a5c:	f7ff ff6a 	bl	1934 <mpi_is_odd>
mpi_egcd():
/media/wen/My_Passport/Raspbian/raspbian-tee/raspbian-tee/optee_os/lib/libutee/tee_api_arith_mpi.c:644
    1a60:	b150      	cbz	r0, 1a78 <mpi_egcd+0x102>
/media/wen/My_Passport/Raspbian/raspbian-tee/raspbian-tee/optee_os/lib/libutee/tee_api_arith_mpi.c:650
    1a62:	4651      	mov	r1, sl
    1a64:	4630      	mov	r0, r6
    1a66:	f001 fa85 	bl	2f74 <mbedtls_mpi_copy>
    1a6a:	4602      	mov	r2, r0
    1a6c:	b1c0      	cbz	r0, 1aa0 <mpi_egcd+0x12a>
/media/wen/My_Passport/Raspbian/raspbian-tee/raspbian-tee/optee_os/lib/libutee/tee_api_arith_mpi.c:650 (discriminator 1)
    1a6e:	48be      	ldr	r0, [pc, #760]	; (1d68 <mpi_egcd+0x3f2>)
    1a70:	f240 218a 	movw	r1, #650	; 0x28a
    1a74:	4478      	add	r0, pc
    1a76:	e7b3      	b.n	19e0 <mpi_egcd+0x6a>
mpi_is_even():
/media/wen/My_Passport/Raspbian/raspbian-tee/raspbian-tee/optee_os/lib/libutee/tee_api_arith_mpi.c:605
    1a78:	4658      	mov	r0, fp
    1a7a:	f7ff ff5b 	bl	1934 <mpi_is_odd>
mpi_egcd():
/media/wen/My_Passport/Raspbian/raspbian-tee/raspbian-tee/optee_os/lib/libutee/tee_api_arith_mpi.c:644
    1a7e:	2800      	cmp	r0, #0
    1a80:	d1ef      	bne.n	1a62 <mpi_egcd+0xec>
/media/wen/My_Passport/Raspbian/raspbian-tee/raspbian-tee/optee_os/lib/libutee/tee_api_arith_mpi.c:645
    1a82:	9b01      	ldr	r3, [sp, #4]
/media/wen/My_Passport/Raspbian/raspbian-tee/raspbian-tee/optee_os/lib/libutee/tee_api_arith_mpi.c:646
    1a84:	2101      	movs	r1, #1
    1a86:	4650      	mov	r0, sl
/media/wen/My_Passport/Raspbian/raspbian-tee/raspbian-tee/optee_os/lib/libutee/tee_api_arith_mpi.c:645
    1a88:	3301      	adds	r3, #1
    1a8a:	9301      	str	r3, [sp, #4]
/media/wen/My_Passport/Raspbian/raspbian-tee/raspbian-tee/optee_os/lib/libutee/tee_api_arith_mpi.c:646
    1a8c:	f001 fc62 	bl	3354 <mbedtls_mpi_shift_r>
    1a90:	4602      	mov	r2, r0
    1a92:	2800      	cmp	r0, #0
    1a94:	d0d5      	beq.n	1a42 <mpi_egcd+0xcc>
/media/wen/My_Passport/Raspbian/raspbian-tee/raspbian-tee/optee_os/lib/libutee/tee_api_arith_mpi.c:646 (discriminator 1)
    1a96:	48b5      	ldr	r0, [pc, #724]	; (1d6c <mpi_egcd+0x3f6>)
    1a98:	f240 2186 	movw	r1, #646	; 0x286
    1a9c:	4478      	add	r0, pc
    1a9e:	e79f      	b.n	19e0 <mpi_egcd+0x6a>
/media/wen/My_Passport/Raspbian/raspbian-tee/raspbian-tee/optee_os/lib/libutee/tee_api_arith_mpi.c:651
    1aa0:	4659      	mov	r1, fp
    1aa2:	4648      	mov	r0, r9
    1aa4:	f001 fa66 	bl	2f74 <mbedtls_mpi_copy>
    1aa8:	4602      	mov	r2, r0
    1aaa:	b120      	cbz	r0, 1ab6 <mpi_egcd+0x140>
/media/wen/My_Passport/Raspbian/raspbian-tee/raspbian-tee/optee_os/lib/libutee/tee_api_arith_mpi.c:651 (discriminator 1)
    1aac:	48b0      	ldr	r0, [pc, #704]	; (1d70 <mpi_egcd+0x3fa>)
    1aae:	f240 218b 	movw	r1, #651	; 0x28b
    1ab2:	4478      	add	r0, pc
    1ab4:	e794      	b.n	19e0 <mpi_egcd+0x6a>
/media/wen/My_Passport/Raspbian/raspbian-tee/raspbian-tee/optee_os/lib/libutee/tee_api_arith_mpi.c:652
    1ab6:	2101      	movs	r1, #1
    1ab8:	4640      	mov	r0, r8
    1aba:	f001 fb16 	bl	30ea <mbedtls_mpi_lset>
    1abe:	4602      	mov	r2, r0
    1ac0:	b120      	cbz	r0, 1acc <mpi_egcd+0x156>
/media/wen/My_Passport/Raspbian/raspbian-tee/raspbian-tee/optee_os/lib/libutee/tee_api_arith_mpi.c:652 (discriminator 1)
    1ac2:	48ac      	ldr	r0, [pc, #688]	; (1d74 <mpi_egcd+0x3fe>)
    1ac4:	f44f 7123 	mov.w	r1, #652	; 0x28c
    1ac8:	4478      	add	r0, pc
    1aca:	e789      	b.n	19e0 <mpi_egcd+0x6a>
/media/wen/My_Passport/Raspbian/raspbian-tee/raspbian-tee/optee_os/lib/libutee/tee_api_arith_mpi.c:653
    1acc:	4601      	mov	r1, r0
    1ace:	4638      	mov	r0, r7
    1ad0:	f001 fb0b 	bl	30ea <mbedtls_mpi_lset>
    1ad4:	4602      	mov	r2, r0
    1ad6:	b120      	cbz	r0, 1ae2 <mpi_egcd+0x16c>
/media/wen/My_Passport/Raspbian/raspbian-tee/raspbian-tee/optee_os/lib/libutee/tee_api_arith_mpi.c:653 (discriminator 1)
    1ad8:	48a7      	ldr	r0, [pc, #668]	; (1d78 <mpi_egcd+0x402>)
    1ada:	f240 218d 	movw	r1, #653	; 0x28d
    1ade:	4478      	add	r0, pc
    1ae0:	e77e      	b.n	19e0 <mpi_egcd+0x6a>
/media/wen/My_Passport/Raspbian/raspbian-tee/raspbian-tee/optee_os/lib/libutee/tee_api_arith_mpi.c:654
    1ae2:	4601      	mov	r1, r0
    1ae4:	4628      	mov	r0, r5
    1ae6:	f001 fb00 	bl	30ea <mbedtls_mpi_lset>
    1aea:	4602      	mov	r2, r0
    1aec:	b120      	cbz	r0, 1af8 <mpi_egcd+0x182>
/media/wen/My_Passport/Raspbian/raspbian-tee/raspbian-tee/optee_os/lib/libutee/tee_api_arith_mpi.c:654 (discriminator 1)
    1aee:	48a3      	ldr	r0, [pc, #652]	; (1d7c <mpi_egcd+0x406>)
    1af0:	f240 218e 	movw	r1, #654	; 0x28e
    1af4:	4478      	add	r0, pc
    1af6:	e773      	b.n	19e0 <mpi_egcd+0x6a>
/media/wen/My_Passport/Raspbian/raspbian-tee/raspbian-tee/optee_os/lib/libutee/tee_api_arith_mpi.c:655
    1af8:	2101      	movs	r1, #1
    1afa:	4620      	mov	r0, r4
    1afc:	f001 faf5 	bl	30ea <mbedtls_mpi_lset>
    1b00:	4602      	mov	r2, r0
    1b02:	2800      	cmp	r0, #0
    1b04:	f000 80e4 	beq.w	1cd0 <mpi_egcd+0x35a>
/media/wen/My_Passport/Raspbian/raspbian-tee/raspbian-tee/optee_os/lib/libutee/tee_api_arith_mpi.c:655 (discriminator 1)
    1b08:	489d      	ldr	r0, [pc, #628]	; (1d80 <mpi_egcd+0x40a>)
    1b0a:	f240 218f 	movw	r1, #655	; 0x28f
    1b0e:	4478      	add	r0, pc
    1b10:	e766      	b.n	19e0 <mpi_egcd+0x6a>
/media/wen/My_Passport/Raspbian/raspbian-tee/raspbian-tee/optee_os/lib/libutee/tee_api_arith_mpi.c:659
    1b12:	2101      	movs	r1, #1
    1b14:	4630      	mov	r0, r6
    1b16:	f001 fc1d 	bl	3354 <mbedtls_mpi_shift_r>
    1b1a:	4602      	mov	r2, r0
    1b1c:	b120      	cbz	r0, 1b28 <mpi_egcd+0x1b2>
/media/wen/My_Passport/Raspbian/raspbian-tee/raspbian-tee/optee_os/lib/libutee/tee_api_arith_mpi.c:659 (discriminator 1)
    1b1e:	4899      	ldr	r0, [pc, #612]	; (1d84 <mpi_egcd+0x40e>)
    1b20:	f240 2193 	movw	r1, #659	; 0x293
    1b24:	4478      	add	r0, pc
    1b26:	e75b      	b.n	19e0 <mpi_egcd+0x6a>
/media/wen/My_Passport/Raspbian/raspbian-tee/raspbian-tee/optee_os/lib/libutee/tee_api_arith_mpi.c:660
    1b28:	4640      	mov	r0, r8
    1b2a:	f7ff ff03 	bl	1934 <mpi_is_odd>
    1b2e:	b158      	cbz	r0, 1b48 <mpi_egcd+0x1d2>
/media/wen/My_Passport/Raspbian/raspbian-tee/raspbian-tee/optee_os/lib/libutee/tee_api_arith_mpi.c:661
    1b30:	465a      	mov	r2, fp
    1b32:	4641      	mov	r1, r8
    1b34:	4640      	mov	r0, r8
    1b36:	f001 fd7e 	bl	3636 <mbedtls_mpi_add_mpi>
    1b3a:	4602      	mov	r2, r0
    1b3c:	b1a0      	cbz	r0, 1b68 <mpi_egcd+0x1f2>
/media/wen/My_Passport/Raspbian/raspbian-tee/raspbian-tee/optee_os/lib/libutee/tee_api_arith_mpi.c:661 (discriminator 1)
    1b3e:	4892      	ldr	r0, [pc, #584]	; (1d88 <mpi_egcd+0x412>)
    1b40:	f240 2195 	movw	r1, #661	; 0x295
    1b44:	4478      	add	r0, pc
    1b46:	e74b      	b.n	19e0 <mpi_egcd+0x6a>
/media/wen/My_Passport/Raspbian/raspbian-tee/raspbian-tee/optee_os/lib/libutee/tee_api_arith_mpi.c:660 (discriminator 1)
    1b48:	4638      	mov	r0, r7
    1b4a:	f7ff fef3 	bl	1934 <mpi_is_odd>
    1b4e:	2800      	cmp	r0, #0
    1b50:	d1ee      	bne.n	1b30 <mpi_egcd+0x1ba>
/media/wen/My_Passport/Raspbian/raspbian-tee/raspbian-tee/optee_os/lib/libutee/tee_api_arith_mpi.c:664
    1b52:	2101      	movs	r1, #1
    1b54:	4640      	mov	r0, r8
    1b56:	f001 fbfd 	bl	3354 <mbedtls_mpi_shift_r>
    1b5a:	4602      	mov	r2, r0
    1b5c:	b188      	cbz	r0, 1b82 <mpi_egcd+0x20c>
/media/wen/My_Passport/Raspbian/raspbian-tee/raspbian-tee/optee_os/lib/libutee/tee_api_arith_mpi.c:664 (discriminator 1)
    1b5e:	488b      	ldr	r0, [pc, #556]	; (1d8c <mpi_egcd+0x416>)
    1b60:	f44f 7126 	mov.w	r1, #664	; 0x298
    1b64:	4478      	add	r0, pc
    1b66:	e73b      	b.n	19e0 <mpi_egcd+0x6a>
/media/wen/My_Passport/Raspbian/raspbian-tee/raspbian-tee/optee_os/lib/libutee/tee_api_arith_mpi.c:662
    1b68:	4652      	mov	r2, sl
    1b6a:	4639      	mov	r1, r7
    1b6c:	4638      	mov	r0, r7
    1b6e:	f001 fd86 	bl	367e <mbedtls_mpi_sub_mpi>
    1b72:	4602      	mov	r2, r0
    1b74:	2800      	cmp	r0, #0
    1b76:	d0ec      	beq.n	1b52 <mpi_egcd+0x1dc>
/media/wen/My_Passport/Raspbian/raspbian-tee/raspbian-tee/optee_os/lib/libutee/tee_api_arith_mpi.c:662 (discriminator 1)
    1b78:	4885      	ldr	r0, [pc, #532]	; (1d90 <mpi_egcd+0x41a>)
    1b7a:	f240 2196 	movw	r1, #662	; 0x296
    1b7e:	4478      	add	r0, pc
    1b80:	e72e      	b.n	19e0 <mpi_egcd+0x6a>
/media/wen/My_Passport/Raspbian/raspbian-tee/raspbian-tee/optee_os/lib/libutee/tee_api_arith_mpi.c:665
    1b82:	2101      	movs	r1, #1
    1b84:	4638      	mov	r0, r7
    1b86:	f001 fbe5 	bl	3354 <mbedtls_mpi_shift_r>
    1b8a:	4602      	mov	r2, r0
    1b8c:	b120      	cbz	r0, 1b98 <mpi_egcd+0x222>
/media/wen/My_Passport/Raspbian/raspbian-tee/raspbian-tee/optee_os/lib/libutee/tee_api_arith_mpi.c:665 (discriminator 1)
    1b8e:	4881      	ldr	r0, [pc, #516]	; (1d94 <mpi_egcd+0x41e>)
    1b90:	f240 2199 	movw	r1, #665	; 0x299
    1b94:	4478      	add	r0, pc
    1b96:	e723      	b.n	19e0 <mpi_egcd+0x6a>
mpi_is_even():
/media/wen/My_Passport/Raspbian/raspbian-tee/raspbian-tee/optee_os/lib/libutee/tee_api_arith_mpi.c:605
    1b98:	4630      	mov	r0, r6
    1b9a:	f7ff fecb 	bl	1934 <mpi_is_odd>
mpi_egcd():
/media/wen/My_Passport/Raspbian/raspbian-tee/raspbian-tee/optee_os/lib/libutee/tee_api_arith_mpi.c:658
    1b9e:	2800      	cmp	r0, #0
    1ba0:	d0b7      	beq.n	1b12 <mpi_egcd+0x19c>
mpi_is_even():
/media/wen/My_Passport/Raspbian/raspbian-tee/raspbian-tee/optee_os/lib/libutee/tee_api_arith_mpi.c:605
    1ba2:	4648      	mov	r0, r9
    1ba4:	f7ff fec6 	bl	1934 <mpi_is_odd>
mpi_egcd():
/media/wen/My_Passport/Raspbian/raspbian-tee/raspbian-tee/optee_os/lib/libutee/tee_api_arith_mpi.c:668
    1ba8:	b190      	cbz	r0, 1bd0 <mpi_egcd+0x25a>
/media/wen/My_Passport/Raspbian/raspbian-tee/raspbian-tee/optee_os/lib/libutee/tee_api_arith_mpi.c:679
    1baa:	4649      	mov	r1, r9
    1bac:	4630      	mov	r0, r6
    1bae:	f001 fc44 	bl	343a <mbedtls_mpi_cmp_mpi>
    1bb2:	2800      	cmp	r0, #0
    1bb4:	db68      	blt.n	1c88 <mpi_egcd+0x312>
/media/wen/My_Passport/Raspbian/raspbian-tee/raspbian-tee/optee_os/lib/libutee/tee_api_arith_mpi.c:680
    1bb6:	464a      	mov	r2, r9
    1bb8:	4631      	mov	r1, r6
    1bba:	4630      	mov	r0, r6
    1bbc:	f001 fd5f 	bl	367e <mbedtls_mpi_sub_mpi>
    1bc0:	4602      	mov	r2, r0
    1bc2:	2800      	cmp	r0, #0
    1bc4:	d048      	beq.n	1c58 <mpi_egcd+0x2e2>
/media/wen/My_Passport/Raspbian/raspbian-tee/raspbian-tee/optee_os/lib/libutee/tee_api_arith_mpi.c:680 (discriminator 1)
    1bc6:	4874      	ldr	r0, [pc, #464]	; (1d98 <mpi_egcd+0x422>)
    1bc8:	f44f 712a 	mov.w	r1, #680	; 0x2a8
    1bcc:	4478      	add	r0, pc
    1bce:	e707      	b.n	19e0 <mpi_egcd+0x6a>
/media/wen/My_Passport/Raspbian/raspbian-tee/raspbian-tee/optee_os/lib/libutee/tee_api_arith_mpi.c:669
    1bd0:	2101      	movs	r1, #1
    1bd2:	4648      	mov	r0, r9
    1bd4:	f001 fbbe 	bl	3354 <mbedtls_mpi_shift_r>
    1bd8:	4602      	mov	r2, r0
    1bda:	b120      	cbz	r0, 1be6 <mpi_egcd+0x270>
/media/wen/My_Passport/Raspbian/raspbian-tee/raspbian-tee/optee_os/lib/libutee/tee_api_arith_mpi.c:669 (discriminator 1)
    1bdc:	486f      	ldr	r0, [pc, #444]	; (1d9c <mpi_egcd+0x426>)
    1bde:	f240 219d 	movw	r1, #669	; 0x29d
    1be2:	4478      	add	r0, pc
    1be4:	e6fc      	b.n	19e0 <mpi_egcd+0x6a>
/media/wen/My_Passport/Raspbian/raspbian-tee/raspbian-tee/optee_os/lib/libutee/tee_api_arith_mpi.c:670
    1be6:	4628      	mov	r0, r5
    1be8:	f7ff fea4 	bl	1934 <mpi_is_odd>
    1bec:	b158      	cbz	r0, 1c06 <mpi_egcd+0x290>
/media/wen/My_Passport/Raspbian/raspbian-tee/raspbian-tee/optee_os/lib/libutee/tee_api_arith_mpi.c:671
    1bee:	465a      	mov	r2, fp
    1bf0:	4629      	mov	r1, r5
    1bf2:	4628      	mov	r0, r5
    1bf4:	f001 fd1f 	bl	3636 <mbedtls_mpi_add_mpi>
    1bf8:	4602      	mov	r2, r0
    1bfa:	b1a0      	cbz	r0, 1c26 <mpi_egcd+0x2b0>
/media/wen/My_Passport/Raspbian/raspbian-tee/raspbian-tee/optee_os/lib/libutee/tee_api_arith_mpi.c:671 (discriminator 1)
    1bfc:	4868      	ldr	r0, [pc, #416]	; (1da0 <mpi_egcd+0x42a>)
    1bfe:	f240 219f 	movw	r1, #671	; 0x29f
    1c02:	4478      	add	r0, pc
    1c04:	e6ec      	b.n	19e0 <mpi_egcd+0x6a>
/media/wen/My_Passport/Raspbian/raspbian-tee/raspbian-tee/optee_os/lib/libutee/tee_api_arith_mpi.c:670 (discriminator 1)
    1c06:	4620      	mov	r0, r4
    1c08:	f7ff fe94 	bl	1934 <mpi_is_odd>
    1c0c:	2800      	cmp	r0, #0
    1c0e:	d1ee      	bne.n	1bee <mpi_egcd+0x278>
/media/wen/My_Passport/Raspbian/raspbian-tee/raspbian-tee/optee_os/lib/libutee/tee_api_arith_mpi.c:674
    1c10:	2101      	movs	r1, #1
    1c12:	4628      	mov	r0, r5
    1c14:	f001 fb9e 	bl	3354 <mbedtls_mpi_shift_r>
    1c18:	4602      	mov	r2, r0
    1c1a:	b188      	cbz	r0, 1c40 <mpi_egcd+0x2ca>
/media/wen/My_Passport/Raspbian/raspbian-tee/raspbian-tee/optee_os/lib/libutee/tee_api_arith_mpi.c:674 (discriminator 1)
    1c1c:	4861      	ldr	r0, [pc, #388]	; (1da4 <mpi_egcd+0x42e>)
    1c1e:	f240 21a2 	movw	r1, #674	; 0x2a2
    1c22:	4478      	add	r0, pc
    1c24:	e6dc      	b.n	19e0 <mpi_egcd+0x6a>
/media/wen/My_Passport/Raspbian/raspbian-tee/raspbian-tee/optee_os/lib/libutee/tee_api_arith_mpi.c:672
    1c26:	4652      	mov	r2, sl
    1c28:	4621      	mov	r1, r4
    1c2a:	4620      	mov	r0, r4
    1c2c:	f001 fd27 	bl	367e <mbedtls_mpi_sub_mpi>
    1c30:	4602      	mov	r2, r0
    1c32:	2800      	cmp	r0, #0
    1c34:	d0ec      	beq.n	1c10 <mpi_egcd+0x29a>
/media/wen/My_Passport/Raspbian/raspbian-tee/raspbian-tee/optee_os/lib/libutee/tee_api_arith_mpi.c:672 (discriminator 1)
    1c36:	485c      	ldr	r0, [pc, #368]	; (1da8 <mpi_egcd+0x432>)
    1c38:	f44f 7128 	mov.w	r1, #672	; 0x2a0
    1c3c:	4478      	add	r0, pc
    1c3e:	e6cf      	b.n	19e0 <mpi_egcd+0x6a>
/media/wen/My_Passport/Raspbian/raspbian-tee/raspbian-tee/optee_os/lib/libutee/tee_api_arith_mpi.c:675
    1c40:	2101      	movs	r1, #1
    1c42:	4620      	mov	r0, r4
    1c44:	f001 fb86 	bl	3354 <mbedtls_mpi_shift_r>
    1c48:	4602      	mov	r2, r0
    1c4a:	2800      	cmp	r0, #0
    1c4c:	d0a9      	beq.n	1ba2 <mpi_egcd+0x22c>
/media/wen/My_Passport/Raspbian/raspbian-tee/raspbian-tee/optee_os/lib/libutee/tee_api_arith_mpi.c:675 (discriminator 1)
    1c4e:	4857      	ldr	r0, [pc, #348]	; (1dac <mpi_egcd+0x436>)
    1c50:	f240 21a3 	movw	r1, #675	; 0x2a3
    1c54:	4478      	add	r0, pc
    1c56:	e6c3      	b.n	19e0 <mpi_egcd+0x6a>
/media/wen/My_Passport/Raspbian/raspbian-tee/raspbian-tee/optee_os/lib/libutee/tee_api_arith_mpi.c:681
    1c58:	462a      	mov	r2, r5
    1c5a:	4641      	mov	r1, r8
    1c5c:	4640      	mov	r0, r8
    1c5e:	f001 fd0e 	bl	367e <mbedtls_mpi_sub_mpi>
    1c62:	4602      	mov	r2, r0
    1c64:	b120      	cbz	r0, 1c70 <mpi_egcd+0x2fa>
/media/wen/My_Passport/Raspbian/raspbian-tee/raspbian-tee/optee_os/lib/libutee/tee_api_arith_mpi.c:681 (discriminator 1)
    1c66:	4852      	ldr	r0, [pc, #328]	; (1db0 <mpi_egcd+0x43a>)
    1c68:	f240 21a9 	movw	r1, #681	; 0x2a9
    1c6c:	4478      	add	r0, pc
    1c6e:	e6b7      	b.n	19e0 <mpi_egcd+0x6a>
/media/wen/My_Passport/Raspbian/raspbian-tee/raspbian-tee/optee_os/lib/libutee/tee_api_arith_mpi.c:682
    1c70:	4622      	mov	r2, r4
    1c72:	4639      	mov	r1, r7
    1c74:	4638      	mov	r0, r7
    1c76:	f001 fd02 	bl	367e <mbedtls_mpi_sub_mpi>
    1c7a:	4602      	mov	r2, r0
    1c7c:	b340      	cbz	r0, 1cd0 <mpi_egcd+0x35a>
/media/wen/My_Passport/Raspbian/raspbian-tee/raspbian-tee/optee_os/lib/libutee/tee_api_arith_mpi.c:682 (discriminator 1)
    1c7e:	484d      	ldr	r0, [pc, #308]	; (1db4 <mpi_egcd+0x43e>)
    1c80:	f240 21aa 	movw	r1, #682	; 0x2aa
    1c84:	4478      	add	r0, pc
    1c86:	e6ab      	b.n	19e0 <mpi_egcd+0x6a>
/media/wen/My_Passport/Raspbian/raspbian-tee/raspbian-tee/optee_os/lib/libutee/tee_api_arith_mpi.c:684
    1c88:	4632      	mov	r2, r6
    1c8a:	4649      	mov	r1, r9
    1c8c:	4648      	mov	r0, r9
    1c8e:	f001 fcf6 	bl	367e <mbedtls_mpi_sub_mpi>
    1c92:	4602      	mov	r2, r0
    1c94:	b120      	cbz	r0, 1ca0 <mpi_egcd+0x32a>
/media/wen/My_Passport/Raspbian/raspbian-tee/raspbian-tee/optee_os/lib/libutee/tee_api_arith_mpi.c:684 (discriminator 1)
    1c96:	4848      	ldr	r0, [pc, #288]	; (1db8 <mpi_egcd+0x442>)
    1c98:	f44f 712b 	mov.w	r1, #684	; 0x2ac
    1c9c:	4478      	add	r0, pc
    1c9e:	e69f      	b.n	19e0 <mpi_egcd+0x6a>
/media/wen/My_Passport/Raspbian/raspbian-tee/raspbian-tee/optee_os/lib/libutee/tee_api_arith_mpi.c:685
    1ca0:	4642      	mov	r2, r8
    1ca2:	4629      	mov	r1, r5
    1ca4:	4628      	mov	r0, r5
    1ca6:	f001 fcea 	bl	367e <mbedtls_mpi_sub_mpi>
    1caa:	4602      	mov	r2, r0
    1cac:	b120      	cbz	r0, 1cb8 <mpi_egcd+0x342>
/media/wen/My_Passport/Raspbian/raspbian-tee/raspbian-tee/optee_os/lib/libutee/tee_api_arith_mpi.c:685 (discriminator 1)
    1cae:	4843      	ldr	r0, [pc, #268]	; (1dbc <mpi_egcd+0x446>)
    1cb0:	f240 21ad 	movw	r1, #685	; 0x2ad
    1cb4:	4478      	add	r0, pc
    1cb6:	e693      	b.n	19e0 <mpi_egcd+0x6a>
/media/wen/My_Passport/Raspbian/raspbian-tee/raspbian-tee/optee_os/lib/libutee/tee_api_arith_mpi.c:686
    1cb8:	463a      	mov	r2, r7
    1cba:	4621      	mov	r1, r4
    1cbc:	4620      	mov	r0, r4
    1cbe:	f001 fcde 	bl	367e <mbedtls_mpi_sub_mpi>
    1cc2:	4602      	mov	r2, r0
    1cc4:	b120      	cbz	r0, 1cd0 <mpi_egcd+0x35a>
/media/wen/My_Passport/Raspbian/raspbian-tee/raspbian-tee/optee_os/lib/libutee/tee_api_arith_mpi.c:686 (discriminator 1)
    1cc6:	483e      	ldr	r0, [pc, #248]	; (1dc0 <mpi_egcd+0x44a>)
    1cc8:	f240 21ae 	movw	r1, #686	; 0x2ae
    1ccc:	4478      	add	r0, pc
    1cce:	e687      	b.n	19e0 <mpi_egcd+0x6a>
/media/wen/My_Passport/Raspbian/raspbian-tee/raspbian-tee/optee_os/lib/libutee/tee_api_arith_mpi.c:657
    1cd0:	2100      	movs	r1, #0
    1cd2:	4630      	mov	r0, r6
    1cd4:	f001 fbfc 	bl	34d0 <mbedtls_mpi_cmp_int>
    1cd8:	2800      	cmp	r0, #0
    1cda:	f47f af5d 	bne.w	1b98 <mpi_egcd+0x222>
/media/wen/My_Passport/Raspbian/raspbian-tee/raspbian-tee/optee_os/lib/libutee/tee_api_arith_mpi.c:690
    1cde:	4629      	mov	r1, r5
    1ce0:	9802      	ldr	r0, [sp, #8]
    1ce2:	f001 f947 	bl	2f74 <mbedtls_mpi_copy>
    1ce6:	4602      	mov	r2, r0
    1ce8:	b120      	cbz	r0, 1cf4 <mpi_egcd+0x37e>
/media/wen/My_Passport/Raspbian/raspbian-tee/raspbian-tee/optee_os/lib/libutee/tee_api_arith_mpi.c:690 (discriminator 1)
    1cea:	4836      	ldr	r0, [pc, #216]	; (1dc4 <mpi_egcd+0x44e>)
    1cec:	f240 21b2 	movw	r1, #690	; 0x2b2
    1cf0:	4478      	add	r0, pc
    1cf2:	e675      	b.n	19e0 <mpi_egcd+0x6a>
/media/wen/My_Passport/Raspbian/raspbian-tee/raspbian-tee/optee_os/lib/libutee/tee_api_arith_mpi.c:691
    1cf4:	4621      	mov	r1, r4
    1cf6:	9803      	ldr	r0, [sp, #12]
    1cf8:	f001 f93c 	bl	2f74 <mbedtls_mpi_copy>
    1cfc:	4602      	mov	r2, r0
    1cfe:	b120      	cbz	r0, 1d0a <mpi_egcd+0x394>
/media/wen/My_Passport/Raspbian/raspbian-tee/raspbian-tee/optee_os/lib/libutee/tee_api_arith_mpi.c:691 (discriminator 1)
    1d00:	4831      	ldr	r0, [pc, #196]	; (1dc8 <mpi_egcd+0x452>)
    1d02:	f240 21b3 	movw	r1, #691	; 0x2b3
    1d06:	4478      	add	r0, pc
    1d08:	e66a      	b.n	19e0 <mpi_egcd+0x6a>
/media/wen/My_Passport/Raspbian/raspbian-tee/raspbian-tee/optee_os/lib/libutee/tee_api_arith_mpi.c:692
    1d0a:	9901      	ldr	r1, [sp, #4]
    1d0c:	4648      	mov	r0, r9
    1d0e:	f001 fad5 	bl	32bc <mbedtls_mpi_shift_l>
    1d12:	4602      	mov	r2, r0
    1d14:	b120      	cbz	r0, 1d20 <mpi_egcd+0x3aa>
/media/wen/My_Passport/Raspbian/raspbian-tee/raspbian-tee/optee_os/lib/libutee/tee_api_arith_mpi.c:692 (discriminator 1)
    1d16:	482d      	ldr	r0, [pc, #180]	; (1dcc <mpi_egcd+0x456>)
    1d18:	f44f 712d 	mov.w	r1, #692	; 0x2b4
    1d1c:	4478      	add	r0, pc
    1d1e:	e65f      	b.n	19e0 <mpi_egcd+0x6a>
/media/wen/My_Passport/Raspbian/raspbian-tee/raspbian-tee/optee_os/lib/libutee/tee_api_arith_mpi.c:695
    1d20:	4640      	mov	r0, r8
    1d22:	f7ff fe1a 	bl	195a <put_mpi>
/media/wen/My_Passport/Raspbian/raspbian-tee/raspbian-tee/optee_os/lib/libutee/tee_api_arith_mpi.c:696
    1d26:	4638      	mov	r0, r7
    1d28:	f7ff fe17 	bl	195a <put_mpi>
/media/wen/My_Passport/Raspbian/raspbian-tee/raspbian-tee/optee_os/lib/libutee/tee_api_arith_mpi.c:697
    1d2c:	4628      	mov	r0, r5
    1d2e:	f7ff fe14 	bl	195a <put_mpi>
/media/wen/My_Passport/Raspbian/raspbian-tee/raspbian-tee/optee_os/lib/libutee/tee_api_arith_mpi.c:698
    1d32:	4620      	mov	r0, r4
    1d34:	f7ff fe11 	bl	195a <put_mpi>
/media/wen/My_Passport/Raspbian/raspbian-tee/raspbian-tee/optee_os/lib/libutee/tee_api_arith_mpi.c:699
    1d38:	4650      	mov	r0, sl
    1d3a:	f7ff fe0e 	bl	195a <put_mpi>
/media/wen/My_Passport/Raspbian/raspbian-tee/raspbian-tee/optee_os/lib/libutee/tee_api_arith_mpi.c:700
    1d3e:	4658      	mov	r0, fp
    1d40:	f7ff fe0b 	bl	195a <put_mpi>
/media/wen/My_Passport/Raspbian/raspbian-tee/raspbian-tee/optee_os/lib/libutee/tee_api_arith_mpi.c:701
    1d44:	4630      	mov	r0, r6
    1d46:	f7ff fe08 	bl	195a <put_mpi>
/media/wen/My_Passport/Raspbian/raspbian-tee/raspbian-tee/optee_os/lib/libutee/tee_api_arith_mpi.c:702
    1d4a:	b01b      	add	sp, #108	; 0x6c
    1d4c:	e8bd 8ff0 	ldmia.w	sp!, {r4, r5, r6, r7, r8, r9, sl, fp, pc}
    1d50:	00004a31 	.word	0x00004a31
    1d54:	00004a17 	.word	0x00004a17
    1d58:	000049fd 	.word	0x000049fd
    1d5c:	000049e7 	.word	0x000049e7
    1d60:	000049d1 	.word	0x000049d1
    1d64:	000049bb 	.word	0x000049bb
    1d68:	0000499b 	.word	0x0000499b
    1d6c:	00004973 	.word	0x00004973
    1d70:	0000495d 	.word	0x0000495d
    1d74:	00004947 	.word	0x00004947
    1d78:	00004931 	.word	0x00004931
    1d7c:	0000491b 	.word	0x0000491b
    1d80:	00004901 	.word	0x00004901
    1d84:	000048eb 	.word	0x000048eb
    1d88:	000048cb 	.word	0x000048cb
    1d8c:	000048ab 	.word	0x000048ab
    1d90:	00004891 	.word	0x00004891
    1d94:	0000487b 	.word	0x0000487b
    1d98:	00004843 	.word	0x00004843
    1d9c:	0000482d 	.word	0x0000482d
    1da0:	0000480d 	.word	0x0000480d
    1da4:	000047ed 	.word	0x000047ed
    1da8:	000047d3 	.word	0x000047d3
    1dac:	000047bb 	.word	0x000047bb
    1db0:	000047a3 	.word	0x000047a3
    1db4:	0000478b 	.word	0x0000478b
    1db8:	00004773 	.word	0x00004773
    1dbc:	0000475b 	.word	0x0000475b
    1dc0:	00004743 	.word	0x00004743
    1dc4:	0000471f 	.word	0x0000471f
    1dc8:	00004709 	.word	0x00004709
    1dcc:	000046f3 	.word	0x000046f3

00001dd0 <get_mpi>:
get_mpi():
/media/wen/My_Passport/Raspbian/raspbian-tee/raspbian-tee/optee_os/lib/libutee/tee_api_arith_mpi.c:81
    1dd0:	b507      	push	{r0, r1, r2, lr}
/media/wen/My_Passport/Raspbian/raspbian-tee/raspbian-tee/optee_os/lib/libutee/tee_api_arith_mpi.c:96
    1dd2:	b151      	cbz	r1, 1dea <get_mpi+0x1a>
init_static_mpi():
/media/wen/My_Passport/Raspbian/raspbian-tee/raspbian-tee/optee_os/lib/libutee/tee_api_arith_mpi.c:65
    1dd4:	88ca      	ldrh	r2, [r1, #6]
    1dd6:	888b      	ldrh	r3, [r1, #4]
    1dd8:	3108      	adds	r1, #8
    1dda:	9200      	str	r2, [sp, #0]
    1ddc:	f851 2c08 	ldr.w	r2, [r1, #-8]
    1de0:	f000 ffdc 	bl	2d9c <mbedtls_mpi_init_static>
get_mpi():
/media/wen/My_Passport/Raspbian/raspbian-tee/raspbian-tee/optee_os/lib/libutee/tee_api_arith_mpi.c:100
    1de4:	b003      	add	sp, #12
    1de6:	f85d fb04 	ldr.w	pc, [sp], #4
    1dea:	b003      	add	sp, #12
    1dec:	f85d eb04 	ldr.w	lr, [sp], #4
/media/wen/My_Passport/Raspbian/raspbian-tee/raspbian-tee/optee_os/lib/libutee/tee_api_arith_mpi.c:99
    1df0:	f000 bfc2 	b.w	2d78 <mbedtls_mpi_init_mempool>

00001df4 <bigint_binary>:
bigint_binary():
/media/wen/My_Passport/Raspbian/raspbian-tee/raspbian-tee/optee_os/lib/libutee/tee_api_arith_mpi.c:336
    1df4:	e92d 47f0 	stmdb	sp!, {r4, r5, r6, r7, r8, r9, sl, lr}
    1df8:	4607      	mov	r7, r0
    1dfa:	4689      	mov	r9, r1
    1dfc:	b08a      	sub	sp, #40	; 0x28
/media/wen/My_Passport/Raspbian/raspbian-tee/raspbian-tee/optee_os/lib/libutee/tee_api_arith_mpi.c:343
    1dfe:	4601      	mov	r1, r0
    1e00:	ae01      	add	r6, sp, #4
/media/wen/My_Passport/Raspbian/raspbian-tee/raspbian-tee/optee_os/lib/libutee/tee_api_arith_mpi.c:336
    1e02:	4614      	mov	r4, r2
/media/wen/My_Passport/Raspbian/raspbian-tee/raspbian-tee/optee_os/lib/libutee/tee_api_arith_mpi.c:343
    1e04:	4630      	mov	r0, r6
/media/wen/My_Passport/Raspbian/raspbian-tee/raspbian-tee/optee_os/lib/libutee/tee_api_arith_mpi.c:336
    1e06:	469a      	mov	sl, r3
/media/wen/My_Passport/Raspbian/raspbian-tee/raspbian-tee/optee_os/lib/libutee/tee_api_arith_mpi.c:343
    1e08:	f7ff ffe2 	bl	1dd0 <get_mpi>
/media/wen/My_Passport/Raspbian/raspbian-tee/raspbian-tee/optee_os/lib/libutee/tee_api_arith_mpi.c:345
    1e0c:	454f      	cmp	r7, r9
    1e0e:	f10d 0810 	add.w	r8, sp, #16
    1e12:	d01b      	beq.n	1e4c <bigint_binary+0x58>
/media/wen/My_Passport/Raspbian/raspbian-tee/raspbian-tee/optee_os/lib/libutee/tee_api_arith_mpi.c:340
    1e14:	4645      	mov	r5, r8
/media/wen/My_Passport/Raspbian/raspbian-tee/raspbian-tee/optee_os/lib/libutee/tee_api_arith_mpi.c:348
    1e16:	4649      	mov	r1, r9
    1e18:	4640      	mov	r0, r8
    1e1a:	f7ff fd69 	bl	18f0 <get_const_mpi>
/media/wen/My_Passport/Raspbian/raspbian-tee/raspbian-tee/optee_os/lib/libutee/tee_api_arith_mpi.c:350
    1e1e:	42a7      	cmp	r7, r4
    1e20:	af07      	add	r7, sp, #28
    1e22:	d015      	beq.n	1e50 <bigint_binary+0x5c>
/media/wen/My_Passport/Raspbian/raspbian-tee/raspbian-tee/optee_os/lib/libutee/tee_api_arith_mpi.c:352
    1e24:	45a1      	cmp	r9, r4
    1e26:	d015      	beq.n	1e54 <bigint_binary+0x60>
/media/wen/My_Passport/Raspbian/raspbian-tee/raspbian-tee/optee_os/lib/libutee/tee_api_arith_mpi.c:355
    1e28:	4621      	mov	r1, r4
/media/wen/My_Passport/Raspbian/raspbian-tee/raspbian-tee/optee_os/lib/libutee/tee_api_arith_mpi.c:341
    1e2a:	463c      	mov	r4, r7
/media/wen/My_Passport/Raspbian/raspbian-tee/raspbian-tee/optee_os/lib/libutee/tee_api_arith_mpi.c:355
    1e2c:	4638      	mov	r0, r7
    1e2e:	f7ff fd5f 	bl	18f0 <get_const_mpi>
/media/wen/My_Passport/Raspbian/raspbian-tee/raspbian-tee/optee_os/lib/libutee/tee_api_arith_mpi.c:357
    1e32:	4622      	mov	r2, r4
    1e34:	4629      	mov	r1, r5
    1e36:	4630      	mov	r0, r6
    1e38:	47d0      	blx	sl
    1e3a:	4602      	mov	r2, r0
    1e3c:	b160      	cbz	r0, 1e58 <bigint_binary+0x64>
/media/wen/My_Passport/Raspbian/raspbian-tee/raspbian-tee/optee_os/lib/libutee/tee_api_arith_mpi.c:357 (discriminator 1)
    1e3e:	480e      	ldr	r0, [pc, #56]	; (1e78 <bigint_binary+0x84>)
    1e40:	f240 1165 	movw	r1, #357	; 0x165
    1e44:	4478      	add	r0, pc
    1e46:	3017      	adds	r0, #23
    1e48:	f7ff fd42 	bl	18d0 <mpi_panic>
/media/wen/My_Passport/Raspbian/raspbian-tee/raspbian-tee/optee_os/lib/libutee/tee_api_arith_mpi.c:346
    1e4c:	4635      	mov	r5, r6
    1e4e:	e7e6      	b.n	1e1e <bigint_binary+0x2a>
/media/wen/My_Passport/Raspbian/raspbian-tee/raspbian-tee/optee_os/lib/libutee/tee_api_arith_mpi.c:351
    1e50:	4634      	mov	r4, r6
    1e52:	e7ee      	b.n	1e32 <bigint_binary+0x3e>
/media/wen/My_Passport/Raspbian/raspbian-tee/raspbian-tee/optee_os/lib/libutee/tee_api_arith_mpi.c:353
    1e54:	462c      	mov	r4, r5
    1e56:	e7ec      	b.n	1e32 <bigint_binary+0x3e>
/media/wen/My_Passport/Raspbian/raspbian-tee/raspbian-tee/optee_os/lib/libutee/tee_api_arith_mpi.c:359
    1e58:	4630      	mov	r0, r6
    1e5a:	f7ff fd7e 	bl	195a <put_mpi>
/media/wen/My_Passport/Raspbian/raspbian-tee/raspbian-tee/optee_os/lib/libutee/tee_api_arith_mpi.c:360
    1e5e:	4545      	cmp	r5, r8
    1e60:	d102      	bne.n	1e68 <bigint_binary+0x74>
/media/wen/My_Passport/Raspbian/raspbian-tee/raspbian-tee/optee_os/lib/libutee/tee_api_arith_mpi.c:361
    1e62:	4628      	mov	r0, r5
    1e64:	f7ff fd79 	bl	195a <put_mpi>
/media/wen/My_Passport/Raspbian/raspbian-tee/raspbian-tee/optee_os/lib/libutee/tee_api_arith_mpi.c:362
    1e68:	42bc      	cmp	r4, r7
    1e6a:	d102      	bne.n	1e72 <bigint_binary+0x7e>
/media/wen/My_Passport/Raspbian/raspbian-tee/raspbian-tee/optee_os/lib/libutee/tee_api_arith_mpi.c:363
    1e6c:	4620      	mov	r0, r4
    1e6e:	f7ff fd74 	bl	195a <put_mpi>
/media/wen/My_Passport/Raspbian/raspbian-tee/raspbian-tee/optee_os/lib/libutee/tee_api_arith_mpi.c:364
    1e72:	b00a      	add	sp, #40	; 0x28
    1e74:	e8bd 87f0 	ldmia.w	sp!, {r4, r5, r6, r7, r8, r9, sl, pc}
    1e78:	000045cb 	.word	0x000045cb

00001e7c <_TEE_MathAPI_Init>:
_TEE_MathAPI_Init():
/media/wen/My_Passport/Raspbian/raspbian-tee/raspbian-tee/optee_os/lib/libutee/tee_api_arith_mpi.c:48
    1e7c:	480b      	ldr	r0, [pc, #44]	; (1eac <_TEE_MathAPI_Init+0x30>)
    1e7e:	2200      	movs	r2, #0
/media/wen/My_Passport/Raspbian/raspbian-tee/raspbian-tee/optee_os/lib/libutee/tee_api_arith_mpi.c:44
    1e80:	b510      	push	{r4, lr}
/media/wen/My_Passport/Raspbian/raspbian-tee/raspbian-tee/optee_os/lib/libutee/tee_api_arith_mpi.c:48
    1e82:	f44f 5100 	mov.w	r1, #8192	; 0x2000
/media/wen/My_Passport/Raspbian/raspbian-tee/raspbian-tee/optee_os/lib/libutee/tee_api_arith_mpi.c:44
    1e86:	4c0a      	ldr	r4, [pc, #40]	; (1eb0 <_TEE_MathAPI_Init+0x34>)
/media/wen/My_Passport/Raspbian/raspbian-tee/raspbian-tee/optee_os/lib/libutee/tee_api_arith_mpi.c:48
    1e88:	4478      	add	r0, pc
    1e8a:	f003 fe8f 	bl	5bac <mempool_alloc_pool>
    1e8e:	4b09      	ldr	r3, [pc, #36]	; (1eb4 <_TEE_MathAPI_Init+0x38>)
/media/wen/My_Passport/Raspbian/raspbian-tee/raspbian-tee/optee_os/lib/libutee/tee_api_arith_mpi.c:44
    1e90:	447c      	add	r4, pc
/media/wen/My_Passport/Raspbian/raspbian-tee/raspbian-tee/optee_os/lib/libutee/tee_api_arith_mpi.c:48
    1e92:	58e3      	ldr	r3, [r4, r3]
    1e94:	6018      	str	r0, [r3, #0]
/media/wen/My_Passport/Raspbian/raspbian-tee/raspbian-tee/optee_os/lib/libutee/tee_api_arith_mpi.c:49
    1e96:	b938      	cbnz	r0, 1ea8 <_TEE_MathAPI_Init+0x2c>
/media/wen/My_Passport/Raspbian/raspbian-tee/raspbian-tee/optee_os/lib/libutee/tee_api_arith_mpi.c:50
    1e98:	4807      	ldr	r0, [pc, #28]	; (1eb8 <_TEE_MathAPI_Init+0x3c>)
    1e9a:	2132      	movs	r1, #50	; 0x32
    1e9c:	4a07      	ldr	r2, [pc, #28]	; (1ebc <_TEE_MathAPI_Init+0x40>)
    1e9e:	4478      	add	r0, pc
    1ea0:	447a      	add	r2, pc
    1ea2:	3025      	adds	r0, #37	; 0x25
    1ea4:	f000 fd20 	bl	28e8 <api_panic>
    1ea8:	bd10      	pop	{r4, pc}
    1eaa:	bf00      	nop
    1eac:	00006230 	.word	0x00006230
    1eb0:	000056bc 	.word	0x000056bc
    1eb4:	00000030 	.word	0x00000030
    1eb8:	00004571 	.word	0x00004571
    1ebc:	000046f7 	.word	0x000046f7

00001ec0 <TEE_BigIntInit>:
TEE_BigIntInit():
/media/wen/My_Passport/Raspbian/raspbian-tee/raspbian-tee/optee_os/lib/libutee/tee_api_arith_mpi.c:140
    1ec0:	f101 021f 	add.w	r2, r1, #31
/media/wen/My_Passport/Raspbian/raspbian-tee/raspbian-tee/optee_os/lib/libutee/tee_api_arith_mpi.c:139
    1ec4:	b538      	push	{r3, r4, r5, lr}
    1ec6:	4605      	mov	r5, r0
/media/wen/My_Passport/Raspbian/raspbian-tee/raspbian-tee/optee_os/lib/libutee/tee_api_arith_mpi.c:140
    1ec8:	0952      	lsrs	r2, r2, #5
/media/wen/My_Passport/Raspbian/raspbian-tee/raspbian-tee/optee_os/lib/libutee/tee_api_arith_mpi.c:139
    1eca:	460c      	mov	r4, r1
/media/wen/My_Passport/Raspbian/raspbian-tee/raspbian-tee/optee_os/lib/libutee/tee_api_arith_mpi.c:140
    1ecc:	3202      	adds	r2, #2
    1ece:	2100      	movs	r1, #0
/media/wen/My_Passport/Raspbian/raspbian-tee/raspbian-tee/optee_os/lib/libutee/tee_api_arith_mpi.c:146
    1ed0:	3c02      	subs	r4, #2
/media/wen/My_Passport/Raspbian/raspbian-tee/raspbian-tee/optee_os/lib/libutee/tee_api_arith_mpi.c:140
    1ed2:	0092      	lsls	r2, r2, #2
    1ed4:	f003 ff15 	bl	5d02 <memset>
/media/wen/My_Passport/Raspbian/raspbian-tee/raspbian-tee/optee_os/lib/libutee/tee_api_arith_mpi.c:145
    1ed8:	2301      	movs	r3, #1
    1eda:	602b      	str	r3, [r5, #0]
/media/wen/My_Passport/Raspbian/raspbian-tee/raspbian-tee/optee_os/lib/libutee/tee_api_arith_mpi.c:146
    1edc:	f242 7310 	movw	r3, #10000	; 0x2710
    1ee0:	429c      	cmp	r4, r3
    1ee2:	d907      	bls.n	1ef4 <TEE_BigIntInit+0x34>
/media/wen/My_Passport/Raspbian/raspbian-tee/raspbian-tee/optee_os/lib/libutee/tee_api_arith_mpi.c:147
    1ee4:	4804      	ldr	r0, [pc, #16]	; (1ef8 <TEE_BigIntInit+0x38>)
    1ee6:	2193      	movs	r1, #147	; 0x93
    1ee8:	4a04      	ldr	r2, [pc, #16]	; (1efc <TEE_BigIntInit+0x3c>)
    1eea:	4478      	add	r0, pc
    1eec:	447a      	add	r2, pc
    1eee:	3037      	adds	r0, #55	; 0x37
    1ef0:	f000 fcfa 	bl	28e8 <api_panic>
/media/wen/My_Passport/Raspbian/raspbian-tee/raspbian-tee/optee_os/lib/libutee/tee_api_arith_mpi.c:148
    1ef4:	80ac      	strh	r4, [r5, #4]
    1ef6:	bd38      	pop	{r3, r4, r5, pc}
    1ef8:	00004525 	.word	0x00004525
    1efc:	000046cc 	.word	0x000046cc

00001f00 <TEE_BigIntConvertFromOctetString>:
TEE_BigIntConvertFromOctetString():
/media/wen/My_Passport/Raspbian/raspbian-tee/raspbian-tee/optee_os/lib/libutee/tee_api_arith_mpi.c:154
    1f00:	b5f0      	push	{r4, r5, r6, r7, lr}
    1f02:	460c      	mov	r4, r1
    1f04:	4617      	mov	r7, r2
    1f06:	b085      	sub	sp, #20
/media/wen/My_Passport/Raspbian/raspbian-tee/raspbian-tee/optee_os/lib/libutee/tee_api_arith_mpi.c:158
    1f08:	4601      	mov	r1, r0
    1f0a:	ad01      	add	r5, sp, #4
/media/wen/My_Passport/Raspbian/raspbian-tee/raspbian-tee/optee_os/lib/libutee/tee_api_arith_mpi.c:154
    1f0c:	461e      	mov	r6, r3
/media/wen/My_Passport/Raspbian/raspbian-tee/raspbian-tee/optee_os/lib/libutee/tee_api_arith_mpi.c:158
    1f0e:	4628      	mov	r0, r5
    1f10:	f7ff ff5e 	bl	1dd0 <get_mpi>
/media/wen/My_Passport/Raspbian/raspbian-tee/raspbian-tee/optee_os/lib/libutee/tee_api_arith_mpi.c:160
    1f14:	4621      	mov	r1, r4
    1f16:	463a      	mov	r2, r7
    1f18:	4628      	mov	r0, r5
    1f1a:	f001 f979 	bl	3210 <mbedtls_mpi_read_binary>
/media/wen/My_Passport/Raspbian/raspbian-tee/raspbian-tee/optee_os/lib/libutee/tee_api_arith_mpi.c:163
    1f1e:	2800      	cmp	r0, #0
    1f20:	4c06      	ldr	r4, [pc, #24]	; (1f3c <TEE_BigIntConvertFromOctetString+0x3c>)
    1f22:	bf08      	it	eq
    1f24:	2400      	moveq	r4, #0
/media/wen/My_Passport/Raspbian/raspbian-tee/raspbian-tee/optee_os/lib/libutee/tee_api_arith_mpi.c:165
    1f26:	2e00      	cmp	r6, #0
    1f28:	da02      	bge.n	1f30 <TEE_BigIntConvertFromOctetString+0x30>
/media/wen/My_Passport/Raspbian/raspbian-tee/raspbian-tee/optee_os/lib/libutee/tee_api_arith_mpi.c:166
    1f2a:	23ff      	movs	r3, #255	; 0xff
    1f2c:	f88d 3004 	strb.w	r3, [sp, #4]
/media/wen/My_Passport/Raspbian/raspbian-tee/raspbian-tee/optee_os/lib/libutee/tee_api_arith_mpi.c:168
    1f30:	4628      	mov	r0, r5
    1f32:	f7ff fd12 	bl	195a <put_mpi>
/media/wen/My_Passport/Raspbian/raspbian-tee/raspbian-tee/optee_os/lib/libutee/tee_api_arith_mpi.c:171
    1f36:	4620      	mov	r0, r4
    1f38:	b005      	add	sp, #20
    1f3a:	bdf0      	pop	{r4, r5, r6, r7, pc}
    1f3c:	ffff300f 	.word	0xffff300f

00001f40 <TEE_BigIntConvertToOctetString>:
TEE_BigIntConvertToOctetString():
/media/wen/My_Passport/Raspbian/raspbian-tee/raspbian-tee/optee_os/lib/libutee/tee_api_arith_mpi.c:175
    1f40:	b5f0      	push	{r4, r5, r6, r7, lr}
    1f42:	460f      	mov	r7, r1
    1f44:	4604      	mov	r4, r0
    1f46:	b085      	sub	sp, #20
/media/wen/My_Passport/Raspbian/raspbian-tee/raspbian-tee/optee_os/lib/libutee/tee_api_arith_mpi.c:180
    1f48:	4611      	mov	r1, r2
    1f4a:	ad01      	add	r5, sp, #4
    1f4c:	4628      	mov	r0, r5
    1f4e:	f7ff fccf 	bl	18f0 <get_const_mpi>
/media/wen/My_Passport/Raspbian/raspbian-tee/raspbian-tee/optee_os/lib/libutee/tee_api_arith_mpi.c:182
    1f52:	4628      	mov	r0, r5
    1f54:	f001 f956 	bl	3204 <mbedtls_mpi_size>
/media/wen/My_Passport/Raspbian/raspbian-tee/raspbian-tee/optee_os/lib/libutee/tee_api_arith_mpi.c:183
    1f58:	683b      	ldr	r3, [r7, #0]
/media/wen/My_Passport/Raspbian/raspbian-tee/raspbian-tee/optee_os/lib/libutee/tee_api_arith_mpi.c:182
    1f5a:	4606      	mov	r6, r0
/media/wen/My_Passport/Raspbian/raspbian-tee/raspbian-tee/optee_os/lib/libutee/tee_api_arith_mpi.c:183
    1f5c:	4298      	cmp	r0, r3
    1f5e:	d80c      	bhi.n	1f7a <TEE_BigIntConvertToOctetString+0x3a>
/media/wen/My_Passport/Raspbian/raspbian-tee/raspbian-tee/optee_os/lib/libutee/tee_api_arith_mpi.c:184
    1f60:	4602      	mov	r2, r0
    1f62:	4621      	mov	r1, r4
    1f64:	4628      	mov	r0, r5
    1f66:	f001 f986 	bl	3276 <mbedtls_mpi_write_binary>
    1f6a:	b170      	cbz	r0, 1f8a <TEE_BigIntConvertToOctetString+0x4a>
/media/wen/My_Passport/Raspbian/raspbian-tee/raspbian-tee/optee_os/lib/libutee/tee_api_arith_mpi.c:184 (discriminator 1)
    1f6c:	4602      	mov	r2, r0
    1f6e:	4809      	ldr	r0, [pc, #36]	; (1f94 <TEE_BigIntConvertToOctetString+0x54>)
    1f70:	21b8      	movs	r1, #184	; 0xb8
    1f72:	4478      	add	r0, pc
    1f74:	3046      	adds	r0, #70	; 0x46
    1f76:	f7ff fcab 	bl	18d0 <mpi_panic>
/media/wen/My_Passport/Raspbian/raspbian-tee/raspbian-tee/optee_os/lib/libutee/tee_api_arith_mpi.c:186
    1f7a:	4c05      	ldr	r4, [pc, #20]	; (1f90 <TEE_BigIntConvertToOctetString+0x50>)
/media/wen/My_Passport/Raspbian/raspbian-tee/raspbian-tee/optee_os/lib/libutee/tee_api_arith_mpi.c:190
    1f7c:	4628      	mov	r0, r5
/media/wen/My_Passport/Raspbian/raspbian-tee/raspbian-tee/optee_os/lib/libutee/tee_api_arith_mpi.c:188
    1f7e:	603e      	str	r6, [r7, #0]
/media/wen/My_Passport/Raspbian/raspbian-tee/raspbian-tee/optee_os/lib/libutee/tee_api_arith_mpi.c:190
    1f80:	f7ff fceb 	bl	195a <put_mpi>
/media/wen/My_Passport/Raspbian/raspbian-tee/raspbian-tee/optee_os/lib/libutee/tee_api_arith_mpi.c:193
    1f84:	4620      	mov	r0, r4
    1f86:	b005      	add	sp, #20
    1f88:	bdf0      	pop	{r4, r5, r6, r7, pc}
/media/wen/My_Passport/Raspbian/raspbian-tee/raspbian-tee/optee_os/lib/libutee/tee_api_arith_mpi.c:176
    1f8a:	4604      	mov	r4, r0
    1f8c:	e7f6      	b.n	1f7c <TEE_BigIntConvertToOctetString+0x3c>
    1f8e:	bf00      	nop
    1f90:	ffff0010 	.word	0xffff0010
    1f94:	0000449d 	.word	0x0000449d

00001f98 <TEE_BigIntConvertFromS32>:
TEE_BigIntConvertFromS32():
/media/wen/My_Passport/Raspbian/raspbian-tee/raspbian-tee/optee_os/lib/libutee/tee_api_arith_mpi.c:196
    1f98:	b530      	push	{r4, r5, lr}
    1f9a:	460d      	mov	r5, r1
/media/wen/My_Passport/Raspbian/raspbian-tee/raspbian-tee/optee_os/lib/libutee/tee_api_arith_mpi.c:199
    1f9c:	4601      	mov	r1, r0
/media/wen/My_Passport/Raspbian/raspbian-tee/raspbian-tee/optee_os/lib/libutee/tee_api_arith_mpi.c:196
    1f9e:	b085      	sub	sp, #20
/media/wen/My_Passport/Raspbian/raspbian-tee/raspbian-tee/optee_os/lib/libutee/tee_api_arith_mpi.c:199
    1fa0:	ac01      	add	r4, sp, #4
    1fa2:	4620      	mov	r0, r4
    1fa4:	f7ff ff14 	bl	1dd0 <get_mpi>
/media/wen/My_Passport/Raspbian/raspbian-tee/raspbian-tee/optee_os/lib/libutee/tee_api_arith_mpi.c:201
    1fa8:	4629      	mov	r1, r5
    1faa:	4620      	mov	r0, r4
    1fac:	f001 f89d 	bl	30ea <mbedtls_mpi_lset>
    1fb0:	4602      	mov	r2, r0
    1fb2:	b128      	cbz	r0, 1fc0 <TEE_BigIntConvertFromS32+0x28>
/media/wen/My_Passport/Raspbian/raspbian-tee/raspbian-tee/optee_os/lib/libutee/tee_api_arith_mpi.c:201 (discriminator 1)
    1fb4:	4805      	ldr	r0, [pc, #20]	; (1fcc <TEE_BigIntConvertFromS32+0x34>)
    1fb6:	21c9      	movs	r1, #201	; 0xc9
    1fb8:	4478      	add	r0, pc
    1fba:	3065      	adds	r0, #101	; 0x65
    1fbc:	f7ff fc88 	bl	18d0 <mpi_panic>
/media/wen/My_Passport/Raspbian/raspbian-tee/raspbian-tee/optee_os/lib/libutee/tee_api_arith_mpi.c:203
    1fc0:	4620      	mov	r0, r4
    1fc2:	f7ff fcca 	bl	195a <put_mpi>
/media/wen/My_Passport/Raspbian/raspbian-tee/raspbian-tee/optee_os/lib/libutee/tee_api_arith_mpi.c:204
    1fc6:	b005      	add	sp, #20
    1fc8:	bd30      	pop	{r4, r5, pc}
    1fca:	bf00      	nop
    1fcc:	00004457 	.word	0x00004457

00001fd0 <TEE_BigIntConvertToS32>:
TEE_BigIntConvertToS32():
/media/wen/My_Passport/Raspbian/raspbian-tee/raspbian-tee/optee_os/lib/libutee/tee_api_arith_mpi.c:207
    1fd0:	b530      	push	{r4, r5, lr}
    1fd2:	4605      	mov	r5, r0
    1fd4:	b085      	sub	sp, #20
/media/wen/My_Passport/Raspbian/raspbian-tee/raspbian-tee/optee_os/lib/libutee/tee_api_arith_mpi.c:212
    1fd6:	ac01      	add	r4, sp, #4
    1fd8:	4620      	mov	r0, r4
    1fda:	f7ff fc89 	bl	18f0 <get_const_mpi>
/media/wen/My_Passport/Raspbian/raspbian-tee/raspbian-tee/optee_os/lib/libutee/tee_api_arith_mpi.c:214
    1fde:	2204      	movs	r2, #4
    1fe0:	4669      	mov	r1, sp
    1fe2:	4620      	mov	r0, r4
    1fe4:	f001 f947 	bl	3276 <mbedtls_mpi_write_binary>
    1fe8:	b9d0      	cbnz	r0, 2020 <TEE_BigIntConvertToS32+0x50>
/media/wen/My_Passport/Raspbian/raspbian-tee/raspbian-tee/optee_os/lib/libutee/tee_api_arith_mpi.c:219
    1fea:	f99d 3004 	ldrsb.w	r3, [sp, #4]
    1fee:	2b00      	cmp	r3, #0
    1ff0:	9b00      	ldr	r3, [sp, #0]
/media/wen/My_Passport/Raspbian/raspbian-tee/raspbian-tee/optee_os/lib/libutee/tee_api_arith_mpi.c:220
    1ff2:	ba1b      	rev	r3, r3
/media/wen/My_Passport/Raspbian/raspbian-tee/raspbian-tee/optee_os/lib/libutee/tee_api_arith_mpi.c:219
    1ff4:	dd09      	ble.n	200a <TEE_BigIntConvertToS32+0x3a>
/media/wen/My_Passport/Raspbian/raspbian-tee/raspbian-tee/optee_os/lib/libutee/tee_api_arith_mpi.c:220
    1ff6:	2b00      	cmp	r3, #0
    1ff8:	602b      	str	r3, [r5, #0]
    1ffa:	db11      	blt.n	2020 <TEE_BigIntConvertToS32+0x50>
/media/wen/My_Passport/Raspbian/raspbian-tee/raspbian-tee/optee_os/lib/libutee/tee_api_arith_mpi.c:208
    1ffc:	2500      	movs	r5, #0
/media/wen/My_Passport/Raspbian/raspbian-tee/raspbian-tee/optee_os/lib/libutee/tee_api_arith_mpi.c:228
    1ffe:	4620      	mov	r0, r4
    2000:	f7ff fcab 	bl	195a <put_mpi>
/media/wen/My_Passport/Raspbian/raspbian-tee/raspbian-tee/optee_os/lib/libutee/tee_api_arith_mpi.c:231
    2004:	4628      	mov	r0, r5
    2006:	b005      	add	sp, #20
    2008:	bd30      	pop	{r4, r5, pc}
/media/wen/My_Passport/Raspbian/raspbian-tee/raspbian-tee/optee_os/lib/libutee/tee_api_arith_mpi.c:223
    200a:	425a      	negs	r2, r3
    200c:	b11b      	cbz	r3, 2016 <TEE_BigIntConvertToS32+0x46>
    200e:	2a00      	cmp	r2, #0
    2010:	db03      	blt.n	201a <TEE_BigIntConvertToS32+0x4a>
    2012:	2001      	movs	r0, #1
    2014:	e001      	b.n	201a <TEE_BigIntConvertToS32+0x4a>
    2016:	2a00      	cmp	r2, #0
    2018:	dbfb      	blt.n	2012 <TEE_BigIntConvertToS32+0x42>
    201a:	602a      	str	r2, [r5, #0]
    201c:	2800      	cmp	r0, #0
    201e:	d0ed      	beq.n	1ffc <TEE_BigIntConvertToS32+0x2c>
/media/wen/My_Passport/Raspbian/raspbian-tee/raspbian-tee/optee_os/lib/libutee/tee_api_arith_mpi.c:221
    2020:	4d00      	ldr	r5, [pc, #0]	; (2024 <TEE_BigIntConvertToS32+0x54>)
    2022:	e7ec      	b.n	1ffe <TEE_BigIntConvertToS32+0x2e>
    2024:	ffff300f 	.word	0xffff300f

00002028 <TEE_BigIntCmp>:
TEE_BigIntCmp():
/media/wen/My_Passport/Raspbian/raspbian-tee/raspbian-tee/optee_os/lib/libutee/tee_api_arith_mpi.c:234
    2028:	b570      	push	{r4, r5, r6, lr}
    202a:	460c      	mov	r4, r1
/media/wen/My_Passport/Raspbian/raspbian-tee/raspbian-tee/optee_os/lib/libutee/tee_api_arith_mpi.c:239
    202c:	4601      	mov	r1, r0
/media/wen/My_Passport/Raspbian/raspbian-tee/raspbian-tee/optee_os/lib/libutee/tee_api_arith_mpi.c:234
    202e:	b086      	sub	sp, #24
/media/wen/My_Passport/Raspbian/raspbian-tee/raspbian-tee/optee_os/lib/libutee/tee_api_arith_mpi.c:239
    2030:	4668      	mov	r0, sp
    2032:	f7ff fc5d 	bl	18f0 <get_const_mpi>
/media/wen/My_Passport/Raspbian/raspbian-tee/raspbian-tee/optee_os/lib/libutee/tee_api_arith_mpi.c:240
    2036:	4621      	mov	r1, r4
    2038:	ac03      	add	r4, sp, #12
    203a:	4620      	mov	r0, r4
    203c:	f7ff fc58 	bl	18f0 <get_const_mpi>
/media/wen/My_Passport/Raspbian/raspbian-tee/raspbian-tee/optee_os/lib/libutee/tee_api_arith_mpi.c:242
    2040:	4621      	mov	r1, r4
    2042:	4668      	mov	r0, sp
    2044:	f001 f9f9 	bl	343a <mbedtls_mpi_cmp_mpi>
    2048:	4606      	mov	r6, r0
/media/wen/My_Passport/Raspbian/raspbian-tee/raspbian-tee/optee_os/lib/libutee/tee_api_arith_mpi.c:244
    204a:	4668      	mov	r0, sp
    204c:	f7ff fc85 	bl	195a <put_mpi>
/media/wen/My_Passport/Raspbian/raspbian-tee/raspbian-tee/optee_os/lib/libutee/tee_api_arith_mpi.c:245
    2050:	4620      	mov	r0, r4
    2052:	f7ff fc82 	bl	195a <put_mpi>
/media/wen/My_Passport/Raspbian/raspbian-tee/raspbian-tee/optee_os/lib/libutee/tee_api_arith_mpi.c:248
    2056:	4630      	mov	r0, r6
    2058:	b006      	add	sp, #24
    205a:	bd70      	pop	{r4, r5, r6, pc}

0000205c <TEE_BigIntCmpS32>:
TEE_BigIntCmpS32():
/media/wen/My_Passport/Raspbian/raspbian-tee/raspbian-tee/optee_os/lib/libutee/tee_api_arith_mpi.c:251
    205c:	b530      	push	{r4, r5, lr}
    205e:	460d      	mov	r5, r1
/media/wen/My_Passport/Raspbian/raspbian-tee/raspbian-tee/optee_os/lib/libutee/tee_api_arith_mpi.c:255
    2060:	4601      	mov	r1, r0
/media/wen/My_Passport/Raspbian/raspbian-tee/raspbian-tee/optee_os/lib/libutee/tee_api_arith_mpi.c:251
    2062:	b085      	sub	sp, #20
/media/wen/My_Passport/Raspbian/raspbian-tee/raspbian-tee/optee_os/lib/libutee/tee_api_arith_mpi.c:255
    2064:	ac01      	add	r4, sp, #4
    2066:	4620      	mov	r0, r4
    2068:	f7ff fc42 	bl	18f0 <get_const_mpi>
/media/wen/My_Passport/Raspbian/raspbian-tee/raspbian-tee/optee_os/lib/libutee/tee_api_arith_mpi.c:257
    206c:	4629      	mov	r1, r5
    206e:	4620      	mov	r0, r4
    2070:	f001 fa2e 	bl	34d0 <mbedtls_mpi_cmp_int>
    2074:	4605      	mov	r5, r0
/media/wen/My_Passport/Raspbian/raspbian-tee/raspbian-tee/optee_os/lib/libutee/tee_api_arith_mpi.c:259
    2076:	4620      	mov	r0, r4
    2078:	f7ff fc6f 	bl	195a <put_mpi>
/media/wen/My_Passport/Raspbian/raspbian-tee/raspbian-tee/optee_os/lib/libutee/tee_api_arith_mpi.c:262
    207c:	4628      	mov	r0, r5
    207e:	b005      	add	sp, #20
    2080:	bd30      	pop	{r4, r5, pc}

00002082 <bigint_binary_mod>:
bigint_binary_mod():
/media/wen/My_Passport/Raspbian/raspbian-tee/raspbian-tee/optee_os/lib/libutee/tee_api_arith_mpi.c:370
    2082:	e92d 47f0 	stmdb	sp!, {r4, r5, r6, r7, r8, r9, sl, lr}
    2086:	4680      	mov	r8, r0
    2088:	460f      	mov	r7, r1
    208a:	b090      	sub	sp, #64	; 0x40
/media/wen/My_Passport/Raspbian/raspbian-tee/raspbian-tee/optee_os/lib/libutee/tee_api_arith_mpi.c:371
    208c:	2102      	movs	r1, #2
    208e:	4618      	mov	r0, r3
/media/wen/My_Passport/Raspbian/raspbian-tee/raspbian-tee/optee_os/lib/libutee/tee_api_arith_mpi.c:370
    2090:	4614      	mov	r4, r2
    2092:	461d      	mov	r5, r3
/media/wen/My_Passport/Raspbian/raspbian-tee/raspbian-tee/optee_os/lib/libutee/tee_api_arith_mpi.c:371
    2094:	f7ff ffe2 	bl	205c <TEE_BigIntCmpS32>
    2098:	2800      	cmp	r0, #0
    209a:	da08      	bge.n	20ae <bigint_binary_mod+0x2c>
/media/wen/My_Passport/Raspbian/raspbian-tee/raspbian-tee/optee_os/lib/libutee/tee_api_arith_mpi.c:372
    209c:	482f      	ldr	r0, [pc, #188]	; (215c <bigint_binary_mod+0xda>)
    209e:	f44f 71ba 	mov.w	r1, #372	; 0x174
    20a2:	4a2f      	ldr	r2, [pc, #188]	; (2160 <bigint_binary_mod+0xde>)
    20a4:	4478      	add	r0, pc
    20a6:	447a      	add	r2, pc
    20a8:	307e      	adds	r0, #126	; 0x7e
    20aa:	f000 fc1d 	bl	28e8 <api_panic>
/media/wen/My_Passport/Raspbian/raspbian-tee/raspbian-tee/optee_os/lib/libutee/tee_api_arith_mpi.c:382
    20ae:	ae01      	add	r6, sp, #4
    20b0:	4641      	mov	r1, r8
    20b2:	4630      	mov	r0, r6
/media/wen/My_Passport/Raspbian/raspbian-tee/raspbian-tee/optee_os/lib/libutee/tee_api_arith_mpi.c:383
    20b4:	f10d 0a28 	add.w	sl, sp, #40	; 0x28
/media/wen/My_Passport/Raspbian/raspbian-tee/raspbian-tee/optee_os/lib/libutee/tee_api_arith_mpi.c:382
    20b8:	f7ff fe8a 	bl	1dd0 <get_mpi>
/media/wen/My_Passport/Raspbian/raspbian-tee/raspbian-tee/optee_os/lib/libutee/tee_api_arith_mpi.c:383
    20bc:	4629      	mov	r1, r5
    20be:	4650      	mov	r0, sl
    20c0:	f10d 0910 	add.w	r9, sp, #16
    20c4:	f7ff fc14 	bl	18f0 <get_const_mpi>
/media/wen/My_Passport/Raspbian/raspbian-tee/raspbian-tee/optee_os/lib/libutee/tee_api_arith_mpi.c:385
    20c8:	45b8      	cmp	r8, r7
    20ca:	d021      	beq.n	2110 <bigint_binary_mod+0x8e>
/media/wen/My_Passport/Raspbian/raspbian-tee/raspbian-tee/optee_os/lib/libutee/tee_api_arith_mpi.c:378
    20cc:	464d      	mov	r5, r9
/media/wen/My_Passport/Raspbian/raspbian-tee/raspbian-tee/optee_os/lib/libutee/tee_api_arith_mpi.c:388
    20ce:	4639      	mov	r1, r7
    20d0:	4648      	mov	r0, r9
    20d2:	f7ff fc0d 	bl	18f0 <get_const_mpi>
/media/wen/My_Passport/Raspbian/raspbian-tee/raspbian-tee/optee_os/lib/libutee/tee_api_arith_mpi.c:390
    20d6:	45a0      	cmp	r8, r4
    20d8:	f10d 081c 	add.w	r8, sp, #28
    20dc:	d01a      	beq.n	2114 <bigint_binary_mod+0x92>
/media/wen/My_Passport/Raspbian/raspbian-tee/raspbian-tee/optee_os/lib/libutee/tee_api_arith_mpi.c:392
    20de:	42a7      	cmp	r7, r4
    20e0:	d01a      	beq.n	2118 <bigint_binary_mod+0x96>
/media/wen/My_Passport/Raspbian/raspbian-tee/raspbian-tee/optee_os/lib/libutee/tee_api_arith_mpi.c:395
    20e2:	4621      	mov	r1, r4
/media/wen/My_Passport/Raspbian/raspbian-tee/raspbian-tee/optee_os/lib/libutee/tee_api_arith_mpi.c:379
    20e4:	4644      	mov	r4, r8
/media/wen/My_Passport/Raspbian/raspbian-tee/raspbian-tee/optee_os/lib/libutee/tee_api_arith_mpi.c:395
    20e6:	4640      	mov	r0, r8
    20e8:	f7ff fc02 	bl	18f0 <get_const_mpi>
get_mpi():
/media/wen/My_Passport/Raspbian/raspbian-tee/raspbian-tee/optee_os/lib/libutee/tee_api_arith_mpi.c:99
    20ec:	af0d      	add	r7, sp, #52	; 0x34
    20ee:	4638      	mov	r0, r7
    20f0:	f000 fe42 	bl	2d78 <mbedtls_mpi_init_mempool>
bigint_binary_mod():
/media/wen/My_Passport/Raspbian/raspbian-tee/raspbian-tee/optee_os/lib/libutee/tee_api_arith_mpi.c:399
    20f4:	4622      	mov	r2, r4
    20f6:	4629      	mov	r1, r5
    20f8:	4638      	mov	r0, r7
    20fa:	9b18      	ldr	r3, [sp, #96]	; 0x60
    20fc:	4798      	blx	r3
    20fe:	4602      	mov	r2, r0
    2100:	b160      	cbz	r0, 211c <bigint_binary_mod+0x9a>
/media/wen/My_Passport/Raspbian/raspbian-tee/raspbian-tee/optee_os/lib/libutee/tee_api_arith_mpi.c:399 (discriminator 1)
    2102:	4818      	ldr	r0, [pc, #96]	; (2164 <bigint_binary_mod+0xe2>)
    2104:	f240 118f 	movw	r1, #399	; 0x18f
    2108:	4478      	add	r0, pc
/media/wen/My_Passport/Raspbian/raspbian-tee/raspbian-tee/optee_os/lib/libutee/tee_api_arith_mpi.c:400 (discriminator 1)
    210a:	307e      	adds	r0, #126	; 0x7e
    210c:	f7ff fbe0 	bl	18d0 <mpi_panic>
/media/wen/My_Passport/Raspbian/raspbian-tee/raspbian-tee/optee_os/lib/libutee/tee_api_arith_mpi.c:386
    2110:	4635      	mov	r5, r6
    2112:	e7e0      	b.n	20d6 <bigint_binary_mod+0x54>
/media/wen/My_Passport/Raspbian/raspbian-tee/raspbian-tee/optee_os/lib/libutee/tee_api_arith_mpi.c:391
    2114:	4634      	mov	r4, r6
    2116:	e7e9      	b.n	20ec <bigint_binary_mod+0x6a>
/media/wen/My_Passport/Raspbian/raspbian-tee/raspbian-tee/optee_os/lib/libutee/tee_api_arith_mpi.c:393
    2118:	462c      	mov	r4, r5
    211a:	e7e7      	b.n	20ec <bigint_binary_mod+0x6a>
/media/wen/My_Passport/Raspbian/raspbian-tee/raspbian-tee/optee_os/lib/libutee/tee_api_arith_mpi.c:400
    211c:	4652      	mov	r2, sl
    211e:	4639      	mov	r1, r7
    2120:	4630      	mov	r0, r6
    2122:	f001 fdfd 	bl	3d20 <mbedtls_mpi_mod_mpi>
    2126:	4602      	mov	r2, r0
    2128:	b120      	cbz	r0, 2134 <bigint_binary_mod+0xb2>
/media/wen/My_Passport/Raspbian/raspbian-tee/raspbian-tee/optee_os/lib/libutee/tee_api_arith_mpi.c:400 (discriminator 1)
    212a:	480f      	ldr	r0, [pc, #60]	; (2168 <bigint_binary_mod+0xe6>)
    212c:	f44f 71c8 	mov.w	r1, #400	; 0x190
    2130:	4478      	add	r0, pc
    2132:	e7ea      	b.n	210a <bigint_binary_mod+0x88>
/media/wen/My_Passport/Raspbian/raspbian-tee/raspbian-tee/optee_os/lib/libutee/tee_api_arith_mpi.c:402
    2134:	4630      	mov	r0, r6
    2136:	f7ff fc10 	bl	195a <put_mpi>
/media/wen/My_Passport/Raspbian/raspbian-tee/raspbian-tee/optee_os/lib/libutee/tee_api_arith_mpi.c:403
    213a:	454d      	cmp	r5, r9
    213c:	d102      	bne.n	2144 <bigint_binary_mod+0xc2>
/media/wen/My_Passport/Raspbian/raspbian-tee/raspbian-tee/optee_os/lib/libutee/tee_api_arith_mpi.c:404
    213e:	4628      	mov	r0, r5
    2140:	f7ff fc0b 	bl	195a <put_mpi>
/media/wen/My_Passport/Raspbian/raspbian-tee/raspbian-tee/optee_os/lib/libutee/tee_api_arith_mpi.c:405
    2144:	4544      	cmp	r4, r8
    2146:	d102      	bne.n	214e <bigint_binary_mod+0xcc>
/media/wen/My_Passport/Raspbian/raspbian-tee/raspbian-tee/optee_os/lib/libutee/tee_api_arith_mpi.c:406
    2148:	4620      	mov	r0, r4
    214a:	f7ff fc06 	bl	195a <put_mpi>
/media/wen/My_Passport/Raspbian/raspbian-tee/raspbian-tee/optee_os/lib/libutee/tee_api_arith_mpi.c:407
    214e:	4638      	mov	r0, r7
    2150:	f7ff fc03 	bl	195a <put_mpi>
/media/wen/My_Passport/Raspbian/raspbian-tee/raspbian-tee/optee_os/lib/libutee/tee_api_arith_mpi.c:408
    2154:	b010      	add	sp, #64	; 0x40
    2156:	e8bd 87f0 	ldmia.w	sp!, {r4, r5, r6, r7, r8, r9, sl, pc}
    215a:	bf00      	nop
    215c:	0000436b 	.word	0x0000436b
    2160:	00004523 	.word	0x00004523
    2164:	00004307 	.word	0x00004307
    2168:	000042df 	.word	0x000042df

0000216c <TEE_BigIntShiftRight>:
TEE_BigIntShiftRight():
/media/wen/My_Passport/Raspbian/raspbian-tee/raspbian-tee/optee_os/lib/libutee/tee_api_arith_mpi.c:265
    216c:	b5f0      	push	{r4, r5, r6, r7, lr}
    216e:	4605      	mov	r5, r0
    2170:	460e      	mov	r6, r1
    2172:	b08b      	sub	sp, #44	; 0x2c
/media/wen/My_Passport/Raspbian/raspbian-tee/raspbian-tee/optee_os/lib/libutee/tee_api_arith_mpi.c:269
    2174:	4601      	mov	r1, r0
    2176:	ac01      	add	r4, sp, #4
/media/wen/My_Passport/Raspbian/raspbian-tee/raspbian-tee/optee_os/lib/libutee/tee_api_arith_mpi.c:265
    2178:	4617      	mov	r7, r2
/media/wen/My_Passport/Raspbian/raspbian-tee/raspbian-tee/optee_os/lib/libutee/tee_api_arith_mpi.c:269
    217a:	4620      	mov	r0, r4
    217c:	f7ff fe28 	bl	1dd0 <get_mpi>
/media/wen/My_Passport/Raspbian/raspbian-tee/raspbian-tee/optee_os/lib/libutee/tee_api_arith_mpi.c:271
    2180:	42b5      	cmp	r5, r6
    2182:	d10d      	bne.n	21a0 <TEE_BigIntShiftRight+0x34>
/media/wen/My_Passport/Raspbian/raspbian-tee/raspbian-tee/optee_os/lib/libutee/tee_api_arith_mpi.c:272
    2184:	4639      	mov	r1, r7
    2186:	4620      	mov	r0, r4
    2188:	f001 f8e4 	bl	3354 <mbedtls_mpi_shift_r>
    218c:	4602      	mov	r2, r0
    218e:	2800      	cmp	r0, #0
    2190:	d055      	beq.n	223e <TEE_BigIntShiftRight+0xd2>
/media/wen/My_Passport/Raspbian/raspbian-tee/raspbian-tee/optee_os/lib/libutee/tee_api_arith_mpi.c:272 (discriminator 1)
    2192:	482d      	ldr	r0, [pc, #180]	; (2248 <TEE_BigIntShiftRight+0xdc>)
    2194:	f44f 7188 	mov.w	r1, #272	; 0x110
    2198:	4478      	add	r0, pc
/media/wen/My_Passport/Raspbian/raspbian-tee/raspbian-tee/optee_os/lib/libutee/tee_api_arith_mpi.c:279 (discriminator 1)
    219a:	3090      	adds	r0, #144	; 0x90
    219c:	f7ff fb98 	bl	18d0 <mpi_panic>
/media/wen/My_Passport/Raspbian/raspbian-tee/raspbian-tee/optee_os/lib/libutee/tee_api_arith_mpi.c:276
    21a0:	ad04      	add	r5, sp, #16
    21a2:	4631      	mov	r1, r6
    21a4:	4628      	mov	r0, r5
    21a6:	f7ff fba3 	bl	18f0 <get_const_mpi>
/media/wen/My_Passport/Raspbian/raspbian-tee/raspbian-tee/optee_os/lib/libutee/tee_api_arith_mpi.c:278
    21aa:	4620      	mov	r0, r4
    21ac:	f001 f82a 	bl	3204 <mbedtls_mpi_size>
    21b0:	4606      	mov	r6, r0
    21b2:	4628      	mov	r0, r5
    21b4:	f001 f826 	bl	3204 <mbedtls_mpi_size>
    21b8:	4286      	cmp	r6, r0
    21ba:	d315      	bcc.n	21e8 <TEE_BigIntShiftRight+0x7c>
/media/wen/My_Passport/Raspbian/raspbian-tee/raspbian-tee/optee_os/lib/libutee/tee_api_arith_mpi.c:279
    21bc:	4629      	mov	r1, r5
    21be:	4620      	mov	r0, r4
    21c0:	f000 fed8 	bl	2f74 <mbedtls_mpi_copy>
    21c4:	4602      	mov	r2, r0
    21c6:	b120      	cbz	r0, 21d2 <TEE_BigIntShiftRight+0x66>
/media/wen/My_Passport/Raspbian/raspbian-tee/raspbian-tee/optee_os/lib/libutee/tee_api_arith_mpi.c:279 (discriminator 1)
    21c8:	4820      	ldr	r0, [pc, #128]	; (224c <TEE_BigIntShiftRight+0xe0>)
    21ca:	f240 1117 	movw	r1, #279	; 0x117
    21ce:	4478      	add	r0, pc
    21d0:	e7e3      	b.n	219a <TEE_BigIntShiftRight+0x2e>
/media/wen/My_Passport/Raspbian/raspbian-tee/raspbian-tee/optee_os/lib/libutee/tee_api_arith_mpi.c:280
    21d2:	4639      	mov	r1, r7
    21d4:	4620      	mov	r0, r4
    21d6:	f001 f8bd 	bl	3354 <mbedtls_mpi_shift_r>
    21da:	4602      	mov	r2, r0
    21dc:	b360      	cbz	r0, 2238 <TEE_BigIntShiftRight+0xcc>
/media/wen/My_Passport/Raspbian/raspbian-tee/raspbian-tee/optee_os/lib/libutee/tee_api_arith_mpi.c:280 (discriminator 1)
    21de:	481c      	ldr	r0, [pc, #112]	; (2250 <TEE_BigIntShiftRight+0xe4>)
    21e0:	f44f 718c 	mov.w	r1, #280	; 0x118
    21e4:	4478      	add	r0, pc
    21e6:	e7d8      	b.n	219a <TEE_BigIntShiftRight+0x2e>
get_mpi():
/media/wen/My_Passport/Raspbian/raspbian-tee/raspbian-tee/optee_os/lib/libutee/tee_api_arith_mpi.c:99
    21e8:	ae07      	add	r6, sp, #28
    21ea:	4630      	mov	r0, r6
    21ec:	f000 fdc4 	bl	2d78 <mbedtls_mpi_init_mempool>
TEE_BigIntShiftRight():
/media/wen/My_Passport/Raspbian/raspbian-tee/raspbian-tee/optee_os/lib/libutee/tee_api_arith_mpi.c:291
    21f0:	4629      	mov	r1, r5
    21f2:	4630      	mov	r0, r6
    21f4:	f000 febe 	bl	2f74 <mbedtls_mpi_copy>
    21f8:	4602      	mov	r2, r0
    21fa:	b120      	cbz	r0, 2206 <TEE_BigIntShiftRight+0x9a>
/media/wen/My_Passport/Raspbian/raspbian-tee/raspbian-tee/optee_os/lib/libutee/tee_api_arith_mpi.c:291 (discriminator 1)
    21fc:	4815      	ldr	r0, [pc, #84]	; (2254 <TEE_BigIntShiftRight+0xe8>)
    21fe:	f240 1123 	movw	r1, #291	; 0x123
    2202:	4478      	add	r0, pc
    2204:	e7c9      	b.n	219a <TEE_BigIntShiftRight+0x2e>
/media/wen/My_Passport/Raspbian/raspbian-tee/raspbian-tee/optee_os/lib/libutee/tee_api_arith_mpi.c:292
    2206:	4639      	mov	r1, r7
    2208:	4630      	mov	r0, r6
    220a:	f001 f8a3 	bl	3354 <mbedtls_mpi_shift_r>
    220e:	4602      	mov	r2, r0
    2210:	b120      	cbz	r0, 221c <TEE_BigIntShiftRight+0xb0>
/media/wen/My_Passport/Raspbian/raspbian-tee/raspbian-tee/optee_os/lib/libutee/tee_api_arith_mpi.c:292 (discriminator 1)
    2212:	4811      	ldr	r0, [pc, #68]	; (2258 <TEE_BigIntShiftRight+0xec>)
    2214:	f44f 7192 	mov.w	r1, #292	; 0x124
    2218:	4478      	add	r0, pc
    221a:	e7be      	b.n	219a <TEE_BigIntShiftRight+0x2e>
/media/wen/My_Passport/Raspbian/raspbian-tee/raspbian-tee/optee_os/lib/libutee/tee_api_arith_mpi.c:293
    221c:	4631      	mov	r1, r6
    221e:	4620      	mov	r0, r4
    2220:	f000 fea8 	bl	2f74 <mbedtls_mpi_copy>
    2224:	4602      	mov	r2, r0
    2226:	b120      	cbz	r0, 2232 <TEE_BigIntShiftRight+0xc6>
/media/wen/My_Passport/Raspbian/raspbian-tee/raspbian-tee/optee_os/lib/libutee/tee_api_arith_mpi.c:293 (discriminator 1)
    2228:	480c      	ldr	r0, [pc, #48]	; (225c <TEE_BigIntShiftRight+0xf0>)
    222a:	f240 1125 	movw	r1, #293	; 0x125
    222e:	4478      	add	r0, pc
    2230:	e7b3      	b.n	219a <TEE_BigIntShiftRight+0x2e>
/media/wen/My_Passport/Raspbian/raspbian-tee/raspbian-tee/optee_os/lib/libutee/tee_api_arith_mpi.c:295
    2232:	4630      	mov	r0, r6
    2234:	f7ff fb91 	bl	195a <put_mpi>
/media/wen/My_Passport/Raspbian/raspbian-tee/raspbian-tee/optee_os/lib/libutee/tee_api_arith_mpi.c:298
    2238:	4628      	mov	r0, r5
    223a:	f7ff fb8e 	bl	195a <put_mpi>
/media/wen/My_Passport/Raspbian/raspbian-tee/raspbian-tee/optee_os/lib/libutee/tee_api_arith_mpi.c:301
    223e:	4620      	mov	r0, r4
    2240:	f7ff fb8b 	bl	195a <put_mpi>
/media/wen/My_Passport/Raspbian/raspbian-tee/raspbian-tee/optee_os/lib/libutee/tee_api_arith_mpi.c:302
    2244:	b00b      	add	sp, #44	; 0x2c
    2246:	bdf0      	pop	{r4, r5, r6, r7, pc}
    2248:	00004277 	.word	0x00004277
    224c:	00004241 	.word	0x00004241
    2250:	0000422b 	.word	0x0000422b
    2254:	0000420d 	.word	0x0000420d
    2258:	000041f7 	.word	0x000041f7
    225c:	000041e1 	.word	0x000041e1

00002260 <TEE_BigIntGetBit>:
TEE_BigIntGetBit():
/media/wen/My_Passport/Raspbian/raspbian-tee/raspbian-tee/optee_os/lib/libutee/tee_api_arith_mpi.c:305
    2260:	b530      	push	{r4, r5, lr}
    2262:	460d      	mov	r5, r1
/media/wen/My_Passport/Raspbian/raspbian-tee/raspbian-tee/optee_os/lib/libutee/tee_api_arith_mpi.c:309
    2264:	4601      	mov	r1, r0
/media/wen/My_Passport/Raspbian/raspbian-tee/raspbian-tee/optee_os/lib/libutee/tee_api_arith_mpi.c:305
    2266:	b085      	sub	sp, #20
/media/wen/My_Passport/Raspbian/raspbian-tee/raspbian-tee/optee_os/lib/libutee/tee_api_arith_mpi.c:309
    2268:	ac01      	add	r4, sp, #4
    226a:	4620      	mov	r0, r4
    226c:	f7ff fb40 	bl	18f0 <get_const_mpi>
/media/wen/My_Passport/Raspbian/raspbian-tee/raspbian-tee/optee_os/lib/libutee/tee_api_arith_mpi.c:311
    2270:	4629      	mov	r1, r5
    2272:	4620      	mov	r0, r4
    2274:	f000 ff55 	bl	3122 <mbedtls_mpi_get_bit>
    2278:	4605      	mov	r5, r0
/media/wen/My_Passport/Raspbian/raspbian-tee/raspbian-tee/optee_os/lib/libutee/tee_api_arith_mpi.c:313
    227a:	4620      	mov	r0, r4
    227c:	f7ff fb6d 	bl	195a <put_mpi>
/media/wen/My_Passport/Raspbian/raspbian-tee/raspbian-tee/optee_os/lib/libutee/tee_api_arith_mpi.c:316
    2280:	1c28      	adds	r0, r5, #0
    2282:	bf18      	it	ne
    2284:	2001      	movne	r0, #1
    2286:	b005      	add	sp, #20
    2288:	bd30      	pop	{r4, r5, pc}

0000228a <TEE_BigIntGetBitCount>:
TEE_BigIntGetBitCount():
/media/wen/My_Passport/Raspbian/raspbian-tee/raspbian-tee/optee_os/lib/libutee/tee_api_arith_mpi.c:319
    228a:	b530      	push	{r4, r5, lr}
/media/wen/My_Passport/Raspbian/raspbian-tee/raspbian-tee/optee_os/lib/libutee/tee_api_arith_mpi.c:323
    228c:	4601      	mov	r1, r0
/media/wen/My_Passport/Raspbian/raspbian-tee/raspbian-tee/optee_os/lib/libutee/tee_api_arith_mpi.c:319
    228e:	b085      	sub	sp, #20
/media/wen/My_Passport/Raspbian/raspbian-tee/raspbian-tee/optee_os/lib/libutee/tee_api_arith_mpi.c:323
    2290:	ac01      	add	r4, sp, #4
    2292:	4620      	mov	r0, r4
    2294:	f7ff fb2c 	bl	18f0 <get_const_mpi>
/media/wen/My_Passport/Raspbian/raspbian-tee/raspbian-tee/optee_os/lib/libutee/tee_api_arith_mpi.c:325
    2298:	4620      	mov	r0, r4
    229a:	f000 ff91 	bl	31c0 <mbedtls_mpi_bitlen>
    229e:	4605      	mov	r5, r0
/media/wen/My_Passport/Raspbian/raspbian-tee/raspbian-tee/optee_os/lib/libutee/tee_api_arith_mpi.c:327
    22a0:	4620      	mov	r0, r4
    22a2:	f7ff fb5a 	bl	195a <put_mpi>
/media/wen/My_Passport/Raspbian/raspbian-tee/raspbian-tee/optee_os/lib/libutee/tee_api_arith_mpi.c:330
    22a6:	4628      	mov	r0, r5
    22a8:	b005      	add	sp, #20
    22aa:	bd30      	pop	{r4, r5, pc}

000022ac <TEE_BigIntAdd>:
TEE_BigIntAdd():
/media/wen/My_Passport/Raspbian/raspbian-tee/raspbian-tee/optee_os/lib/libutee/tee_api_arith_mpi.c:412
    22ac:	4b04      	ldr	r3, [pc, #16]	; (22c0 <TEE_BigIntAdd+0x14>)
    22ae:	b417      	push	{r0, r1, r2, r4}
/media/wen/My_Passport/Raspbian/raspbian-tee/raspbian-tee/optee_os/lib/libutee/tee_api_arith_mpi.c:413
    22b0:	4c04      	ldr	r4, [pc, #16]	; (22c4 <TEE_BigIntAdd+0x18>)
/media/wen/My_Passport/Raspbian/raspbian-tee/raspbian-tee/optee_os/lib/libutee/tee_api_arith_mpi.c:412
    22b2:	447b      	add	r3, pc
/media/wen/My_Passport/Raspbian/raspbian-tee/raspbian-tee/optee_os/lib/libutee/tee_api_arith_mpi.c:413
    22b4:	591b      	ldr	r3, [r3, r4]
    22b6:	9301      	str	r3, [sp, #4]
/media/wen/My_Passport/Raspbian/raspbian-tee/raspbian-tee/optee_os/lib/libutee/tee_api_arith_mpi.c:414
    22b8:	b003      	add	sp, #12
    22ba:	f85d 4b04 	ldr.w	r4, [sp], #4
/media/wen/My_Passport/Raspbian/raspbian-tee/raspbian-tee/optee_os/lib/libutee/tee_api_arith_mpi.c:413
    22be:	e599      	b.n	1df4 <bigint_binary>
    22c0:	0000529a 	.word	0x0000529a
    22c4:	0000001c 	.word	0x0000001c

000022c8 <TEE_BigIntSub>:
TEE_BigIntSub():
/media/wen/My_Passport/Raspbian/raspbian-tee/raspbian-tee/optee_os/lib/libutee/tee_api_arith_mpi.c:418
    22c8:	4b04      	ldr	r3, [pc, #16]	; (22dc <TEE_BigIntSub+0x14>)
    22ca:	b417      	push	{r0, r1, r2, r4}
/media/wen/My_Passport/Raspbian/raspbian-tee/raspbian-tee/optee_os/lib/libutee/tee_api_arith_mpi.c:419
    22cc:	4c04      	ldr	r4, [pc, #16]	; (22e0 <TEE_BigIntSub+0x18>)
/media/wen/My_Passport/Raspbian/raspbian-tee/raspbian-tee/optee_os/lib/libutee/tee_api_arith_mpi.c:418
    22ce:	447b      	add	r3, pc
/media/wen/My_Passport/Raspbian/raspbian-tee/raspbian-tee/optee_os/lib/libutee/tee_api_arith_mpi.c:419
    22d0:	591b      	ldr	r3, [r3, r4]
    22d2:	9301      	str	r3, [sp, #4]
/media/wen/My_Passport/Raspbian/raspbian-tee/raspbian-tee/optee_os/lib/libutee/tee_api_arith_mpi.c:420
    22d4:	b003      	add	sp, #12
    22d6:	f85d 4b04 	ldr.w	r4, [sp], #4
/media/wen/My_Passport/Raspbian/raspbian-tee/raspbian-tee/optee_os/lib/libutee/tee_api_arith_mpi.c:419
    22da:	e58b      	b.n	1df4 <bigint_binary>
    22dc:	0000527e 	.word	0x0000527e
    22e0:	00000024 	.word	0x00000024

000022e4 <TEE_BigIntNeg>:
TEE_BigIntNeg():
/media/wen/My_Passport/Raspbian/raspbian-tee/raspbian-tee/optee_os/lib/libutee/tee_api_arith_mpi.c:423
    22e4:	b570      	push	{r4, r5, r6, lr}
    22e6:	4605      	mov	r5, r0
    22e8:	460e      	mov	r6, r1
    22ea:	b086      	sub	sp, #24
/media/wen/My_Passport/Raspbian/raspbian-tee/raspbian-tee/optee_os/lib/libutee/tee_api_arith_mpi.c:426
    22ec:	4601      	mov	r1, r0
    22ee:	4668      	mov	r0, sp
    22f0:	466c      	mov	r4, sp
    22f2:	f7ff fd6d 	bl	1dd0 <get_mpi>
/media/wen/My_Passport/Raspbian/raspbian-tee/raspbian-tee/optee_os/lib/libutee/tee_api_arith_mpi.c:428
    22f6:	42b5      	cmp	r5, r6
    22f8:	d014      	beq.n	2324 <TEE_BigIntNeg+0x40>
/media/wen/My_Passport/Raspbian/raspbian-tee/raspbian-tee/optee_os/lib/libutee/tee_api_arith_mpi.c:431
    22fa:	ad03      	add	r5, sp, #12
    22fc:	4631      	mov	r1, r6
    22fe:	4628      	mov	r0, r5
    2300:	f7ff faf6 	bl	18f0 <get_const_mpi>
/media/wen/My_Passport/Raspbian/raspbian-tee/raspbian-tee/optee_os/lib/libutee/tee_api_arith_mpi.c:433
    2304:	4629      	mov	r1, r5
    2306:	4668      	mov	r0, sp
    2308:	f000 fe34 	bl	2f74 <mbedtls_mpi_copy>
    230c:	4602      	mov	r2, r0
    230e:	b130      	cbz	r0, 231e <TEE_BigIntNeg+0x3a>
/media/wen/My_Passport/Raspbian/raspbian-tee/raspbian-tee/optee_os/lib/libutee/tee_api_arith_mpi.c:433 (discriminator 1)
    2310:	4809      	ldr	r0, [pc, #36]	; (2338 <TEE_BigIntNeg+0x54>)
    2312:	f240 11b1 	movw	r1, #433	; 0x1b1
    2316:	4478      	add	r0, pc
    2318:	30a5      	adds	r0, #165	; 0xa5
    231a:	f7ff fad9 	bl	18d0 <mpi_panic>
/media/wen/My_Passport/Raspbian/raspbian-tee/raspbian-tee/optee_os/lib/libutee/tee_api_arith_mpi.c:435
    231e:	4628      	mov	r0, r5
    2320:	f7ff fb1b 	bl	195a <put_mpi>
/media/wen/My_Passport/Raspbian/raspbian-tee/raspbian-tee/optee_os/lib/libutee/tee_api_arith_mpi.c:438
    2324:	f89d 3000 	ldrb.w	r3, [sp]
/media/wen/My_Passport/Raspbian/raspbian-tee/raspbian-tee/optee_os/lib/libutee/tee_api_arith_mpi.c:440
    2328:	4620      	mov	r0, r4
/media/wen/My_Passport/Raspbian/raspbian-tee/raspbian-tee/optee_os/lib/libutee/tee_api_arith_mpi.c:438
    232a:	425b      	negs	r3, r3
    232c:	f88d 3000 	strb.w	r3, [sp]
/media/wen/My_Passport/Raspbian/raspbian-tee/raspbian-tee/optee_os/lib/libutee/tee_api_arith_mpi.c:440
    2330:	f7ff fb13 	bl	195a <put_mpi>
/media/wen/My_Passport/Raspbian/raspbian-tee/raspbian-tee/optee_os/lib/libutee/tee_api_arith_mpi.c:441
    2334:	b006      	add	sp, #24
    2336:	bd70      	pop	{r4, r5, r6, pc}
    2338:	000040f9 	.word	0x000040f9

0000233c <TEE_BigIntMul>:
TEE_BigIntMul():
/media/wen/My_Passport/Raspbian/raspbian-tee/raspbian-tee/optee_os/lib/libutee/tee_api_arith_mpi.c:445
    233c:	e92d 4ff0 	stmdb	sp!, {r4, r5, r6, r7, r8, r9, sl, fp, lr}
    2340:	4690      	mov	r8, r2
    2342:	4681      	mov	r9, r0
    2344:	b087      	sub	sp, #28
/media/wen/My_Passport/Raspbian/raspbian-tee/raspbian-tee/optee_os/lib/libutee/tee_api_arith_mpi.c:446
    2346:	4608      	mov	r0, r1
/media/wen/My_Passport/Raspbian/raspbian-tee/raspbian-tee/optee_os/lib/libutee/tee_api_arith_mpi.c:445
    2348:	460f      	mov	r7, r1
/media/wen/My_Passport/Raspbian/raspbian-tee/raspbian-tee/optee_os/lib/libutee/tee_api_arith_mpi.c:446
    234a:	f7ff ff9e 	bl	228a <TEE_BigIntGetBitCount>
    234e:	4604      	mov	r4, r0
/media/wen/My_Passport/Raspbian/raspbian-tee/raspbian-tee/optee_os/lib/libutee/tee_api_arith_mpi.c:447
    2350:	4640      	mov	r0, r8
    2352:	f7ff ff9a 	bl	228a <TEE_BigIntGetBitCount>
/media/wen/My_Passport/Raspbian/raspbian-tee/raspbian-tee/optee_os/lib/libutee/tee_api_arith_mpi.c:448
    2356:	f104 031f 	add.w	r3, r4, #31
    235a:	f100 041f 	add.w	r4, r0, #31
/media/wen/My_Passport/Raspbian/raspbian-tee/raspbian-tee/optee_os/lib/libutee/tee_api_arith_mpi.c:449
    235e:	f10d 0a0c 	add.w	sl, sp, #12
/media/wen/My_Passport/Raspbian/raspbian-tee/raspbian-tee/optee_os/lib/libutee/tee_api_arith_mpi.c:445
    2362:	4e1c      	ldr	r6, [pc, #112]	; (23d4 <TEE_BigIntMul+0x98>)
/media/wen/My_Passport/Raspbian/raspbian-tee/raspbian-tee/optee_os/lib/libutee/tee_api_arith_mpi.c:448
    2364:	0964      	lsrs	r4, r4, #5
/media/wen/My_Passport/Raspbian/raspbian-tee/raspbian-tee/optee_os/lib/libutee/tee_api_arith_mpi.c:445
    2366:	447e      	add	r6, pc
/media/wen/My_Passport/Raspbian/raspbian-tee/raspbian-tee/optee_os/lib/libutee/tee_api_arith_mpi.c:448
    2368:	eb04 1453 	add.w	r4, r4, r3, lsr #5
/media/wen/My_Passport/Raspbian/raspbian-tee/raspbian-tee/optee_os/lib/libutee/tee_api_arith_mpi.c:449
    236c:	2300      	movs	r3, #0
    236e:	9303      	str	r3, [sp, #12]
/media/wen/My_Passport/Raspbian/raspbian-tee/raspbian-tee/optee_os/lib/libutee/tee_api_arith_mpi.c:448
    2370:	3404      	adds	r4, #4
/media/wen/My_Passport/Raspbian/raspbian-tee/raspbian-tee/optee_os/lib/libutee/tee_api_arith_mpi.c:449
    2372:	f8ca 3004 	str.w	r3, [sl, #4]
    2376:	f8ca 3008 	str.w	r3, [sl, #8]
/media/wen/My_Passport/Raspbian/raspbian-tee/raspbian-tee/optee_os/lib/libutee/tee_api_arith_mpi.c:452
    237a:	00a1      	lsls	r1, r4, #2
    237c:	4b16      	ldr	r3, [pc, #88]	; (23d8 <TEE_BigIntMul+0x9c>)
    237e:	f856 b003 	ldr.w	fp, [r6, r3]
    2382:	f8db 0000 	ldr.w	r0, [fp]
    2386:	f003 fc33 	bl	5bf0 <mempool_alloc>
/media/wen/My_Passport/Raspbian/raspbian-tee/raspbian-tee/optee_os/lib/libutee/tee_api_arith_mpi.c:453
    238a:	4605      	mov	r5, r0
    238c:	b910      	cbnz	r0, 2394 <TEE_BigIntMul+0x58>
/media/wen/My_Passport/Raspbian/raspbian-tee/raspbian-tee/optee_os/lib/libutee/tee_api_arith_mpi.c:454
    238e:	4810      	ldr	r0, [pc, #64]	; (23d0 <TEE_BigIntMul+0x94>)
    2390:	f003 fd88 	bl	5ea4 <TEE_Panic>
/media/wen/My_Passport/Raspbian/raspbian-tee/raspbian-tee/optee_os/lib/libutee/tee_api_arith_mpi.c:456
    2394:	4621      	mov	r1, r4
    2396:	4628      	mov	r0, r5
    2398:	f7ff fd92 	bl	1ec0 <TEE_BigIntInit>
/media/wen/My_Passport/Raspbian/raspbian-tee/raspbian-tee/optee_os/lib/libutee/tee_api_arith_mpi.c:457
    239c:	4650      	mov	r0, sl
    239e:	2103      	movs	r1, #3
    23a0:	f7ff fd8e 	bl	1ec0 <TEE_BigIntInit>
/media/wen/My_Passport/Raspbian/raspbian-tee/raspbian-tee/optee_os/lib/libutee/tee_api_arith_mpi.c:459
    23a4:	4b0d      	ldr	r3, [pc, #52]	; (23dc <TEE_BigIntMul+0xa0>)
    23a6:	4642      	mov	r2, r8
    23a8:	4639      	mov	r1, r7
    23aa:	4628      	mov	r0, r5
    23ac:	58f3      	ldr	r3, [r6, r3]
    23ae:	9301      	str	r3, [sp, #4]
    23b0:	f7ff fd20 	bl	1df4 <bigint_binary>
/media/wen/My_Passport/Raspbian/raspbian-tee/raspbian-tee/optee_os/lib/libutee/tee_api_arith_mpi.c:461
    23b4:	4652      	mov	r2, sl
    23b6:	4629      	mov	r1, r5
    23b8:	4648      	mov	r0, r9
    23ba:	f7ff ff77 	bl	22ac <TEE_BigIntAdd>
/media/wen/My_Passport/Raspbian/raspbian-tee/raspbian-tee/optee_os/lib/libutee/tee_api_arith_mpi.c:463
    23be:	4629      	mov	r1, r5
    23c0:	f8db 0000 	ldr.w	r0, [fp]
    23c4:	f003 fc5c 	bl	5c80 <mempool_free>
/media/wen/My_Passport/Raspbian/raspbian-tee/raspbian-tee/optee_os/lib/libutee/tee_api_arith_mpi.c:464
    23c8:	b007      	add	sp, #28
    23ca:	e8bd 8ff0 	ldmia.w	sp!, {r4, r5, r6, r7, r8, r9, sl, fp, pc}
    23ce:	bf00      	nop
    23d0:	ffff000c 	.word	0xffff000c
    23d4:	000051e6 	.word	0x000051e6
    23d8:	00000030 	.word	0x00000030
    23dc:	00000018 	.word	0x00000018

000023e0 <TEE_BigIntSquare>:
TEE_BigIntSquare():
/media/wen/My_Passport/Raspbian/raspbian-tee/raspbian-tee/optee_os/lib/libutee/tee_api_arith_mpi.c:468
    23e0:	460a      	mov	r2, r1
    23e2:	f7ff bfab 	b.w	233c <TEE_BigIntMul>

000023e6 <TEE_BigIntDiv>:
TEE_BigIntDiv():
/media/wen/My_Passport/Raspbian/raspbian-tee/raspbian-tee/optee_os/lib/libutee/tee_api_arith_mpi.c:473
    23e6:	e92d 4ff0 	stmdb	sp!, {r4, r5, r6, r7, r8, r9, sl, fp, lr}
    23ea:	4681      	mov	r9, r0
    23ec:	468b      	mov	fp, r1
    23ee:	b08d      	sub	sp, #52	; 0x34
/media/wen/My_Passport/Raspbian/raspbian-tee/raspbian-tee/optee_os/lib/libutee/tee_api_arith_mpi.c:481
    23f0:	4601      	mov	r1, r0
/media/wen/My_Passport/Raspbian/raspbian-tee/raspbian-tee/optee_os/lib/libutee/tee_api_arith_mpi.c:482
    23f2:	ae03      	add	r6, sp, #12
/media/wen/My_Passport/Raspbian/raspbian-tee/raspbian-tee/optee_os/lib/libutee/tee_api_arith_mpi.c:481
    23f4:	4668      	mov	r0, sp
/media/wen/My_Passport/Raspbian/raspbian-tee/raspbian-tee/optee_os/lib/libutee/tee_api_arith_mpi.c:473
    23f6:	4690      	mov	r8, r2
    23f8:	461c      	mov	r4, r3
/media/wen/My_Passport/Raspbian/raspbian-tee/raspbian-tee/optee_os/lib/libutee/tee_api_arith_mpi.c:481
    23fa:	f7ff fce9 	bl	1dd0 <get_mpi>
/media/wen/My_Passport/Raspbian/raspbian-tee/raspbian-tee/optee_os/lib/libutee/tee_api_arith_mpi.c:482
    23fe:	4659      	mov	r1, fp
    2400:	4630      	mov	r0, r6
/media/wen/My_Passport/Raspbian/raspbian-tee/raspbian-tee/optee_os/lib/libutee/tee_api_arith_mpi.c:481
    2402:	466f      	mov	r7, sp
/media/wen/My_Passport/Raspbian/raspbian-tee/raspbian-tee/optee_os/lib/libutee/tee_api_arith_mpi.c:482
    2404:	f7ff fce4 	bl	1dd0 <get_mpi>
/media/wen/My_Passport/Raspbian/raspbian-tee/raspbian-tee/optee_os/lib/libutee/tee_api_arith_mpi.c:484
    2408:	45c1      	cmp	r9, r8
    240a:	f10d 0a18 	add.w	sl, sp, #24
    240e:	d022      	beq.n	2456 <TEE_BigIntDiv+0x70>
/media/wen/My_Passport/Raspbian/raspbian-tee/raspbian-tee/optee_os/lib/libutee/tee_api_arith_mpi.c:486
    2410:	45c3      	cmp	fp, r8
    2412:	d022      	beq.n	245a <TEE_BigIntDiv+0x74>
/media/wen/My_Passport/Raspbian/raspbian-tee/raspbian-tee/optee_os/lib/libutee/tee_api_arith_mpi.c:478
    2414:	4655      	mov	r5, sl
/media/wen/My_Passport/Raspbian/raspbian-tee/raspbian-tee/optee_os/lib/libutee/tee_api_arith_mpi.c:489
    2416:	4641      	mov	r1, r8
    2418:	4650      	mov	r0, sl
    241a:	f7ff fa69 	bl	18f0 <get_const_mpi>
/media/wen/My_Passport/Raspbian/raspbian-tee/raspbian-tee/optee_os/lib/libutee/tee_api_arith_mpi.c:491
    241e:	45a1      	cmp	r9, r4
    2420:	f10d 0924 	add.w	r9, sp, #36	; 0x24
    2424:	d01b      	beq.n	245e <TEE_BigIntDiv+0x78>
/media/wen/My_Passport/Raspbian/raspbian-tee/raspbian-tee/optee_os/lib/libutee/tee_api_arith_mpi.c:493
    2426:	45a3      	cmp	fp, r4
    2428:	d01b      	beq.n	2462 <TEE_BigIntDiv+0x7c>
/media/wen/My_Passport/Raspbian/raspbian-tee/raspbian-tee/optee_os/lib/libutee/tee_api_arith_mpi.c:495
    242a:	45a0      	cmp	r8, r4
    242c:	d01b      	beq.n	2466 <TEE_BigIntDiv+0x80>
/media/wen/My_Passport/Raspbian/raspbian-tee/raspbian-tee/optee_os/lib/libutee/tee_api_arith_mpi.c:498
    242e:	4621      	mov	r1, r4
/media/wen/My_Passport/Raspbian/raspbian-tee/raspbian-tee/optee_os/lib/libutee/tee_api_arith_mpi.c:479
    2430:	464c      	mov	r4, r9
/media/wen/My_Passport/Raspbian/raspbian-tee/raspbian-tee/optee_os/lib/libutee/tee_api_arith_mpi.c:498
    2432:	4648      	mov	r0, r9
    2434:	f7ff fa5c 	bl	18f0 <get_const_mpi>
/media/wen/My_Passport/Raspbian/raspbian-tee/raspbian-tee/optee_os/lib/libutee/tee_api_arith_mpi.c:500
    2438:	462a      	mov	r2, r5
    243a:	4623      	mov	r3, r4
    243c:	4631      	mov	r1, r6
    243e:	4638      	mov	r0, r7
    2440:	f001 fa86 	bl	3950 <mbedtls_mpi_div_mpi>
    2444:	4602      	mov	r2, r0
    2446:	b180      	cbz	r0, 246a <TEE_BigIntDiv+0x84>
/media/wen/My_Passport/Raspbian/raspbian-tee/raspbian-tee/optee_os/lib/libutee/tee_api_arith_mpi.c:500 (discriminator 1)
    2448:	4811      	ldr	r0, [pc, #68]	; (2490 <TEE_BigIntDiv+0xaa>)
    244a:	f44f 71fa 	mov.w	r1, #500	; 0x1f4
    244e:	4478      	add	r0, pc
    2450:	30b3      	adds	r0, #179	; 0xb3
    2452:	f7ff fa3d 	bl	18d0 <mpi_panic>
/media/wen/My_Passport/Raspbian/raspbian-tee/raspbian-tee/optee_os/lib/libutee/tee_api_arith_mpi.c:485
    2456:	466d      	mov	r5, sp
    2458:	e7e1      	b.n	241e <TEE_BigIntDiv+0x38>
/media/wen/My_Passport/Raspbian/raspbian-tee/raspbian-tee/optee_os/lib/libutee/tee_api_arith_mpi.c:487
    245a:	4635      	mov	r5, r6
    245c:	e7df      	b.n	241e <TEE_BigIntDiv+0x38>
/media/wen/My_Passport/Raspbian/raspbian-tee/raspbian-tee/optee_os/lib/libutee/tee_api_arith_mpi.c:492
    245e:	463c      	mov	r4, r7
    2460:	e7ea      	b.n	2438 <TEE_BigIntDiv+0x52>
/media/wen/My_Passport/Raspbian/raspbian-tee/raspbian-tee/optee_os/lib/libutee/tee_api_arith_mpi.c:494
    2462:	4634      	mov	r4, r6
    2464:	e7e8      	b.n	2438 <TEE_BigIntDiv+0x52>
/media/wen/My_Passport/Raspbian/raspbian-tee/raspbian-tee/optee_os/lib/libutee/tee_api_arith_mpi.c:496
    2466:	462c      	mov	r4, r5
    2468:	e7e6      	b.n	2438 <TEE_BigIntDiv+0x52>
/media/wen/My_Passport/Raspbian/raspbian-tee/raspbian-tee/optee_os/lib/libutee/tee_api_arith_mpi.c:502
    246a:	4638      	mov	r0, r7
    246c:	f7ff fa75 	bl	195a <put_mpi>
/media/wen/My_Passport/Raspbian/raspbian-tee/raspbian-tee/optee_os/lib/libutee/tee_api_arith_mpi.c:503
    2470:	4630      	mov	r0, r6
    2472:	f7ff fa72 	bl	195a <put_mpi>
/media/wen/My_Passport/Raspbian/raspbian-tee/raspbian-tee/optee_os/lib/libutee/tee_api_arith_mpi.c:504
    2476:	4555      	cmp	r5, sl
    2478:	d102      	bne.n	2480 <TEE_BigIntDiv+0x9a>
/media/wen/My_Passport/Raspbian/raspbian-tee/raspbian-tee/optee_os/lib/libutee/tee_api_arith_mpi.c:505
    247a:	4628      	mov	r0, r5
    247c:	f7ff fa6d 	bl	195a <put_mpi>
/media/wen/My_Passport/Raspbian/raspbian-tee/raspbian-tee/optee_os/lib/libutee/tee_api_arith_mpi.c:506
    2480:	454c      	cmp	r4, r9
    2482:	d102      	bne.n	248a <TEE_BigIntDiv+0xa4>
/media/wen/My_Passport/Raspbian/raspbian-tee/raspbian-tee/optee_os/lib/libutee/tee_api_arith_mpi.c:507
    2484:	4620      	mov	r0, r4
    2486:	f7ff fa68 	bl	195a <put_mpi>
/media/wen/My_Passport/Raspbian/raspbian-tee/raspbian-tee/optee_os/lib/libutee/tee_api_arith_mpi.c:508
    248a:	b00d      	add	sp, #52	; 0x34
    248c:	e8bd 8ff0 	ldmia.w	sp!, {r4, r5, r6, r7, r8, r9, sl, fp, pc}
    2490:	00003fc1 	.word	0x00003fc1

00002494 <TEE_BigIntMod>:
TEE_BigIntMod():
/media/wen/My_Passport/Raspbian/raspbian-tee/raspbian-tee/optee_os/lib/libutee/tee_api_arith_mpi.c:511
    2494:	b5f7      	push	{r0, r1, r2, r4, r5, r6, r7, lr}
    2496:	4606      	mov	r6, r0
    2498:	460f      	mov	r7, r1
/media/wen/My_Passport/Raspbian/raspbian-tee/raspbian-tee/optee_os/lib/libutee/tee_api_arith_mpi.c:512
    249a:	4610      	mov	r0, r2
    249c:	2102      	movs	r1, #2
/media/wen/My_Passport/Raspbian/raspbian-tee/raspbian-tee/optee_os/lib/libutee/tee_api_arith_mpi.c:511
    249e:	4614      	mov	r4, r2
/media/wen/My_Passport/Raspbian/raspbian-tee/raspbian-tee/optee_os/lib/libutee/tee_api_arith_mpi.c:512
    24a0:	f7ff fddc 	bl	205c <TEE_BigIntCmpS32>
    24a4:	2800      	cmp	r0, #0
/media/wen/My_Passport/Raspbian/raspbian-tee/raspbian-tee/optee_os/lib/libutee/tee_api_arith_mpi.c:511
    24a6:	4d0b      	ldr	r5, [pc, #44]	; (24d4 <TEE_BigIntMod+0x40>)
    24a8:	447d      	add	r5, pc
/media/wen/My_Passport/Raspbian/raspbian-tee/raspbian-tee/optee_os/lib/libutee/tee_api_arith_mpi.c:512
    24aa:	da08      	bge.n	24be <TEE_BigIntMod+0x2a>
/media/wen/My_Passport/Raspbian/raspbian-tee/raspbian-tee/optee_os/lib/libutee/tee_api_arith_mpi.c:513
    24ac:	480a      	ldr	r0, [pc, #40]	; (24d8 <TEE_BigIntMod+0x44>)
    24ae:	f240 2101 	movw	r1, #513	; 0x201
    24b2:	4a0a      	ldr	r2, [pc, #40]	; (24dc <TEE_BigIntMod+0x48>)
    24b4:	4478      	add	r0, pc
    24b6:	447a      	add	r2, pc
    24b8:	30c1      	adds	r0, #193	; 0xc1
    24ba:	f000 fa15 	bl	28e8 <api_panic>
/media/wen/My_Passport/Raspbian/raspbian-tee/raspbian-tee/optee_os/lib/libutee/tee_api_arith_mpi.c:515
    24be:	4b08      	ldr	r3, [pc, #32]	; (24e0 <TEE_BigIntMod+0x4c>)
    24c0:	4622      	mov	r2, r4
    24c2:	4639      	mov	r1, r7
    24c4:	4630      	mov	r0, r6
    24c6:	58eb      	ldr	r3, [r5, r3]
    24c8:	9301      	str	r3, [sp, #4]
/media/wen/My_Passport/Raspbian/raspbian-tee/raspbian-tee/optee_os/lib/libutee/tee_api_arith_mpi.c:516
    24ca:	b003      	add	sp, #12
    24cc:	e8bd 40f0 	ldmia.w	sp!, {r4, r5, r6, r7, lr}
/media/wen/My_Passport/Raspbian/raspbian-tee/raspbian-tee/optee_os/lib/libutee/tee_api_arith_mpi.c:515
    24d0:	e490      	b.n	1df4 <bigint_binary>
    24d2:	bf00      	nop
    24d4:	000050a4 	.word	0x000050a4
    24d8:	00003f5b 	.word	0x00003f5b
    24dc:	00004113 	.word	0x00004113
    24e0:	00000028 	.word	0x00000028

000024e4 <TEE_BigIntAddMod>:
TEE_BigIntAddMod():
/media/wen/My_Passport/Raspbian/raspbian-tee/raspbian-tee/optee_os/lib/libutee/tee_api_arith_mpi.c:520
    24e4:	b537      	push	{r0, r1, r2, r4, r5, lr}
    24e6:	4c04      	ldr	r4, [pc, #16]	; (24f8 <TEE_BigIntAddMod+0x14>)
/media/wen/My_Passport/Raspbian/raspbian-tee/raspbian-tee/optee_os/lib/libutee/tee_api_arith_mpi.c:521
    24e8:	4d04      	ldr	r5, [pc, #16]	; (24fc <TEE_BigIntAddMod+0x18>)
/media/wen/My_Passport/Raspbian/raspbian-tee/raspbian-tee/optee_os/lib/libutee/tee_api_arith_mpi.c:520
    24ea:	447c      	add	r4, pc
/media/wen/My_Passport/Raspbian/raspbian-tee/raspbian-tee/optee_os/lib/libutee/tee_api_arith_mpi.c:521
    24ec:	5964      	ldr	r4, [r4, r5]
    24ee:	9400      	str	r4, [sp, #0]
    24f0:	f7ff fdc7 	bl	2082 <bigint_binary_mod>
/media/wen/My_Passport/Raspbian/raspbian-tee/raspbian-tee/optee_os/lib/libutee/tee_api_arith_mpi.c:522
    24f4:	b003      	add	sp, #12
    24f6:	bd30      	pop	{r4, r5, pc}
    24f8:	00005062 	.word	0x00005062
    24fc:	0000001c 	.word	0x0000001c

00002500 <TEE_BigIntSubMod>:
TEE_BigIntSubMod():
/media/wen/My_Passport/Raspbian/raspbian-tee/raspbian-tee/optee_os/lib/libutee/tee_api_arith_mpi.c:526
    2500:	b537      	push	{r0, r1, r2, r4, r5, lr}
    2502:	4c04      	ldr	r4, [pc, #16]	; (2514 <TEE_BigIntSubMod+0x14>)
/media/wen/My_Passport/Raspbian/raspbian-tee/raspbian-tee/optee_os/lib/libutee/tee_api_arith_mpi.c:527
    2504:	4d04      	ldr	r5, [pc, #16]	; (2518 <TEE_BigIntSubMod+0x18>)
/media/wen/My_Passport/Raspbian/raspbian-tee/raspbian-tee/optee_os/lib/libutee/tee_api_arith_mpi.c:526
    2506:	447c      	add	r4, pc
/media/wen/My_Passport/Raspbian/raspbian-tee/raspbian-tee/optee_os/lib/libutee/tee_api_arith_mpi.c:527
    2508:	5964      	ldr	r4, [r4, r5]
    250a:	9400      	str	r4, [sp, #0]
    250c:	f7ff fdb9 	bl	2082 <bigint_binary_mod>
/media/wen/My_Passport/Raspbian/raspbian-tee/raspbian-tee/optee_os/lib/libutee/tee_api_arith_mpi.c:528
    2510:	b003      	add	sp, #12
    2512:	bd30      	pop	{r4, r5, pc}
    2514:	00005046 	.word	0x00005046
    2518:	00000024 	.word	0x00000024

0000251c <TEE_BigIntMulMod>:
TEE_BigIntMulMod():
/media/wen/My_Passport/Raspbian/raspbian-tee/raspbian-tee/optee_os/lib/libutee/tee_api_arith_mpi.c:532
    251c:	b537      	push	{r0, r1, r2, r4, r5, lr}
    251e:	4c04      	ldr	r4, [pc, #16]	; (2530 <TEE_BigIntMulMod+0x14>)
/media/wen/My_Passport/Raspbian/raspbian-tee/raspbian-tee/optee_os/lib/libutee/tee_api_arith_mpi.c:533
    2520:	4d04      	ldr	r5, [pc, #16]	; (2534 <TEE_BigIntMulMod+0x18>)
/media/wen/My_Passport/Raspbian/raspbian-tee/raspbian-tee/optee_os/lib/libutee/tee_api_arith_mpi.c:532
    2522:	447c      	add	r4, pc
/media/wen/My_Passport/Raspbian/raspbian-tee/raspbian-tee/optee_os/lib/libutee/tee_api_arith_mpi.c:533
    2524:	5964      	ldr	r4, [r4, r5]
    2526:	9400      	str	r4, [sp, #0]
    2528:	f7ff fdab 	bl	2082 <bigint_binary_mod>
/media/wen/My_Passport/Raspbian/raspbian-tee/raspbian-tee/optee_os/lib/libutee/tee_api_arith_mpi.c:534
    252c:	b003      	add	sp, #12
    252e:	bd30      	pop	{r4, r5, pc}
    2530:	0000502a 	.word	0x0000502a
    2534:	00000018 	.word	0x00000018

00002538 <TEE_BigIntSquareMod>:
TEE_BigIntSquareMod():
/media/wen/My_Passport/Raspbian/raspbian-tee/raspbian-tee/optee_os/lib/libutee/tee_api_arith_mpi.c:539
    2538:	4613      	mov	r3, r2
    253a:	460a      	mov	r2, r1
    253c:	f7ff bfee 	b.w	251c <TEE_BigIntMulMod>

00002540 <TEE_BigIntInvMod>:
TEE_BigIntInvMod():
/media/wen/My_Passport/Raspbian/raspbian-tee/raspbian-tee/optee_os/lib/libutee/tee_api_arith_mpi.c:544
    2540:	e92d 41f0 	stmdb	sp!, {r4, r5, r6, r7, r8, lr}
    2544:	4606      	mov	r6, r0
    2546:	460c      	mov	r4, r1
    2548:	b08a      	sub	sp, #40	; 0x28
/media/wen/My_Passport/Raspbian/raspbian-tee/raspbian-tee/optee_os/lib/libutee/tee_api_arith_mpi.c:545
    254a:	2102      	movs	r1, #2
    254c:	4610      	mov	r0, r2
/media/wen/My_Passport/Raspbian/raspbian-tee/raspbian-tee/optee_os/lib/libutee/tee_api_arith_mpi.c:544
    254e:	4690      	mov	r8, r2
/media/wen/My_Passport/Raspbian/raspbian-tee/raspbian-tee/optee_os/lib/libutee/tee_api_arith_mpi.c:545
    2550:	f7ff fd84 	bl	205c <TEE_BigIntCmpS32>
    2554:	2800      	cmp	r0, #0
    2556:	da08      	bge.n	256a <TEE_BigIntInvMod+0x2a>
/media/wen/My_Passport/Raspbian/raspbian-tee/raspbian-tee/optee_os/lib/libutee/tee_api_arith_mpi.c:546
    2558:	481f      	ldr	r0, [pc, #124]	; (25d8 <TEE_BigIntInvMod+0x98>)
    255a:	f240 2122 	movw	r1, #546	; 0x222
    255e:	4a1f      	ldr	r2, [pc, #124]	; (25dc <TEE_BigIntInvMod+0x9c>)
    2560:	4478      	add	r0, pc
    2562:	447a      	add	r2, pc
    2564:	30cf      	adds	r0, #207	; 0xcf
    2566:	f000 f9bf 	bl	28e8 <api_panic>
/media/wen/My_Passport/Raspbian/raspbian-tee/raspbian-tee/optee_os/lib/libutee/tee_api_arith_mpi.c:545 (discriminator 1)
    256a:	2100      	movs	r1, #0
    256c:	4620      	mov	r0, r4
    256e:	f7ff fd75 	bl	205c <TEE_BigIntCmpS32>
    2572:	2800      	cmp	r0, #0
    2574:	d0f0      	beq.n	2558 <TEE_BigIntInvMod+0x18>
/media/wen/My_Passport/Raspbian/raspbian-tee/raspbian-tee/optee_os/lib/libutee/tee_api_arith_mpi.c:553
    2576:	ad01      	add	r5, sp, #4
    2578:	4631      	mov	r1, r6
    257a:	4628      	mov	r0, r5
/media/wen/My_Passport/Raspbian/raspbian-tee/raspbian-tee/optee_os/lib/libutee/tee_api_arith_mpi.c:554
    257c:	af07      	add	r7, sp, #28
/media/wen/My_Passport/Raspbian/raspbian-tee/raspbian-tee/optee_os/lib/libutee/tee_api_arith_mpi.c:553
    257e:	f7ff fc27 	bl	1dd0 <get_mpi>
/media/wen/My_Passport/Raspbian/raspbian-tee/raspbian-tee/optee_os/lib/libutee/tee_api_arith_mpi.c:554
    2582:	4641      	mov	r1, r8
    2584:	4638      	mov	r0, r7
    2586:	f7ff f9b3 	bl	18f0 <get_const_mpi>
/media/wen/My_Passport/Raspbian/raspbian-tee/raspbian-tee/optee_os/lib/libutee/tee_api_arith_mpi.c:556
    258a:	42b4      	cmp	r4, r6
    258c:	ae04      	add	r6, sp, #16
    258e:	d012      	beq.n	25b6 <TEE_BigIntInvMod+0x76>
/media/wen/My_Passport/Raspbian/raspbian-tee/raspbian-tee/optee_os/lib/libutee/tee_api_arith_mpi.c:559
    2590:	4621      	mov	r1, r4
/media/wen/My_Passport/Raspbian/raspbian-tee/raspbian-tee/optee_os/lib/libutee/tee_api_arith_mpi.c:551
    2592:	4634      	mov	r4, r6
/media/wen/My_Passport/Raspbian/raspbian-tee/raspbian-tee/optee_os/lib/libutee/tee_api_arith_mpi.c:559
    2594:	4630      	mov	r0, r6
    2596:	f7ff f9ab 	bl	18f0 <get_const_mpi>
/media/wen/My_Passport/Raspbian/raspbian-tee/raspbian-tee/optee_os/lib/libutee/tee_api_arith_mpi.c:561
    259a:	463a      	mov	r2, r7
    259c:	4621      	mov	r1, r4
    259e:	4628      	mov	r0, r5
    25a0:	f002 f961 	bl	4866 <mbedtls_mpi_inv_mod>
    25a4:	4602      	mov	r2, r0
    25a6:	b140      	cbz	r0, 25ba <TEE_BigIntInvMod+0x7a>
/media/wen/My_Passport/Raspbian/raspbian-tee/raspbian-tee/optee_os/lib/libutee/tee_api_arith_mpi.c:561 (discriminator 1)
    25a8:	480d      	ldr	r0, [pc, #52]	; (25e0 <TEE_BigIntInvMod+0xa0>)
    25aa:	f240 2131 	movw	r1, #561	; 0x231
    25ae:	4478      	add	r0, pc
    25b0:	30cf      	adds	r0, #207	; 0xcf
    25b2:	f7ff f98d 	bl	18d0 <mpi_panic>
/media/wen/My_Passport/Raspbian/raspbian-tee/raspbian-tee/optee_os/lib/libutee/tee_api_arith_mpi.c:557
    25b6:	462c      	mov	r4, r5
    25b8:	e7ef      	b.n	259a <TEE_BigIntInvMod+0x5a>
/media/wen/My_Passport/Raspbian/raspbian-tee/raspbian-tee/optee_os/lib/libutee/tee_api_arith_mpi.c:563
    25ba:	4628      	mov	r0, r5
    25bc:	f7ff f9cd 	bl	195a <put_mpi>
/media/wen/My_Passport/Raspbian/raspbian-tee/raspbian-tee/optee_os/lib/libutee/tee_api_arith_mpi.c:564
    25c0:	4638      	mov	r0, r7
    25c2:	f7ff f9ca 	bl	195a <put_mpi>
/media/wen/My_Passport/Raspbian/raspbian-tee/raspbian-tee/optee_os/lib/libutee/tee_api_arith_mpi.c:565
    25c6:	42b4      	cmp	r4, r6
    25c8:	d102      	bne.n	25d0 <TEE_BigIntInvMod+0x90>
/media/wen/My_Passport/Raspbian/raspbian-tee/raspbian-tee/optee_os/lib/libutee/tee_api_arith_mpi.c:566
    25ca:	4620      	mov	r0, r4
    25cc:	f7ff f9c5 	bl	195a <put_mpi>
/media/wen/My_Passport/Raspbian/raspbian-tee/raspbian-tee/optee_os/lib/libutee/tee_api_arith_mpi.c:567
    25d0:	b00a      	add	sp, #40	; 0x28
    25d2:	e8bd 81f0 	ldmia.w	sp!, {r4, r5, r6, r7, r8, pc}
    25d6:	bf00      	nop
    25d8:	00003eaf 	.word	0x00003eaf
    25dc:	0000407c 	.word	0x0000407c
    25e0:	00003e61 	.word	0x00003e61

000025e4 <TEE_BigIntRelativePrime>:
TEE_BigIntRelativePrime():
/media/wen/My_Passport/Raspbian/raspbian-tee/raspbian-tee/optee_os/lib/libutee/tee_api_arith_mpi.c:570
    25e4:	e92d 41f0 	stmdb	sp!, {r4, r5, r6, r7, r8, lr}
    25e8:	4604      	mov	r4, r0
    25ea:	460e      	mov	r6, r1
    25ec:	b08a      	sub	sp, #40	; 0x28
/media/wen/My_Passport/Raspbian/raspbian-tee/raspbian-tee/optee_os/lib/libutee/tee_api_arith_mpi.c:577
    25ee:	4601      	mov	r1, r0
    25f0:	ad01      	add	r5, sp, #4
    25f2:	4628      	mov	r0, r5
    25f4:	f7ff f97c 	bl	18f0 <get_const_mpi>
/media/wen/My_Passport/Raspbian/raspbian-tee/raspbian-tee/optee_os/lib/libutee/tee_api_arith_mpi.c:579
    25f8:	42b4      	cmp	r4, r6
    25fa:	ac04      	add	r4, sp, #16
    25fc:	d016      	beq.n	262c <TEE_BigIntRelativePrime+0x48>
/media/wen/My_Passport/Raspbian/raspbian-tee/raspbian-tee/optee_os/lib/libutee/tee_api_arith_mpi.c:574
    25fe:	46a0      	mov	r8, r4
/media/wen/My_Passport/Raspbian/raspbian-tee/raspbian-tee/optee_os/lib/libutee/tee_api_arith_mpi.c:582
    2600:	4631      	mov	r1, r6
    2602:	4620      	mov	r0, r4
    2604:	f7ff f974 	bl	18f0 <get_const_mpi>
get_mpi():
/media/wen/My_Passport/Raspbian/raspbian-tee/raspbian-tee/optee_os/lib/libutee/tee_api_arith_mpi.c:99
    2608:	ae07      	add	r6, sp, #28
    260a:	4630      	mov	r0, r6
    260c:	f000 fbb4 	bl	2d78 <mbedtls_mpi_init_mempool>
TEE_BigIntRelativePrime():
/media/wen/My_Passport/Raspbian/raspbian-tee/raspbian-tee/optee_os/lib/libutee/tee_api_arith_mpi.c:586
    2610:	4622      	mov	r2, r4
    2612:	4629      	mov	r1, r5
    2614:	4630      	mov	r0, r6
    2616:	f001 ff78 	bl	450a <mbedtls_mpi_gcd>
    261a:	4602      	mov	r2, r0
    261c:	b140      	cbz	r0, 2630 <TEE_BigIntRelativePrime+0x4c>
/media/wen/My_Passport/Raspbian/raspbian-tee/raspbian-tee/optee_os/lib/libutee/tee_api_arith_mpi.c:586 (discriminator 1)
    261e:	4810      	ldr	r0, [pc, #64]	; (2660 <TEE_BigIntRelativePrime+0x7c>)
    2620:	f240 214a 	movw	r1, #586	; 0x24a
    2624:	4478      	add	r0, pc
    2626:	30e0      	adds	r0, #224	; 0xe0
    2628:	f7ff f952 	bl	18d0 <mpi_panic>
/media/wen/My_Passport/Raspbian/raspbian-tee/raspbian-tee/optee_os/lib/libutee/tee_api_arith_mpi.c:580
    262c:	46a8      	mov	r8, r5
    262e:	e7eb      	b.n	2608 <TEE_BigIntRelativePrime+0x24>
/media/wen/My_Passport/Raspbian/raspbian-tee/raspbian-tee/optee_os/lib/libutee/tee_api_arith_mpi.c:588
    2630:	2101      	movs	r1, #1
    2632:	4630      	mov	r0, r6
    2634:	f000 ff4c 	bl	34d0 <mbedtls_mpi_cmp_int>
    2638:	fab0 f780 	clz	r7, r0
/media/wen/My_Passport/Raspbian/raspbian-tee/raspbian-tee/optee_os/lib/libutee/tee_api_arith_mpi.c:590
    263c:	4630      	mov	r0, r6
    263e:	f7ff f98c 	bl	195a <put_mpi>
/media/wen/My_Passport/Raspbian/raspbian-tee/raspbian-tee/optee_os/lib/libutee/tee_api_arith_mpi.c:591
    2642:	4628      	mov	r0, r5
    2644:	f7ff f989 	bl	195a <put_mpi>
/media/wen/My_Passport/Raspbian/raspbian-tee/raspbian-tee/optee_os/lib/libutee/tee_api_arith_mpi.c:592
    2648:	45a0      	cmp	r8, r4
/media/wen/My_Passport/Raspbian/raspbian-tee/raspbian-tee/optee_os/lib/libutee/tee_api_arith_mpi.c:588
    264a:	ea4f 1757 	mov.w	r7, r7, lsr #5
/media/wen/My_Passport/Raspbian/raspbian-tee/raspbian-tee/optee_os/lib/libutee/tee_api_arith_mpi.c:592
    264e:	d102      	bne.n	2656 <TEE_BigIntRelativePrime+0x72>
/media/wen/My_Passport/Raspbian/raspbian-tee/raspbian-tee/optee_os/lib/libutee/tee_api_arith_mpi.c:593
    2650:	4640      	mov	r0, r8
    2652:	f7ff f982 	bl	195a <put_mpi>
/media/wen/My_Passport/Raspbian/raspbian-tee/raspbian-tee/optee_os/lib/libutee/tee_api_arith_mpi.c:596
    2656:	4638      	mov	r0, r7
    2658:	b00a      	add	sp, #40	; 0x28
    265a:	e8bd 81f0 	ldmia.w	sp!, {r4, r5, r6, r7, r8, pc}
    265e:	bf00      	nop
    2660:	00003deb 	.word	0x00003deb

00002664 <TEE_BigIntComputeExtendedGcd>:
TEE_BigIntComputeExtendedGcd():
/media/wen/My_Passport/Raspbian/raspbian-tee/raspbian-tee/optee_os/lib/libutee/tee_api_arith_mpi.c:707
    2664:	e92d 4ff0 	stmdb	sp!, {r4, r5, r6, r7, r8, r9, sl, fp, lr}
    2668:	4699      	mov	r9, r3
    266a:	4680      	mov	r8, r0
    266c:	b095      	sub	sp, #84	; 0x54
    266e:	460f      	mov	r7, r1
/media/wen/My_Passport/Raspbian/raspbian-tee/raspbian-tee/optee_os/lib/libutee/tee_api_arith_mpi.c:713
    2670:	ae05      	add	r6, sp, #20
    2672:	4601      	mov	r1, r0
/media/wen/My_Passport/Raspbian/raspbian-tee/raspbian-tee/optee_os/lib/libutee/tee_api_arith_mpi.c:714
    2674:	ad08      	add	r5, sp, #32
/media/wen/My_Passport/Raspbian/raspbian-tee/raspbian-tee/optee_os/lib/libutee/tee_api_arith_mpi.c:713
    2676:	4630      	mov	r0, r6
/media/wen/My_Passport/Raspbian/raspbian-tee/raspbian-tee/optee_os/lib/libutee/tee_api_arith_mpi.c:707
    2678:	9c1e      	ldr	r4, [sp, #120]	; 0x78
    267a:	4692      	mov	sl, r2
/media/wen/My_Passport/Raspbian/raspbian-tee/raspbian-tee/optee_os/lib/libutee/tee_api_arith_mpi.c:713
    267c:	f7ff fba8 	bl	1dd0 <get_mpi>
/media/wen/My_Passport/Raspbian/raspbian-tee/raspbian-tee/optee_os/lib/libutee/tee_api_arith_mpi.c:714
    2680:	4649      	mov	r1, r9
    2682:	4628      	mov	r0, r5
    2684:	f7ff f934 	bl	18f0 <get_const_mpi>
/media/wen/My_Passport/Raspbian/raspbian-tee/raspbian-tee/optee_os/lib/libutee/tee_api_arith_mpi.c:716
    2688:	45a1      	cmp	r9, r4
    268a:	f10d 092c 	add.w	r9, sp, #44	; 0x2c
    268e:	d01a      	beq.n	26c6 <TEE_BigIntComputeExtendedGcd+0x62>
/media/wen/My_Passport/Raspbian/raspbian-tee/raspbian-tee/optee_os/lib/libutee/tee_api_arith_mpi.c:719
    2690:	4621      	mov	r1, r4
/media/wen/My_Passport/Raspbian/raspbian-tee/raspbian-tee/optee_os/lib/libutee/tee_api_arith_mpi.c:711
    2692:	464c      	mov	r4, r9
/media/wen/My_Passport/Raspbian/raspbian-tee/raspbian-tee/optee_os/lib/libutee/tee_api_arith_mpi.c:719
    2694:	4648      	mov	r0, r9
    2696:	f7ff f92b 	bl	18f0 <get_const_mpi>
/media/wen/My_Passport/Raspbian/raspbian-tee/raspbian-tee/optee_os/lib/libutee/tee_api_arith_mpi.c:721
    269a:	b9b7      	cbnz	r7, 26ca <TEE_BigIntComputeExtendedGcd+0x66>
/media/wen/My_Passport/Raspbian/raspbian-tee/raspbian-tee/optee_os/lib/libutee/tee_api_arith_mpi.c:721 (discriminator 1)
    269c:	f1ba 0f00 	cmp.w	sl, #0
    26a0:	d113      	bne.n	26ca <TEE_BigIntComputeExtendedGcd+0x66>
/media/wen/My_Passport/Raspbian/raspbian-tee/raspbian-tee/optee_os/lib/libutee/tee_api_arith_mpi.c:722
    26a2:	f1b8 0f00 	cmp.w	r8, #0
    26a6:	d06c      	beq.n	2782 <TEE_BigIntComputeExtendedGcd+0x11e>
/media/wen/My_Passport/Raspbian/raspbian-tee/raspbian-tee/optee_os/lib/libutee/tee_api_arith_mpi.c:723
    26a8:	4622      	mov	r2, r4
    26aa:	4629      	mov	r1, r5
    26ac:	4630      	mov	r0, r6
    26ae:	f001 ff2c 	bl	450a <mbedtls_mpi_gcd>
    26b2:	4602      	mov	r2, r0
    26b4:	2800      	cmp	r0, #0
    26b6:	d064      	beq.n	2782 <TEE_BigIntComputeExtendedGcd+0x11e>
/media/wen/My_Passport/Raspbian/raspbian-tee/raspbian-tee/optee_os/lib/libutee/tee_api_arith_mpi.c:723 (discriminator 1)
    26b8:	483b      	ldr	r0, [pc, #236]	; (27a8 <TEE_BigIntComputeExtendedGcd+0x144>)
    26ba:	f44f 7135 	mov.w	r1, #724	; 0x2d4
    26be:	4478      	add	r0, pc
/media/wen/My_Passport/Raspbian/raspbian-tee/raspbian-tee/optee_os/lib/libutee/tee_api_arith_mpi.c:740 (discriminator 1)
    26c0:	30f8      	adds	r0, #248	; 0xf8
    26c2:	f7ff f905 	bl	18d0 <mpi_panic>
/media/wen/My_Passport/Raspbian/raspbian-tee/raspbian-tee/optee_os/lib/libutee/tee_api_arith_mpi.c:717
    26c6:	462c      	mov	r4, r5
    26c8:	e7e7      	b.n	269a <TEE_BigIntComputeExtendedGcd+0x36>
/media/wen/My_Passport/Raspbian/raspbian-tee/raspbian-tee/optee_os/lib/libutee/tee_api_arith_mpi.c:728
    26ca:	f99d 3020 	ldrsb.w	r3, [sp, #32]
/media/wen/My_Passport/Raspbian/raspbian-tee/raspbian-tee/optee_os/lib/libutee/tee_api_arith_mpi.c:732
    26ce:	f04f 0b01 	mov.w	fp, #1
/media/wen/My_Passport/Raspbian/raspbian-tee/raspbian-tee/optee_os/lib/libutee/tee_api_arith_mpi.c:735
    26d2:	f10d 0838 	add.w	r8, sp, #56	; 0x38
    26d6:	4639      	mov	r1, r7
/media/wen/My_Passport/Raspbian/raspbian-tee/raspbian-tee/optee_os/lib/libutee/tee_api_arith_mpi.c:728
    26d8:	9302      	str	r3, [sp, #8]
/media/wen/My_Passport/Raspbian/raspbian-tee/raspbian-tee/optee_os/lib/libutee/tee_api_arith_mpi.c:735
    26da:	4640      	mov	r0, r8
/media/wen/My_Passport/Raspbian/raspbian-tee/raspbian-tee/optee_os/lib/libutee/tee_api_arith_mpi.c:729
    26dc:	f994 3000 	ldrsb.w	r3, [r4]
/media/wen/My_Passport/Raspbian/raspbian-tee/raspbian-tee/optee_os/lib/libutee/tee_api_arith_mpi.c:736
    26e0:	af11      	add	r7, sp, #68	; 0x44
/media/wen/My_Passport/Raspbian/raspbian-tee/raspbian-tee/optee_os/lib/libutee/tee_api_arith_mpi.c:732
    26e2:	f88d b020 	strb.w	fp, [sp, #32]
/media/wen/My_Passport/Raspbian/raspbian-tee/raspbian-tee/optee_os/lib/libutee/tee_api_arith_mpi.c:733
    26e6:	f884 b000 	strb.w	fp, [r4]
/media/wen/My_Passport/Raspbian/raspbian-tee/raspbian-tee/optee_os/lib/libutee/tee_api_arith_mpi.c:729
    26ea:	9303      	str	r3, [sp, #12]
/media/wen/My_Passport/Raspbian/raspbian-tee/raspbian-tee/optee_os/lib/libutee/tee_api_arith_mpi.c:735
    26ec:	f7ff fb70 	bl	1dd0 <get_mpi>
/media/wen/My_Passport/Raspbian/raspbian-tee/raspbian-tee/optee_os/lib/libutee/tee_api_arith_mpi.c:736
    26f0:	4651      	mov	r1, sl
    26f2:	4638      	mov	r0, r7
    26f4:	f7ff fb6c 	bl	1dd0 <get_mpi>
/media/wen/My_Passport/Raspbian/raspbian-tee/raspbian-tee/optee_os/lib/libutee/tee_api_arith_mpi.c:738
    26f8:	4621      	mov	r1, r4
    26fa:	4628      	mov	r0, r5
    26fc:	f000 fe66 	bl	33cc <mbedtls_mpi_cmp_abs>
/media/wen/My_Passport/Raspbian/raspbian-tee/raspbian-tee/optee_os/lib/libutee/tee_api_arith_mpi.c:739
    2700:	2800      	cmp	r0, #0
    2702:	d120      	bne.n	2746 <TEE_BigIntComputeExtendedGcd+0xe2>
/media/wen/My_Passport/Raspbian/raspbian-tee/raspbian-tee/optee_os/lib/libutee/tee_api_arith_mpi.c:740
    2704:	4629      	mov	r1, r5
    2706:	4630      	mov	r0, r6
    2708:	f000 fc34 	bl	2f74 <mbedtls_mpi_copy>
    270c:	4602      	mov	r2, r0
    270e:	b120      	cbz	r0, 271a <TEE_BigIntComputeExtendedGcd+0xb6>
/media/wen/My_Passport/Raspbian/raspbian-tee/raspbian-tee/optee_os/lib/libutee/tee_api_arith_mpi.c:740 (discriminator 1)
    2710:	4826      	ldr	r0, [pc, #152]	; (27ac <TEE_BigIntComputeExtendedGcd+0x148>)
    2712:	f44f 7139 	mov.w	r1, #740	; 0x2e4
    2716:	4478      	add	r0, pc
    2718:	e7d2      	b.n	26c0 <TEE_BigIntComputeExtendedGcd+0x5c>
/media/wen/My_Passport/Raspbian/raspbian-tee/raspbian-tee/optee_os/lib/libutee/tee_api_arith_mpi.c:741
    271a:	4659      	mov	r1, fp
    271c:	4640      	mov	r0, r8
    271e:	f000 fce4 	bl	30ea <mbedtls_mpi_lset>
    2722:	4602      	mov	r2, r0
    2724:	b120      	cbz	r0, 2730 <TEE_BigIntComputeExtendedGcd+0xcc>
/media/wen/My_Passport/Raspbian/raspbian-tee/raspbian-tee/optee_os/lib/libutee/tee_api_arith_mpi.c:741 (discriminator 1)
    2726:	4822      	ldr	r0, [pc, #136]	; (27b0 <TEE_BigIntComputeExtendedGcd+0x14c>)
    2728:	f240 21e5 	movw	r1, #741	; 0x2e5
    272c:	4478      	add	r0, pc
    272e:	e7c7      	b.n	26c0 <TEE_BigIntComputeExtendedGcd+0x5c>
/media/wen/My_Passport/Raspbian/raspbian-tee/raspbian-tee/optee_os/lib/libutee/tee_api_arith_mpi.c:742
    2730:	4601      	mov	r1, r0
    2732:	4638      	mov	r0, r7
    2734:	f000 fcd9 	bl	30ea <mbedtls_mpi_lset>
    2738:	4602      	mov	r2, r0
    273a:	b160      	cbz	r0, 2756 <TEE_BigIntComputeExtendedGcd+0xf2>
/media/wen/My_Passport/Raspbian/raspbian-tee/raspbian-tee/optee_os/lib/libutee/tee_api_arith_mpi.c:742 (discriminator 1)
    273c:	481d      	ldr	r0, [pc, #116]	; (27b4 <TEE_BigIntComputeExtendedGcd+0x150>)
    273e:	f240 21e6 	movw	r1, #742	; 0x2e6
    2742:	4478      	add	r0, pc
    2744:	e7bc      	b.n	26c0 <TEE_BigIntComputeExtendedGcd+0x5c>
/media/wen/My_Passport/Raspbian/raspbian-tee/raspbian-tee/optee_os/lib/libutee/tee_api_arith_mpi.c:743
    2746:	dd2a      	ble.n	279e <TEE_BigIntComputeExtendedGcd+0x13a>
/media/wen/My_Passport/Raspbian/raspbian-tee/raspbian-tee/optee_os/lib/libutee/tee_api_arith_mpi.c:744
    2748:	462b      	mov	r3, r5
    274a:	463a      	mov	r2, r7
    274c:	4641      	mov	r1, r8
    274e:	9400      	str	r4, [sp, #0]
/media/wen/My_Passport/Raspbian/raspbian-tee/raspbian-tee/optee_os/lib/libutee/tee_api_arith_mpi.c:746
    2750:	4630      	mov	r0, r6
    2752:	f7ff f910 	bl	1976 <mpi_egcd>
/media/wen/My_Passport/Raspbian/raspbian-tee/raspbian-tee/optee_os/lib/libutee/tee_api_arith_mpi.c:749 (discriminator 1)
    2756:	f89d 3038 	ldrb.w	r3, [sp, #56]	; 0x38
/media/wen/My_Passport/Raspbian/raspbian-tee/raspbian-tee/optee_os/lib/libutee/tee_api_arith_mpi.c:752 (discriminator 1)
    275a:	4640      	mov	r0, r8
/media/wen/My_Passport/Raspbian/raspbian-tee/raspbian-tee/optee_os/lib/libutee/tee_api_arith_mpi.c:749 (discriminator 1)
    275c:	f8bd 2008 	ldrh.w	r2, [sp, #8]
    2760:	fb13 fb02 	smulbb	fp, r3, r2
/media/wen/My_Passport/Raspbian/raspbian-tee/raspbian-tee/optee_os/lib/libutee/tee_api_arith_mpi.c:750 (discriminator 1)
    2764:	f89d 3044 	ldrb.w	r3, [sp, #68]	; 0x44
    2768:	f8bd 200c 	ldrh.w	r2, [sp, #12]
/media/wen/My_Passport/Raspbian/raspbian-tee/raspbian-tee/optee_os/lib/libutee/tee_api_arith_mpi.c:749 (discriminator 1)
    276c:	f88d b038 	strb.w	fp, [sp, #56]	; 0x38
/media/wen/My_Passport/Raspbian/raspbian-tee/raspbian-tee/optee_os/lib/libutee/tee_api_arith_mpi.c:750 (discriminator 1)
    2770:	fb13 f302 	smulbb	r3, r3, r2
    2774:	f88d 3044 	strb.w	r3, [sp, #68]	; 0x44
/media/wen/My_Passport/Raspbian/raspbian-tee/raspbian-tee/optee_os/lib/libutee/tee_api_arith_mpi.c:752 (discriminator 1)
    2778:	f7ff f8ef 	bl	195a <put_mpi>
/media/wen/My_Passport/Raspbian/raspbian-tee/raspbian-tee/optee_os/lib/libutee/tee_api_arith_mpi.c:753 (discriminator 1)
    277c:	4638      	mov	r0, r7
    277e:	f7ff f8ec 	bl	195a <put_mpi>
/media/wen/My_Passport/Raspbian/raspbian-tee/raspbian-tee/optee_os/lib/libutee/tee_api_arith_mpi.c:756
    2782:	4630      	mov	r0, r6
    2784:	f7ff f8e9 	bl	195a <put_mpi>
/media/wen/My_Passport/Raspbian/raspbian-tee/raspbian-tee/optee_os/lib/libutee/tee_api_arith_mpi.c:757
    2788:	4628      	mov	r0, r5
    278a:	f7ff f8e6 	bl	195a <put_mpi>
/media/wen/My_Passport/Raspbian/raspbian-tee/raspbian-tee/optee_os/lib/libutee/tee_api_arith_mpi.c:758
    278e:	454c      	cmp	r4, r9
    2790:	d102      	bne.n	2798 <TEE_BigIntComputeExtendedGcd+0x134>
/media/wen/My_Passport/Raspbian/raspbian-tee/raspbian-tee/optee_os/lib/libutee/tee_api_arith_mpi.c:759
    2792:	4620      	mov	r0, r4
    2794:	f7ff f8e1 	bl	195a <put_mpi>
/media/wen/My_Passport/Raspbian/raspbian-tee/raspbian-tee/optee_os/lib/libutee/tee_api_arith_mpi.c:760
    2798:	b015      	add	sp, #84	; 0x54
    279a:	e8bd 8ff0 	ldmia.w	sp!, {r4, r5, r6, r7, r8, r9, sl, fp, pc}
/media/wen/My_Passport/Raspbian/raspbian-tee/raspbian-tee/optee_os/lib/libutee/tee_api_arith_mpi.c:746
    279e:	9500      	str	r5, [sp, #0]
    27a0:	4623      	mov	r3, r4
    27a2:	4642      	mov	r2, r8
    27a4:	4639      	mov	r1, r7
    27a6:	e7d3      	b.n	2750 <TEE_BigIntComputeExtendedGcd+0xec>
    27a8:	00003d51 	.word	0x00003d51
    27ac:	00003cf9 	.word	0x00003cf9
    27b0:	00003ce3 	.word	0x00003ce3
    27b4:	00003ccd 	.word	0x00003ccd

000027b8 <TEE_BigIntIsProbablePrime>:
TEE_BigIntIsProbablePrime():
/media/wen/My_Passport/Raspbian/raspbian-tee/raspbian-tee/optee_os/lib/libutee/tee_api_arith_mpi.c:771
    27b8:	b530      	push	{r4, r5, lr}
/media/wen/My_Passport/Raspbian/raspbian-tee/raspbian-tee/optee_os/lib/libutee/tee_api_arith_mpi.c:775
    27ba:	4601      	mov	r1, r0
/media/wen/My_Passport/Raspbian/raspbian-tee/raspbian-tee/optee_os/lib/libutee/tee_api_arith_mpi.c:771
    27bc:	b085      	sub	sp, #20
/media/wen/My_Passport/Raspbian/raspbian-tee/raspbian-tee/optee_os/lib/libutee/tee_api_arith_mpi.c:775
    27be:	ac01      	add	r4, sp, #4
    27c0:	4620      	mov	r0, r4
    27c2:	f7ff f895 	bl	18f0 <get_const_mpi>
/media/wen/My_Passport/Raspbian/raspbian-tee/raspbian-tee/optee_os/lib/libutee/tee_api_arith_mpi.c:777
    27c6:	4907      	ldr	r1, [pc, #28]	; (27e4 <TEE_BigIntIsProbablePrime+0x2c>)
    27c8:	2200      	movs	r2, #0
    27ca:	4620      	mov	r0, r4
    27cc:	4479      	add	r1, pc
    27ce:	f002 f9b2 	bl	4b36 <mbedtls_mpi_is_prime>
    27d2:	4605      	mov	r5, r0
/media/wen/My_Passport/Raspbian/raspbian-tee/raspbian-tee/optee_os/lib/libutee/tee_api_arith_mpi.c:779
    27d4:	4620      	mov	r0, r4
    27d6:	f7ff f8c0 	bl	195a <put_mpi>
/media/wen/My_Passport/Raspbian/raspbian-tee/raspbian-tee/optee_os/lib/libutee/tee_api_arith_mpi.c:785
    27da:	fab5 f085 	clz	r0, r5
    27de:	0940      	lsrs	r0, r0, #5
    27e0:	b005      	add	sp, #20
    27e2:	bd30      	pop	{r4, r5, pc}
    27e4:	fffff175 	.word	0xfffff175

000027e8 <TEE_BigIntInitFMM>:
TEE_BigIntInitFMM():
/media/wen/My_Passport/Raspbian/raspbian-tee/raspbian-tee/optee_os/lib/libutee/tee_api_arith_mpi.c:797
    27e8:	f7ff bb6a 	b.w	1ec0 <TEE_BigIntInit>

000027ec <TEE_BigIntInitFMMContext>:
TEE_BigIntInitFMMContext():
/media/wen/My_Passport/Raspbian/raspbian-tee/raspbian-tee/optee_os/lib/libutee/tee_api_arith_mpi.c:803
    27ec:	4770      	bx	lr

000027ee <TEE_BigIntFMMSizeInU32>:
TEE_BigIntFMMSizeInU32():
/media/wen/My_Passport/Raspbian/raspbian-tee/raspbian-tee/optee_os/lib/libutee/tee_api_arith_mpi.c:808
    27ee:	301f      	adds	r0, #31
    27f0:	0940      	lsrs	r0, r0, #5
/media/wen/My_Passport/Raspbian/raspbian-tee/raspbian-tee/optee_os/lib/libutee/tee_api_arith_mpi.c:809
    27f2:	3002      	adds	r0, #2
    27f4:	4770      	bx	lr

000027f6 <TEE_BigIntFMMContextSizeInU32>:
TEE_BigIntFMMContextSizeInU32():
/media/wen/My_Passport/Raspbian/raspbian-tee/raspbian-tee/optee_os/lib/libutee/tee_api_arith_mpi.c:815
    27f6:	2001      	movs	r0, #1
    27f8:	4770      	bx	lr

000027fa <TEE_BigIntConvertToFMM>:
TEE_BigIntConvertToFMM():
/media/wen/My_Passport/Raspbian/raspbian-tee/raspbian-tee/optee_os/lib/libutee/tee_api_arith_mpi.c:821
    27fa:	f7ff be4b 	b.w	2494 <TEE_BigIntMod>

000027fe <TEE_BigIntConvertFromFMM>:
TEE_BigIntConvertFromFMM():
/media/wen/My_Passport/Raspbian/raspbian-tee/raspbian-tee/optee_os/lib/libutee/tee_api_arith_mpi.c:827
    27fe:	b570      	push	{r4, r5, r6, lr}
    2800:	460e      	mov	r6, r1
/media/wen/My_Passport/Raspbian/raspbian-tee/raspbian-tee/optee_os/lib/libutee/tee_api_arith_mpi.c:831
    2802:	4601      	mov	r1, r0
/media/wen/My_Passport/Raspbian/raspbian-tee/raspbian-tee/optee_os/lib/libutee/tee_api_arith_mpi.c:827
    2804:	b086      	sub	sp, #24
/media/wen/My_Passport/Raspbian/raspbian-tee/raspbian-tee/optee_os/lib/libutee/tee_api_arith_mpi.c:831
    2806:	4668      	mov	r0, sp
/media/wen/My_Passport/Raspbian/raspbian-tee/raspbian-tee/optee_os/lib/libutee/tee_api_arith_mpi.c:832
    2808:	ac03      	add	r4, sp, #12
/media/wen/My_Passport/Raspbian/raspbian-tee/raspbian-tee/optee_os/lib/libutee/tee_api_arith_mpi.c:831
    280a:	f7ff fae1 	bl	1dd0 <get_mpi>
/media/wen/My_Passport/Raspbian/raspbian-tee/raspbian-tee/optee_os/lib/libutee/tee_api_arith_mpi.c:832
    280e:	4631      	mov	r1, r6
    2810:	4620      	mov	r0, r4
    2812:	f7ff f86d 	bl	18f0 <get_const_mpi>
/media/wen/My_Passport/Raspbian/raspbian-tee/raspbian-tee/optee_os/lib/libutee/tee_api_arith_mpi.c:834
    2816:	4621      	mov	r1, r4
    2818:	4668      	mov	r0, sp
    281a:	f000 fbab 	bl	2f74 <mbedtls_mpi_copy>
    281e:	4602      	mov	r2, r0
    2820:	b138      	cbz	r0, 2832 <TEE_BigIntConvertFromFMM+0x34>
/media/wen/My_Passport/Raspbian/raspbian-tee/raspbian-tee/optee_os/lib/libutee/tee_api_arith_mpi.c:834 (discriminator 1)
    2822:	4808      	ldr	r0, [pc, #32]	; (2844 <TEE_BigIntConvertFromFMM+0x46>)
    2824:	f240 3142 	movw	r1, #834	; 0x342
    2828:	4478      	add	r0, pc
    282a:	f200 1015 	addw	r0, r0, #277	; 0x115
    282e:	f7ff f84f 	bl	18d0 <mpi_panic>
/media/wen/My_Passport/Raspbian/raspbian-tee/raspbian-tee/optee_os/lib/libutee/tee_api_arith_mpi.c:836
    2832:	4668      	mov	r0, sp
    2834:	f7ff f891 	bl	195a <put_mpi>
/media/wen/My_Passport/Raspbian/raspbian-tee/raspbian-tee/optee_os/lib/libutee/tee_api_arith_mpi.c:837
    2838:	4620      	mov	r0, r4
    283a:	f7ff f88e 	bl	195a <put_mpi>
/media/wen/My_Passport/Raspbian/raspbian-tee/raspbian-tee/optee_os/lib/libutee/tee_api_arith_mpi.c:838
    283e:	b006      	add	sp, #24
    2840:	bd70      	pop	{r4, r5, r6, pc}
    2842:	bf00      	nop
    2844:	00003be7 	.word	0x00003be7

00002848 <TEE_BigIntComputeFMM>:
TEE_BigIntComputeFMM():
/media/wen/My_Passport/Raspbian/raspbian-tee/raspbian-tee/optee_os/lib/libutee/tee_api_arith_mpi.c:843
    2848:	e92d 41f0 	stmdb	sp!, {r4, r5, r6, r7, r8, lr}
    284c:	460f      	mov	r7, r1
/media/wen/My_Passport/Raspbian/raspbian-tee/raspbian-tee/optee_os/lib/libutee/tee_api_arith_mpi.c:850
    284e:	4601      	mov	r1, r0
/media/wen/My_Passport/Raspbian/raspbian-tee/raspbian-tee/optee_os/lib/libutee/tee_api_arith_mpi.c:843
    2850:	b090      	sub	sp, #64	; 0x40
    2852:	4690      	mov	r8, r2
/media/wen/My_Passport/Raspbian/raspbian-tee/raspbian-tee/optee_os/lib/libutee/tee_api_arith_mpi.c:850
    2854:	ad01      	add	r5, sp, #4
/media/wen/My_Passport/Raspbian/raspbian-tee/raspbian-tee/optee_os/lib/libutee/tee_api_arith_mpi.c:851
    2856:	ae04      	add	r6, sp, #16
/media/wen/My_Passport/Raspbian/raspbian-tee/raspbian-tee/optee_os/lib/libutee/tee_api_arith_mpi.c:850
    2858:	4628      	mov	r0, r5
/media/wen/My_Passport/Raspbian/raspbian-tee/raspbian-tee/optee_os/lib/libutee/tee_api_arith_mpi.c:843
    285a:	461c      	mov	r4, r3
/media/wen/My_Passport/Raspbian/raspbian-tee/raspbian-tee/optee_os/lib/libutee/tee_api_arith_mpi.c:850
    285c:	f7ff fab8 	bl	1dd0 <get_mpi>
/media/wen/My_Passport/Raspbian/raspbian-tee/raspbian-tee/optee_os/lib/libutee/tee_api_arith_mpi.c:851
    2860:	4639      	mov	r1, r7
    2862:	4630      	mov	r0, r6
/media/wen/My_Passport/Raspbian/raspbian-tee/raspbian-tee/optee_os/lib/libutee/tee_api_arith_mpi.c:852
    2864:	af07      	add	r7, sp, #28
/media/wen/My_Passport/Raspbian/raspbian-tee/raspbian-tee/optee_os/lib/libutee/tee_api_arith_mpi.c:851
    2866:	f7ff f843 	bl	18f0 <get_const_mpi>
/media/wen/My_Passport/Raspbian/raspbian-tee/raspbian-tee/optee_os/lib/libutee/tee_api_arith_mpi.c:852
    286a:	4641      	mov	r1, r8
    286c:	4638      	mov	r0, r7
/media/wen/My_Passport/Raspbian/raspbian-tee/raspbian-tee/optee_os/lib/libutee/tee_api_arith_mpi.c:853
    286e:	f10d 0828 	add.w	r8, sp, #40	; 0x28
/media/wen/My_Passport/Raspbian/raspbian-tee/raspbian-tee/optee_os/lib/libutee/tee_api_arith_mpi.c:852
    2872:	f7ff f83d 	bl	18f0 <get_const_mpi>
/media/wen/My_Passport/Raspbian/raspbian-tee/raspbian-tee/optee_os/lib/libutee/tee_api_arith_mpi.c:853
    2876:	4621      	mov	r1, r4
    2878:	4640      	mov	r0, r8
get_mpi():
/media/wen/My_Passport/Raspbian/raspbian-tee/raspbian-tee/optee_os/lib/libutee/tee_api_arith_mpi.c:99
    287a:	ac0d      	add	r4, sp, #52	; 0x34
TEE_BigIntComputeFMM():
/media/wen/My_Passport/Raspbian/raspbian-tee/raspbian-tee/optee_os/lib/libutee/tee_api_arith_mpi.c:853
    287c:	f7ff f838 	bl	18f0 <get_const_mpi>
get_mpi():
/media/wen/My_Passport/Raspbian/raspbian-tee/raspbian-tee/optee_os/lib/libutee/tee_api_arith_mpi.c:99
    2880:	4620      	mov	r0, r4
    2882:	f000 fa79 	bl	2d78 <mbedtls_mpi_init_mempool>
TEE_BigIntComputeFMM():
/media/wen/My_Passport/Raspbian/raspbian-tee/raspbian-tee/optee_os/lib/libutee/tee_api_arith_mpi.c:856
    2886:	463a      	mov	r2, r7
    2888:	4631      	mov	r1, r6
    288a:	4620      	mov	r0, r4
    288c:	f000 ff4d 	bl	372a <mbedtls_mpi_mul_mpi>
    2890:	4602      	mov	r2, r0
    2892:	b138      	cbz	r0, 28a4 <TEE_BigIntComputeFMM+0x5c>
/media/wen/My_Passport/Raspbian/raspbian-tee/raspbian-tee/optee_os/lib/libutee/tee_api_arith_mpi.c:856 (discriminator 1)
    2894:	4812      	ldr	r0, [pc, #72]	; (28e0 <TEE_BigIntComputeFMM+0x98>)
    2896:	f44f 7156 	mov.w	r1, #856	; 0x358
    289a:	4478      	add	r0, pc
/media/wen/My_Passport/Raspbian/raspbian-tee/raspbian-tee/optee_os/lib/libutee/tee_api_arith_mpi.c:857 (discriminator 1)
    289c:	f500 7097 	add.w	r0, r0, #302	; 0x12e
    28a0:	f7ff f816 	bl	18d0 <mpi_panic>
/media/wen/My_Passport/Raspbian/raspbian-tee/raspbian-tee/optee_os/lib/libutee/tee_api_arith_mpi.c:857
    28a4:	4642      	mov	r2, r8
    28a6:	4621      	mov	r1, r4
    28a8:	4628      	mov	r0, r5
    28aa:	f001 fa39 	bl	3d20 <mbedtls_mpi_mod_mpi>
    28ae:	4602      	mov	r2, r0
    28b0:	b120      	cbz	r0, 28bc <TEE_BigIntComputeFMM+0x74>
/media/wen/My_Passport/Raspbian/raspbian-tee/raspbian-tee/optee_os/lib/libutee/tee_api_arith_mpi.c:857 (discriminator 1)
    28b2:	480c      	ldr	r0, [pc, #48]	; (28e4 <TEE_BigIntComputeFMM+0x9c>)
    28b4:	f240 3159 	movw	r1, #857	; 0x359
    28b8:	4478      	add	r0, pc
    28ba:	e7ef      	b.n	289c <TEE_BigIntComputeFMM+0x54>
/media/wen/My_Passport/Raspbian/raspbian-tee/raspbian-tee/optee_os/lib/libutee/tee_api_arith_mpi.c:859
    28bc:	4620      	mov	r0, r4
    28be:	f7ff f84c 	bl	195a <put_mpi>
/media/wen/My_Passport/Raspbian/raspbian-tee/raspbian-tee/optee_os/lib/libutee/tee_api_arith_mpi.c:860
    28c2:	4640      	mov	r0, r8
    28c4:	f7ff f849 	bl	195a <put_mpi>
/media/wen/My_Passport/Raspbian/raspbian-tee/raspbian-tee/optee_os/lib/libutee/tee_api_arith_mpi.c:861
    28c8:	4638      	mov	r0, r7
    28ca:	f7ff f846 	bl	195a <put_mpi>
/media/wen/My_Passport/Raspbian/raspbian-tee/raspbian-tee/optee_os/lib/libutee/tee_api_arith_mpi.c:862
    28ce:	4630      	mov	r0, r6
    28d0:	f7ff f843 	bl	195a <put_mpi>
/media/wen/My_Passport/Raspbian/raspbian-tee/raspbian-tee/optee_os/lib/libutee/tee_api_arith_mpi.c:863
    28d4:	4628      	mov	r0, r5
    28d6:	f7ff f840 	bl	195a <put_mpi>
/media/wen/My_Passport/Raspbian/raspbian-tee/raspbian-tee/optee_os/lib/libutee/tee_api_arith_mpi.c:864
    28da:	b010      	add	sp, #64	; 0x40
    28dc:	e8bd 81f0 	ldmia.w	sp!, {r4, r5, r6, r7, r8, pc}
    28e0:	00003b75 	.word	0x00003b75
    28e4:	00003b57 	.word	0x00003b57

000028e8 <api_panic>:
api_panic():
/media/wen/My_Passport/Raspbian/raspbian-tee/raspbian-tee/optee_os/lib/libutee/tee_api_arith_mpi.c:19
    28e8:	b508      	push	{r3, lr}
/media/wen/My_Passport/Raspbian/raspbian-tee/raspbian-tee/optee_os/lib/libutee/tee_api_arith_mpi.c:20
    28ea:	4613      	mov	r3, r2
    28ec:	460a      	mov	r2, r1
    28ee:	4601      	mov	r1, r0
    28f0:	4804      	ldr	r0, [pc, #16]	; (2904 <api_panic+0x1c>)
    28f2:	4478      	add	r0, pc
    28f4:	f7fe facf 	bl	e96 <printf>
/media/wen/My_Passport/Raspbian/raspbian-tee/raspbian-tee/optee_os/lib/libutee/tee_api_arith_mpi.c:21
    28f8:	4801      	ldr	r0, [pc, #4]	; (2900 <api_panic+0x18>)
    28fa:	f003 fad3 	bl	5ea4 <TEE_Panic>
    28fe:	e7fe      	b.n	28fe <api_panic+0x16>
    2900:	00b16127 	.word	0x00b16127
    2904:	00003c60 	.word	0x00003c60

00002908 <mpi_get_digit>:
mpi_get_digit():
/media/wen/My_Passport/Raspbian/raspbian-tee/raspbian-tee/optee_os/lib/libmbedtls/mbedtls/library/bignum.c:488
    2908:	f1a2 0330 	sub.w	r3, r2, #48	; 0x30
/media/wen/My_Passport/Raspbian/raspbian-tee/raspbian-tee/optee_os/lib/libmbedtls/mbedtls/library/bignum.c:485
    290c:	b510      	push	{r4, lr}
/media/wen/My_Passport/Raspbian/raspbian-tee/raspbian-tee/optee_os/lib/libmbedtls/mbedtls/library/bignum.c:488
    290e:	b2dc      	uxtb	r4, r3
    2910:	2c09      	cmp	r4, #9
/media/wen/My_Passport/Raspbian/raspbian-tee/raspbian-tee/optee_os/lib/libmbedtls/mbedtls/library/bignum.c:486
    2912:	bf88      	it	hi
    2914:	23ff      	movhi	r3, #255	; 0xff
/media/wen/My_Passport/Raspbian/raspbian-tee/raspbian-tee/optee_os/lib/libmbedtls/mbedtls/library/bignum.c:488
    2916:	6003      	str	r3, [r0, #0]
/media/wen/My_Passport/Raspbian/raspbian-tee/raspbian-tee/optee_os/lib/libmbedtls/mbedtls/library/bignum.c:489
    2918:	f1a2 0341 	sub.w	r3, r2, #65	; 0x41
    291c:	2b05      	cmp	r3, #5
    291e:	d802      	bhi.n	2926 <mpi_get_digit+0x1e>
/media/wen/My_Passport/Raspbian/raspbian-tee/raspbian-tee/optee_os/lib/libmbedtls/mbedtls/library/bignum.c:489 (discriminator 1)
    2920:	f1a2 0337 	sub.w	r3, r2, #55	; 0x37
    2924:	6003      	str	r3, [r0, #0]
/media/wen/My_Passport/Raspbian/raspbian-tee/raspbian-tee/optee_os/lib/libmbedtls/mbedtls/library/bignum.c:490
    2926:	f1a2 0361 	sub.w	r3, r2, #97	; 0x61
    292a:	2b05      	cmp	r3, #5
    292c:	d801      	bhi.n	2932 <mpi_get_digit+0x2a>
/media/wen/My_Passport/Raspbian/raspbian-tee/raspbian-tee/optee_os/lib/libmbedtls/mbedtls/library/bignum.c:490 (discriminator 1)
    292e:	3a57      	subs	r2, #87	; 0x57
    2930:	6002      	str	r2, [r0, #0]
/media/wen/My_Passport/Raspbian/raspbian-tee/raspbian-tee/optee_os/lib/libmbedtls/mbedtls/library/bignum.c:492
    2932:	6803      	ldr	r3, [r0, #0]
/media/wen/My_Passport/Raspbian/raspbian-tee/raspbian-tee/optee_os/lib/libmbedtls/mbedtls/library/bignum.c:496
    2934:	f06f 0005 	mvn.w	r0, #5
/media/wen/My_Passport/Raspbian/raspbian-tee/raspbian-tee/optee_os/lib/libmbedtls/mbedtls/library/bignum.c:492
    2938:	428b      	cmp	r3, r1
/media/wen/My_Passport/Raspbian/raspbian-tee/raspbian-tee/optee_os/lib/libmbedtls/mbedtls/library/bignum.c:496
    293a:	bf38      	it	cc
    293c:	2000      	movcc	r0, #0
    293e:	bd10      	pop	{r4, pc}

00002940 <mpi_sub_hlp>:
mpi_sub_hlp():
/media/wen/My_Passport/Raspbian/raspbian-tee/raspbian-tee/optee_os/lib/libmbedtls/mbedtls/library/bignum.c:1025
    2940:	2300      	movs	r3, #0
/media/wen/My_Passport/Raspbian/raspbian-tee/raspbian-tee/optee_os/lib/libmbedtls/mbedtls/library/bignum.c:1021
    2942:	e92d 41f0 	stmdb	sp!, {r4, r5, r6, r7, r8, lr}
    2946:	4688      	mov	r8, r1
/media/wen/My_Passport/Raspbian/raspbian-tee/raspbian-tee/optee_os/lib/libmbedtls/mbedtls/library/bignum.c:1025
    2948:	4616      	mov	r6, r2
    294a:	461c      	mov	r4, r3
/media/wen/My_Passport/Raspbian/raspbian-tee/raspbian-tee/optee_os/lib/libmbedtls/mbedtls/library/bignum.c:1025 (discriminator 1)
    294c:	4284      	cmp	r4, r0
    294e:	d104      	bne.n	295a <mpi_sub_hlp+0x1a>
    2950:	eb02 0284 	add.w	r2, r2, r4, lsl #2
/media/wen/My_Passport/Raspbian/raspbian-tee/raspbian-tee/optee_os/lib/libmbedtls/mbedtls/library/bignum.c:1031
    2954:	b9bb      	cbnz	r3, 2986 <mpi_sub_hlp+0x46>
/media/wen/My_Passport/Raspbian/raspbian-tee/raspbian-tee/optee_os/lib/libmbedtls/mbedtls/library/bignum.c:1036
    2956:	e8bd 81f0 	ldmia.w	sp!, {r4, r5, r6, r7, r8, pc}
/media/wen/My_Passport/Raspbian/raspbian-tee/raspbian-tee/optee_os/lib/libmbedtls/mbedtls/library/bignum.c:1027 (discriminator 3)
    295a:	f8d6 e000 	ldr.w	lr, [r6]
    295e:	ebae 0503 	sub.w	r5, lr, r3
    2962:	6035      	str	r5, [r6, #0]
/media/wen/My_Passport/Raspbian/raspbian-tee/raspbian-tee/optee_os/lib/libmbedtls/mbedtls/library/bignum.c:1028 (discriminator 3)
    2964:	f858 7024 	ldr.w	r7, [r8, r4, lsl #2]
/media/wen/My_Passport/Raspbian/raspbian-tee/raspbian-tee/optee_os/lib/libmbedtls/mbedtls/library/bignum.c:1025 (discriminator 3)
    2968:	3401      	adds	r4, #1
/media/wen/My_Passport/Raspbian/raspbian-tee/raspbian-tee/optee_os/lib/libmbedtls/mbedtls/library/bignum.c:1028 (discriminator 3)
    296a:	42bd      	cmp	r5, r7
    296c:	eba5 0507 	sub.w	r5, r5, r7
    2970:	bf28      	it	cs
    2972:	2100      	movcs	r1, #0
    2974:	bf38      	it	cc
    2976:	2101      	movcc	r1, #1
    2978:	4573      	cmp	r3, lr
    297a:	f846 5b04 	str.w	r5, [r6], #4
    297e:	bf88      	it	hi
    2980:	3101      	addhi	r1, #1
    2982:	460b      	mov	r3, r1
    2984:	e7e2      	b.n	294c <mpi_sub_hlp+0xc>
/media/wen/My_Passport/Raspbian/raspbian-tee/raspbian-tee/optee_os/lib/libmbedtls/mbedtls/library/bignum.c:1033
    2986:	6811      	ldr	r1, [r2, #0]
    2988:	1ac8      	subs	r0, r1, r3
/media/wen/My_Passport/Raspbian/raspbian-tee/raspbian-tee/optee_os/lib/libmbedtls/mbedtls/library/bignum.c:1034
    298a:	428b      	cmp	r3, r1
/media/wen/My_Passport/Raspbian/raspbian-tee/raspbian-tee/optee_os/lib/libmbedtls/mbedtls/library/bignum.c:1033
    298c:	f842 0b04 	str.w	r0, [r2], #4
/media/wen/My_Passport/Raspbian/raspbian-tee/raspbian-tee/optee_os/lib/libmbedtls/mbedtls/library/bignum.c:1034
    2990:	bf98      	it	ls
    2992:	2300      	movls	r3, #0
    2994:	bf88      	it	hi
    2996:	2301      	movhi	r3, #1
    2998:	e7dc      	b.n	2954 <mpi_sub_hlp+0x14>

0000299a <mpi_mul_hlp>:
mpi_mul_hlp():
/media/wen/My_Passport/Raspbian/raspbian-tee/raspbian-tee/optee_os/lib/libmbedtls/mbedtls/library/bignum.c:1187
    299a:	e92d 47f0 	stmdb	sp!, {r4, r5, r6, r7, r8, r9, sl, lr}
/media/wen/My_Passport/Raspbian/raspbian-tee/raspbian-tee/optee_os/lib/libmbedtls/mbedtls/library/bignum.c:1188
    299e:	f04f 0c00 	mov.w	ip, #0
    29a2:	460d      	mov	r5, r1
    29a4:	4614      	mov	r4, r2
/media/wen/My_Passport/Raspbian/raspbian-tee/raspbian-tee/optee_os/lib/libmbedtls/mbedtls/library/bignum.c:1205
    29a6:	4686      	mov	lr, r0
/media/wen/My_Passport/Raspbian/raspbian-tee/raspbian-tee/optee_os/lib/libmbedtls/mbedtls/library/bignum.c:1205 (discriminator 1)
    29a8:	f1be 0f0f 	cmp.w	lr, #15
    29ac:	f105 0540 	add.w	r5, r5, #64	; 0x40
    29b0:	f104 0440 	add.w	r4, r4, #64	; 0x40
    29b4:	f200 8086 	bhi.w	2ac4 <mpi_mul_hlp+0x12a>
    29b8:	ea4f 1e10 	mov.w	lr, r0, lsr #4
    29bc:	eba0 100e 	sub.w	r0, r0, lr, lsl #4
    29c0:	ea4f 1e8e 	mov.w	lr, lr, lsl #6
/media/wen/My_Passport/Raspbian/raspbian-tee/raspbian-tee/optee_os/lib/libmbedtls/mbedtls/library/bignum.c:1220
    29c4:	2807      	cmp	r0, #7
    29c6:	eb01 050e 	add.w	r5, r1, lr
    29ca:	eb02 040e 	add.w	r4, r2, lr
    29ce:	d965      	bls.n	2a9c <mpi_mul_hlp+0x102>
/media/wen/My_Passport/Raspbian/raspbian-tee/raspbian-tee/optee_os/lib/libmbedtls/mbedtls/library/bignum.c:1223
    29d0:	f851 600e 	ldr.w	r6, [r1, lr]
    29d4:	2101      	movs	r1, #1
    29d6:	fba3 7806 	umull	r7, r8, r3, r6
    29da:	f852 600e 	ldr.w	r6, [r2, lr]
    29de:	eb1c 0c07 	adds.w	ip, ip, r7
    29e2:	bf38      	it	cc
    29e4:	2100      	movcc	r1, #0
    29e6:	eb1c 0606 	adds.w	r6, ip, r6
    29ea:	f842 600e 	str.w	r6, [r2, lr]
    29ee:	eb41 0108 	adc.w	r1, r1, r8
    29f2:	686e      	ldr	r6, [r5, #4]
    29f4:	fba3 7806 	umull	r7, r8, r3, r6
    29f8:	6866      	ldr	r6, [r4, #4]
    29fa:	19ca      	adds	r2, r1, r7
    29fc:	f04f 0101 	mov.w	r1, #1
    2a00:	bf38      	it	cc
    2a02:	2100      	movcc	r1, #0
    2a04:	1992      	adds	r2, r2, r6
    2a06:	6062      	str	r2, [r4, #4]
    2a08:	eb41 0108 	adc.w	r1, r1, r8
/media/wen/My_Passport/Raspbian/raspbian-tee/raspbian-tee/optee_os/lib/libmbedtls/mbedtls/library/bignum.c:1224
    2a0c:	2201      	movs	r2, #1
    2a0e:	68ae      	ldr	r6, [r5, #8]
    2a10:	fba3 7806 	umull	r7, r8, r3, r6
    2a14:	68a6      	ldr	r6, [r4, #8]
    2a16:	19c9      	adds	r1, r1, r7
    2a18:	bf38      	it	cc
    2a1a:	2200      	movcc	r2, #0
    2a1c:	1989      	adds	r1, r1, r6
    2a1e:	60a1      	str	r1, [r4, #8]
    2a20:	eb42 0208 	adc.w	r2, r2, r8
    2a24:	2101      	movs	r1, #1
    2a26:	68ee      	ldr	r6, [r5, #12]
    2a28:	fba3 7806 	umull	r7, r8, r3, r6
    2a2c:	68e6      	ldr	r6, [r4, #12]
    2a2e:	19d2      	adds	r2, r2, r7
    2a30:	bf38      	it	cc
    2a32:	2100      	movcc	r1, #0
    2a34:	1992      	adds	r2, r2, r6
    2a36:	60e2      	str	r2, [r4, #12]
    2a38:	eb41 0108 	adc.w	r1, r1, r8
/media/wen/My_Passport/Raspbian/raspbian-tee/raspbian-tee/optee_os/lib/libmbedtls/mbedtls/library/bignum.c:1226
    2a3c:	2201      	movs	r2, #1
    2a3e:	692e      	ldr	r6, [r5, #16]
    2a40:	fba3 7806 	umull	r7, r8, r3, r6
    2a44:	6926      	ldr	r6, [r4, #16]
    2a46:	19c9      	adds	r1, r1, r7
    2a48:	bf38      	it	cc
    2a4a:	2200      	movcc	r2, #0
    2a4c:	1989      	adds	r1, r1, r6
    2a4e:	6121      	str	r1, [r4, #16]
    2a50:	eb42 0208 	adc.w	r2, r2, r8
    2a54:	2101      	movs	r1, #1
    2a56:	696e      	ldr	r6, [r5, #20]
    2a58:	fba3 7806 	umull	r7, r8, r3, r6
    2a5c:	6966      	ldr	r6, [r4, #20]
    2a5e:	19d2      	adds	r2, r2, r7
    2a60:	bf38      	it	cc
    2a62:	2100      	movcc	r1, #0
    2a64:	1992      	adds	r2, r2, r6
    2a66:	6162      	str	r2, [r4, #20]
    2a68:	eb41 0108 	adc.w	r1, r1, r8
/media/wen/My_Passport/Raspbian/raspbian-tee/raspbian-tee/optee_os/lib/libmbedtls/mbedtls/library/bignum.c:1227
    2a6c:	2201      	movs	r2, #1
    2a6e:	69ae      	ldr	r6, [r5, #24]
    2a70:	fba3 7806 	umull	r7, r8, r3, r6
    2a74:	69a6      	ldr	r6, [r4, #24]
    2a76:	19c9      	adds	r1, r1, r7
    2a78:	bf38      	it	cc
    2a7a:	2200      	movcc	r2, #0
    2a7c:	1989      	adds	r1, r1, r6
    2a7e:	61a1      	str	r1, [r4, #24]
    2a80:	eb42 0208 	adc.w	r2, r2, r8
    2a84:	69e1      	ldr	r1, [r4, #28]
    2a86:	69ee      	ldr	r6, [r5, #28]
    2a88:	fba3 7806 	umull	r7, r8, r3, r6
    2a8c:	2601      	movs	r6, #1
    2a8e:	19d2      	adds	r2, r2, r7
    2a90:	bf38      	it	cc
    2a92:	2600      	movcc	r6, #0
    2a94:	1852      	adds	r2, r2, r1
    2a96:	eb46 0c08 	adc.w	ip, r6, r8
    2a9a:	61e2      	str	r2, [r4, #28]
    2a9c:	08c2      	lsrs	r2, r0, #3
    2a9e:	0151      	lsls	r1, r2, #5
    2aa0:	eba0 00c2 	sub.w	r0, r0, r2, lsl #3
    2aa4:	440c      	add	r4, r1
    2aa6:	440d      	add	r5, r1
    2aa8:	eb04 0080 	add.w	r0, r4, r0, lsl #2
/media/wen/My_Passport/Raspbian/raspbian-tee/raspbian-tee/optee_os/lib/libmbedtls/mbedtls/library/bignum.c:1231 (discriminator 1)
    2aac:	4284      	cmp	r4, r0
    2aae:	f040 8120 	bne.w	2cf2 <mpi_mul_hlp+0x358>
/media/wen/My_Passport/Raspbian/raspbian-tee/raspbian-tee/optee_os/lib/libmbedtls/mbedtls/library/bignum.c:1242 (discriminator 1)
    2ab2:	6803      	ldr	r3, [r0, #0]
    2ab4:	4463      	add	r3, ip
/media/wen/My_Passport/Raspbian/raspbian-tee/raspbian-tee/optee_os/lib/libmbedtls/mbedtls/library/bignum.c:1244 (discriminator 1)
    2ab6:	459c      	cmp	ip, r3
/media/wen/My_Passport/Raspbian/raspbian-tee/raspbian-tee/optee_os/lib/libmbedtls/mbedtls/library/bignum.c:1242 (discriminator 1)
    2ab8:	f840 3b04 	str.w	r3, [r0], #4
/media/wen/My_Passport/Raspbian/raspbian-tee/raspbian-tee/optee_os/lib/libmbedtls/mbedtls/library/bignum.c:1244 (discriminator 1)
    2abc:	f200 812c 	bhi.w	2d18 <mpi_mul_hlp+0x37e>
/media/wen/My_Passport/Raspbian/raspbian-tee/raspbian-tee/optee_os/lib/libmbedtls/mbedtls/library/bignum.c:1245
    2ac0:	e8bd 87f0 	ldmia.w	sp!, {r4, r5, r6, r7, r8, r9, sl, pc}
/media/wen/My_Passport/Raspbian/raspbian-tee/raspbian-tee/optee_os/lib/libmbedtls/mbedtls/library/bignum.c:1208 (discriminator 2)
    2ac4:	f855 6c40 	ldr.w	r6, [r5, #-64]
/media/wen/My_Passport/Raspbian/raspbian-tee/raspbian-tee/optee_os/lib/libmbedtls/mbedtls/library/bignum.c:1205 (discriminator 2)
    2ac8:	f1ae 0e10 	sub.w	lr, lr, #16
/media/wen/My_Passport/Raspbian/raspbian-tee/raspbian-tee/optee_os/lib/libmbedtls/mbedtls/library/bignum.c:1208 (discriminator 2)
    2acc:	f854 7c40 	ldr.w	r7, [r4, #-64]
    2ad0:	fba3 8906 	umull	r8, r9, r3, r6
    2ad4:	2601      	movs	r6, #1
    2ad6:	eb1c 0c08 	adds.w	ip, ip, r8
    2ada:	bf38      	it	cc
    2adc:	2600      	movcc	r6, #0
    2ade:	eb1c 0c07 	adds.w	ip, ip, r7
    2ae2:	f844 cc40 	str.w	ip, [r4, #-64]
    2ae6:	eb46 0809 	adc.w	r8, r6, r9
    2aea:	f855 6c3c 	ldr.w	r6, [r5, #-60]
    2aee:	fba3 9a06 	umull	r9, sl, r3, r6
    2af2:	2601      	movs	r6, #1
    2af4:	eb18 0809 	adds.w	r8, r8, r9
    2af8:	bf38      	it	cc
    2afa:	2600      	movcc	r6, #0
    2afc:	46b4      	mov	ip, r6
    2afe:	f854 6c3c 	ldr.w	r6, [r4, #-60]
    2b02:	eb18 0606 	adds.w	r6, r8, r6
    2b06:	f844 6c3c 	str.w	r6, [r4, #-60]
    2b0a:	eb4c 0c0a 	adc.w	ip, ip, sl
/media/wen/My_Passport/Raspbian/raspbian-tee/raspbian-tee/optee_os/lib/libmbedtls/mbedtls/library/bignum.c:1209 (discriminator 2)
    2b0e:	f854 6c38 	ldr.w	r6, [r4, #-56]
    2b12:	f855 7c38 	ldr.w	r7, [r5, #-56]
    2b16:	fba3 8907 	umull	r8, r9, r3, r7
    2b1a:	2701      	movs	r7, #1
    2b1c:	eb1c 0c08 	adds.w	ip, ip, r8
    2b20:	bf38      	it	cc
    2b22:	2700      	movcc	r7, #0
    2b24:	eb1c 0606 	adds.w	r6, ip, r6
    2b28:	f844 6c38 	str.w	r6, [r4, #-56]
    2b2c:	eb47 0c09 	adc.w	ip, r7, r9
    2b30:	f854 6c34 	ldr.w	r6, [r4, #-52]
    2b34:	f855 7c34 	ldr.w	r7, [r5, #-52]
    2b38:	fba3 8907 	umull	r8, r9, r3, r7
    2b3c:	2701      	movs	r7, #1
    2b3e:	eb1c 0c08 	adds.w	ip, ip, r8
    2b42:	bf38      	it	cc
    2b44:	2700      	movcc	r7, #0
    2b46:	eb1c 0606 	adds.w	r6, ip, r6
    2b4a:	f844 6c34 	str.w	r6, [r4, #-52]
    2b4e:	eb47 0c09 	adc.w	ip, r7, r9
/media/wen/My_Passport/Raspbian/raspbian-tee/raspbian-tee/optee_os/lib/libmbedtls/mbedtls/library/bignum.c:1210 (discriminator 2)
    2b52:	f854 6c30 	ldr.w	r6, [r4, #-48]
    2b56:	f855 7c30 	ldr.w	r7, [r5, #-48]
    2b5a:	fba3 8907 	umull	r8, r9, r3, r7
    2b5e:	2701      	movs	r7, #1
    2b60:	eb1c 0c08 	adds.w	ip, ip, r8
    2b64:	bf38      	it	cc
    2b66:	2700      	movcc	r7, #0
    2b68:	eb1c 0606 	adds.w	r6, ip, r6
    2b6c:	f844 6c30 	str.w	r6, [r4, #-48]
    2b70:	eb47 0c09 	adc.w	ip, r7, r9
    2b74:	f854 6c2c 	ldr.w	r6, [r4, #-44]
    2b78:	f855 7c2c 	ldr.w	r7, [r5, #-44]
    2b7c:	fba3 8907 	umull	r8, r9, r3, r7
    2b80:	2701      	movs	r7, #1
    2b82:	eb1c 0c08 	adds.w	ip, ip, r8
    2b86:	bf38      	it	cc
    2b88:	2700      	movcc	r7, #0
    2b8a:	eb1c 0606 	adds.w	r6, ip, r6
    2b8e:	f844 6c2c 	str.w	r6, [r4, #-44]
    2b92:	eb47 0c09 	adc.w	ip, r7, r9
/media/wen/My_Passport/Raspbian/raspbian-tee/raspbian-tee/optee_os/lib/libmbedtls/mbedtls/library/bignum.c:1211 (discriminator 2)
    2b96:	f854 6c28 	ldr.w	r6, [r4, #-40]
    2b9a:	f855 7c28 	ldr.w	r7, [r5, #-40]
    2b9e:	fba3 8907 	umull	r8, r9, r3, r7
    2ba2:	2701      	movs	r7, #1
    2ba4:	eb1c 0c08 	adds.w	ip, ip, r8
    2ba8:	bf38      	it	cc
    2baa:	2700      	movcc	r7, #0
    2bac:	eb1c 0606 	adds.w	r6, ip, r6
    2bb0:	f844 6c28 	str.w	r6, [r4, #-40]
    2bb4:	eb47 0c09 	adc.w	ip, r7, r9
    2bb8:	f854 6c24 	ldr.w	r6, [r4, #-36]
    2bbc:	f855 7c24 	ldr.w	r7, [r5, #-36]
    2bc0:	fba3 8907 	umull	r8, r9, r3, r7
    2bc4:	2701      	movs	r7, #1
    2bc6:	eb1c 0c08 	adds.w	ip, ip, r8
    2bca:	bf38      	it	cc
    2bcc:	2700      	movcc	r7, #0
    2bce:	eb1c 0606 	adds.w	r6, ip, r6
    2bd2:	f844 6c24 	str.w	r6, [r4, #-36]
    2bd6:	eb47 0c09 	adc.w	ip, r7, r9
/media/wen/My_Passport/Raspbian/raspbian-tee/raspbian-tee/optee_os/lib/libmbedtls/mbedtls/library/bignum.c:1213 (discriminator 2)
    2bda:	f854 6c20 	ldr.w	r6, [r4, #-32]
    2bde:	f855 7c20 	ldr.w	r7, [r5, #-32]
    2be2:	fba3 8907 	umull	r8, r9, r3, r7
    2be6:	2701      	movs	r7, #1
    2be8:	eb1c 0c08 	adds.w	ip, ip, r8
    2bec:	bf38      	it	cc
    2bee:	2700      	movcc	r7, #0
    2bf0:	eb1c 0606 	adds.w	r6, ip, r6
    2bf4:	f844 6c20 	str.w	r6, [r4, #-32]
    2bf8:	eb47 0c09 	adc.w	ip, r7, r9
    2bfc:	f854 6c1c 	ldr.w	r6, [r4, #-28]
    2c00:	f855 7c1c 	ldr.w	r7, [r5, #-28]
    2c04:	fba3 8907 	umull	r8, r9, r3, r7
    2c08:	2701      	movs	r7, #1
    2c0a:	eb1c 0c08 	adds.w	ip, ip, r8
    2c0e:	bf38      	it	cc
    2c10:	2700      	movcc	r7, #0
    2c12:	eb1c 0606 	adds.w	r6, ip, r6
    2c16:	f844 6c1c 	str.w	r6, [r4, #-28]
    2c1a:	eb47 0c09 	adc.w	ip, r7, r9
/media/wen/My_Passport/Raspbian/raspbian-tee/raspbian-tee/optee_os/lib/libmbedtls/mbedtls/library/bignum.c:1214 (discriminator 2)
    2c1e:	f854 6c18 	ldr.w	r6, [r4, #-24]
    2c22:	f855 7c18 	ldr.w	r7, [r5, #-24]
    2c26:	fba3 8907 	umull	r8, r9, r3, r7
    2c2a:	2701      	movs	r7, #1
    2c2c:	eb1c 0c08 	adds.w	ip, ip, r8
    2c30:	bf38      	it	cc
    2c32:	2700      	movcc	r7, #0
    2c34:	eb1c 0606 	adds.w	r6, ip, r6
    2c38:	f844 6c18 	str.w	r6, [r4, #-24]
    2c3c:	eb47 0c09 	adc.w	ip, r7, r9
    2c40:	f855 7c14 	ldr.w	r7, [r5, #-20]
    2c44:	f854 6c14 	ldr.w	r6, [r4, #-20]
    2c48:	fba3 8907 	umull	r8, r9, r3, r7
    2c4c:	2701      	movs	r7, #1
    2c4e:	eb1c 0c08 	adds.w	ip, ip, r8
    2c52:	bf38      	it	cc
    2c54:	2700      	movcc	r7, #0
    2c56:	eb1c 0606 	adds.w	r6, ip, r6
    2c5a:	f844 6c14 	str.w	r6, [r4, #-20]
    2c5e:	eb47 0c09 	adc.w	ip, r7, r9
/media/wen/My_Passport/Raspbian/raspbian-tee/raspbian-tee/optee_os/lib/libmbedtls/mbedtls/library/bignum.c:1215 (discriminator 2)
    2c62:	f854 6c10 	ldr.w	r6, [r4, #-16]
    2c66:	f855 7c10 	ldr.w	r7, [r5, #-16]
    2c6a:	fba3 8907 	umull	r8, r9, r3, r7
    2c6e:	2701      	movs	r7, #1
    2c70:	eb1c 0c08 	adds.w	ip, ip, r8
    2c74:	bf38      	it	cc
    2c76:	2700      	movcc	r7, #0
    2c78:	eb1c 0606 	adds.w	r6, ip, r6
    2c7c:	f844 6c10 	str.w	r6, [r4, #-16]
    2c80:	eb47 0c09 	adc.w	ip, r7, r9
    2c84:	f854 6c0c 	ldr.w	r6, [r4, #-12]
    2c88:	f855 7c0c 	ldr.w	r7, [r5, #-12]
    2c8c:	fba3 8907 	umull	r8, r9, r3, r7
    2c90:	2701      	movs	r7, #1
    2c92:	eb1c 0c08 	adds.w	ip, ip, r8
    2c96:	bf38      	it	cc
    2c98:	2700      	movcc	r7, #0
    2c9a:	eb1c 0606 	adds.w	r6, ip, r6
    2c9e:	f844 6c0c 	str.w	r6, [r4, #-12]
    2ca2:	eb47 0709 	adc.w	r7, r7, r9
/media/wen/My_Passport/Raspbian/raspbian-tee/raspbian-tee/optee_os/lib/libmbedtls/mbedtls/library/bignum.c:1216 (discriminator 2)
    2ca6:	f855 6c08 	ldr.w	r6, [r5, #-8]
    2caa:	fba3 8906 	umull	r8, r9, r3, r6
    2cae:	2601      	movs	r6, #1
    2cb0:	eb17 0708 	adds.w	r7, r7, r8
    2cb4:	bf38      	it	cc
    2cb6:	2600      	movcc	r6, #0
    2cb8:	46b4      	mov	ip, r6
    2cba:	f854 6c08 	ldr.w	r6, [r4, #-8]
    2cbe:	19be      	adds	r6, r7, r6
    2cc0:	f04f 0701 	mov.w	r7, #1
    2cc4:	f844 6c08 	str.w	r6, [r4, #-8]
    2cc8:	eb4c 0c09 	adc.w	ip, ip, r9
    2ccc:	f855 6c04 	ldr.w	r6, [r5, #-4]
    2cd0:	fba3 8906 	umull	r8, r9, r3, r6
    2cd4:	eb1c 0608 	adds.w	r6, ip, r8
    2cd8:	f854 cc04 	ldr.w	ip, [r4, #-4]
    2cdc:	bf38      	it	cc
    2cde:	2700      	movcc	r7, #0
    2ce0:	4466      	add	r6, ip
    2ce2:	444f      	add	r7, r9
    2ce4:	45b4      	cmp	ip, r6
    2ce6:	f844 6c04 	str.w	r6, [r4, #-4]
    2cea:	bf88      	it	hi
    2cec:	3701      	addhi	r7, #1
    2cee:	46bc      	mov	ip, r7
    2cf0:	e65a      	b.n	29a8 <mpi_mul_hlp+0xe>
/media/wen/My_Passport/Raspbian/raspbian-tee/raspbian-tee/optee_os/lib/libmbedtls/mbedtls/library/bignum.c:1234 (discriminator 2)
    2cf2:	f855 6b04 	ldr.w	r6, [r5], #4
    2cf6:	2101      	movs	r1, #1
    2cf8:	fba3 6706 	umull	r6, r7, r3, r6
    2cfc:	eb1c 0206 	adds.w	r2, ip, r6
    2d00:	6826      	ldr	r6, [r4, #0]
    2d02:	bf38      	it	cc
    2d04:	2100      	movcc	r1, #0
    2d06:	4432      	add	r2, r6
    2d08:	4439      	add	r1, r7
    2d0a:	4296      	cmp	r6, r2
    2d0c:	f844 2b04 	str.w	r2, [r4], #4
    2d10:	bf88      	it	hi
    2d12:	3101      	addhi	r1, #1
    2d14:	468c      	mov	ip, r1
    2d16:	e6c9      	b.n	2aac <mpi_mul_hlp+0x112>
/media/wen/My_Passport/Raspbian/raspbian-tee/raspbian-tee/optee_os/lib/libmbedtls/mbedtls/library/bignum.c:1242
    2d18:	f04f 0c01 	mov.w	ip, #1
    2d1c:	e6c9      	b.n	2ab2 <mpi_mul_hlp+0x118>

00002d1e <mbedtls_mpi_mod_int.part.1>:
mbedtls_mpi_mod_int():
/media/wen/My_Passport/Raspbian/raspbian-tee/raspbian-tee/optee_os/lib/libmbedtls/mbedtls/library/bignum.c:1554
    2d1e:	b5f0      	push	{r4, r5, r6, r7, lr}
/media/wen/My_Passport/Raspbian/raspbian-tee/raspbian-tee/optee_os/lib/libmbedtls/mbedtls/library/bignum.c:1583
    2d20:	2300      	movs	r3, #0
    2d22:	888f      	ldrh	r7, [r1, #4]
    2d24:	f107 4480 	add.w	r4, r7, #1073741824	; 0x40000000
    2d28:	3c01      	subs	r4, #1
    2d2a:	00a4      	lsls	r4, r4, #2
    2d2c:	b947      	cbnz	r7, 2d40 <mbedtls_mpi_mod_int.part.1+0x22>
/media/wen/My_Passport/Raspbian/raspbian-tee/raspbian-tee/optee_os/lib/libmbedtls/mbedtls/library/bignum.c:1600
    2d2e:	f991 1000 	ldrsb.w	r1, [r1]
    2d32:	2900      	cmp	r1, #0
    2d34:	da01      	bge.n	2d3a <mbedtls_mpi_mod_int.part.1+0x1c>
    2d36:	b103      	cbz	r3, 2d3a <mbedtls_mpi_mod_int.part.1+0x1c>
/media/wen/My_Passport/Raspbian/raspbian-tee/raspbian-tee/optee_os/lib/libmbedtls/mbedtls/library/bignum.c:1601
    2d38:	1ad3      	subs	r3, r2, r3
/media/wen/My_Passport/Raspbian/raspbian-tee/raspbian-tee/optee_os/lib/libmbedtls/mbedtls/library/bignum.c:1603
    2d3a:	6003      	str	r3, [r0, #0]
/media/wen/My_Passport/Raspbian/raspbian-tee/raspbian-tee/optee_os/lib/libmbedtls/mbedtls/library/bignum.c:1606
    2d3c:	2000      	movs	r0, #0
    2d3e:	bdf0      	pop	{r4, r5, r6, r7, pc}
/media/wen/My_Passport/Raspbian/raspbian-tee/raspbian-tee/optee_os/lib/libmbedtls/mbedtls/library/bignum.c:1585
    2d40:	688d      	ldr	r5, [r1, #8]
/media/wen/My_Passport/Raspbian/raspbian-tee/raspbian-tee/optee_os/lib/libmbedtls/mbedtls/library/bignum.c:1583
    2d42:	3f01      	subs	r7, #1
/media/wen/My_Passport/Raspbian/raspbian-tee/raspbian-tee/optee_os/lib/libmbedtls/mbedtls/library/bignum.c:1585
    2d44:	592e      	ldr	r6, [r5, r4]
    2d46:	3c04      	subs	r4, #4
/media/wen/My_Passport/Raspbian/raspbian-tee/raspbian-tee/optee_os/lib/libmbedtls/mbedtls/library/bignum.c:1586
    2d48:	0c35      	lsrs	r5, r6, #16
    2d4a:	ea45 4303 	orr.w	r3, r5, r3, lsl #16
/media/wen/My_Passport/Raspbian/raspbian-tee/raspbian-tee/optee_os/lib/libmbedtls/mbedtls/library/bignum.c:1591
    2d4e:	fbb3 f5f2 	udiv	r5, r3, r2
    2d52:	fb02 3315 	mls	r3, r2, r5, r3
    2d56:	b2b5      	uxth	r5, r6
    2d58:	ea45 4503 	orr.w	r5, r5, r3, lsl #16
    2d5c:	fbb5 f3f2 	udiv	r3, r5, r2
    2d60:	fb02 5313 	mls	r3, r2, r3, r5
    2d64:	e7e2      	b.n	2d2c <mbedtls_mpi_mod_int.part.1+0xe>

00002d66 <mbedtls_mpi_init>:
mpi_init():
/media/wen/My_Passport/Raspbian/raspbian-tee/raspbian-tee/optee_os/lib/libmbedtls/mbedtls/library/bignum.c:90
    2d66:	b130      	cbz	r0, 2d76 <mbedtls_mpi_init+0x10>
/media/wen/My_Passport/Raspbian/raspbian-tee/raspbian-tee/optee_os/lib/libmbedtls/mbedtls/library/bignum.c:93
    2d68:	2301      	movs	r3, #1
    2d6a:	7003      	strb	r3, [r0, #0]
/media/wen/My_Passport/Raspbian/raspbian-tee/raspbian-tee/optee_os/lib/libmbedtls/mbedtls/library/bignum.c:94
    2d6c:	2300      	movs	r3, #0
    2d6e:	7043      	strb	r3, [r0, #1]
/media/wen/My_Passport/Raspbian/raspbian-tee/raspbian-tee/optee_os/lib/libmbedtls/mbedtls/library/bignum.c:95
    2d70:	8043      	strh	r3, [r0, #2]
/media/wen/My_Passport/Raspbian/raspbian-tee/raspbian-tee/optee_os/lib/libmbedtls/mbedtls/library/bignum.c:96
    2d72:	8083      	strh	r3, [r0, #4]
/media/wen/My_Passport/Raspbian/raspbian-tee/raspbian-tee/optee_os/lib/libmbedtls/mbedtls/library/bignum.c:97
    2d74:	6083      	str	r3, [r0, #8]
    2d76:	4770      	bx	lr

00002d78 <mbedtls_mpi_init_mempool>:
mbedtls_mpi_init_mempool():
/media/wen/My_Passport/Raspbian/raspbian-tee/raspbian-tee/optee_os/lib/libmbedtls/mbedtls/library/bignum.c:107
    2d78:	4a07      	ldr	r2, [pc, #28]	; (2d98 <mbedtls_mpi_init_mempool+0x20>)
    2d7a:	447a      	add	r2, pc
    2d7c:	6812      	ldr	r2, [r2, #0]
    2d7e:	b142      	cbz	r2, 2d92 <mbedtls_mpi_init_mempool+0x1a>
mpi_init():
/media/wen/My_Passport/Raspbian/raspbian-tee/raspbian-tee/optee_os/lib/libmbedtls/mbedtls/library/bignum.c:90
    2d80:	b148      	cbz	r0, 2d96 <mbedtls_mpi_init_mempool+0x1e>
/media/wen/My_Passport/Raspbian/raspbian-tee/raspbian-tee/optee_os/lib/libmbedtls/mbedtls/library/bignum.c:93
    2d82:	2201      	movs	r2, #1
    2d84:	7002      	strb	r2, [r0, #0]
/media/wen/My_Passport/Raspbian/raspbian-tee/raspbian-tee/optee_os/lib/libmbedtls/mbedtls/library/bignum.c:94
    2d86:	7042      	strb	r2, [r0, #1]
/media/wen/My_Passport/Raspbian/raspbian-tee/raspbian-tee/optee_os/lib/libmbedtls/mbedtls/library/bignum.c:95
    2d88:	2200      	movs	r2, #0
    2d8a:	8042      	strh	r2, [r0, #2]
/media/wen/My_Passport/Raspbian/raspbian-tee/raspbian-tee/optee_os/lib/libmbedtls/mbedtls/library/bignum.c:96
    2d8c:	8082      	strh	r2, [r0, #4]
/media/wen/My_Passport/Raspbian/raspbian-tee/raspbian-tee/optee_os/lib/libmbedtls/mbedtls/library/bignum.c:97
    2d8e:	6082      	str	r2, [r0, #8]
    2d90:	4770      	bx	lr
mbedtls_mpi_init_mempool():
/media/wen/My_Passport/Raspbian/raspbian-tee/raspbian-tee/optee_os/lib/libmbedtls/mbedtls/library/bignum.c:110
    2d92:	f7ff bfe8 	b.w	2d66 <mbedtls_mpi_init>
    2d96:	4770      	bx	lr
    2d98:	0000733e 	.word	0x0000733e

00002d9c <mbedtls_mpi_init_static>:
mpi_init():
/media/wen/My_Passport/Raspbian/raspbian-tee/raspbian-tee/optee_os/lib/libmbedtls/mbedtls/library/bignum.c:90
    2d9c:	b130      	cbz	r0, 2dac <mbedtls_mpi_init_static+0x10>
/media/wen/My_Passport/Raspbian/raspbian-tee/raspbian-tee/optee_os/lib/libmbedtls/mbedtls/library/bignum.c:95
    2d9e:	8043      	strh	r3, [r0, #2]
/media/wen/My_Passport/Raspbian/raspbian-tee/raspbian-tee/optee_os/lib/libmbedtls/mbedtls/library/bignum.c:96
    2da0:	9b00      	ldr	r3, [sp, #0]
/media/wen/My_Passport/Raspbian/raspbian-tee/raspbian-tee/optee_os/lib/libmbedtls/mbedtls/library/bignum.c:93
    2da2:	7002      	strb	r2, [r0, #0]
/media/wen/My_Passport/Raspbian/raspbian-tee/raspbian-tee/optee_os/lib/libmbedtls/mbedtls/library/bignum.c:94
    2da4:	2202      	movs	r2, #2
    2da6:	7042      	strb	r2, [r0, #1]
/media/wen/My_Passport/Raspbian/raspbian-tee/raspbian-tee/optee_os/lib/libmbedtls/mbedtls/library/bignum.c:96
    2da8:	8083      	strh	r3, [r0, #4]
/media/wen/My_Passport/Raspbian/raspbian-tee/raspbian-tee/optee_os/lib/libmbedtls/mbedtls/library/bignum.c:97
    2daa:	6081      	str	r1, [r0, #8]
    2dac:	4770      	bx	lr

00002dae <mbedtls_mpi_free>:
mbedtls_mpi_free():
/media/wen/My_Passport/Raspbian/raspbian-tee/raspbian-tee/optee_os/lib/libmbedtls/mbedtls/library/bignum.c:123
    2dae:	b538      	push	{r3, r4, r5, lr}
/media/wen/My_Passport/Raspbian/raspbian-tee/raspbian-tee/optee_os/lib/libmbedtls/mbedtls/library/bignum.c:124
    2db0:	4604      	mov	r4, r0
    2db2:	b178      	cbz	r0, 2dd4 <mbedtls_mpi_free+0x26>
/media/wen/My_Passport/Raspbian/raspbian-tee/raspbian-tee/optee_os/lib/libmbedtls/mbedtls/library/bignum.c:127
    2db4:	6881      	ldr	r1, [r0, #8]
    2db6:	b149      	cbz	r1, 2dcc <mbedtls_mpi_free+0x1e>
/media/wen/My_Passport/Raspbian/raspbian-tee/raspbian-tee/optee_os/lib/libmbedtls/mbedtls/library/bignum.c:129
    2db8:	8883      	ldrh	r3, [r0, #4]
    2dba:	460a      	mov	r2, r1
mbedtls_mpi_zeroize():
/media/wen/My_Passport/Raspbian/raspbian-tee/raspbian-tee/optee_os/lib/libmbedtls/mbedtls/library/bignum.c:65
    2dbc:	2000      	movs	r0, #0
    2dbe:	f113 33ff 	adds.w	r3, r3, #4294967295
    2dc2:	d208      	bcs.n	2dd6 <mbedtls_mpi_free+0x28>
mbedtls_mpi_free():
/media/wen/My_Passport/Raspbian/raspbian-tee/raspbian-tee/optee_os/lib/libmbedtls/mbedtls/library/bignum.c:130
    2dc4:	7865      	ldrb	r5, [r4, #1]
    2dc6:	b14d      	cbz	r5, 2ddc <mbedtls_mpi_free+0x2e>
    2dc8:	2d01      	cmp	r5, #1
    2dca:	d00c      	beq.n	2de6 <mbedtls_mpi_free+0x38>
/media/wen/My_Passport/Raspbian/raspbian-tee/raspbian-tee/optee_os/lib/libmbedtls/mbedtls/library/bignum.c:144
    2dcc:	2301      	movs	r3, #1
    2dce:	7023      	strb	r3, [r4, #0]
/media/wen/My_Passport/Raspbian/raspbian-tee/raspbian-tee/optee_os/lib/libmbedtls/mbedtls/library/bignum.c:145
    2dd0:	2300      	movs	r3, #0
    2dd2:	80a3      	strh	r3, [r4, #4]
    2dd4:	bd38      	pop	{r3, r4, r5, pc}
mbedtls_mpi_zeroize():
/media/wen/My_Passport/Raspbian/raspbian-tee/raspbian-tee/optee_os/lib/libmbedtls/mbedtls/library/bignum.c:65
    2dd6:	6010      	str	r0, [r2, #0]
    2dd8:	3204      	adds	r2, #4
    2dda:	e7f0      	b.n	2dbe <mbedtls_mpi_free+0x10>
mbedtls_mpi_free():
/media/wen/My_Passport/Raspbian/raspbian-tee/raspbian-tee/optee_os/lib/libmbedtls/mbedtls/library/bignum.c:132
    2ddc:	4608      	mov	r0, r1
    2dde:	f002 fc46 	bl	566e <free>
/media/wen/My_Passport/Raspbian/raspbian-tee/raspbian-tee/optee_os/lib/libmbedtls/mbedtls/library/bignum.c:133
    2de2:	60a5      	str	r5, [r4, #8]
/media/wen/My_Passport/Raspbian/raspbian-tee/raspbian-tee/optee_os/lib/libmbedtls/mbedtls/library/bignum.c:134
    2de4:	e7f2      	b.n	2dcc <mbedtls_mpi_free+0x1e>
/media/wen/My_Passport/Raspbian/raspbian-tee/raspbian-tee/optee_os/lib/libmbedtls/mbedtls/library/bignum.c:136
    2de6:	4b04      	ldr	r3, [pc, #16]	; (2df8 <mbedtls_mpi_free+0x4a>)
    2de8:	447b      	add	r3, pc
    2dea:	6818      	ldr	r0, [r3, #0]
    2dec:	f002 ff48 	bl	5c80 <mempool_free>
/media/wen/My_Passport/Raspbian/raspbian-tee/raspbian-tee/optee_os/lib/libmbedtls/mbedtls/library/bignum.c:137
    2df0:	2300      	movs	r3, #0
    2df2:	60a3      	str	r3, [r4, #8]
/media/wen/My_Passport/Raspbian/raspbian-tee/raspbian-tee/optee_os/lib/libmbedtls/mbedtls/library/bignum.c:138
    2df4:	e7ea      	b.n	2dcc <mbedtls_mpi_free+0x1e>
    2df6:	bf00      	nop
    2df8:	000072d0 	.word	0x000072d0

00002dfc <mbedtls_mpi_grow>:
mbedtls_mpi_grow():
/media/wen/My_Passport/Raspbian/raspbian-tee/raspbian-tee/optee_os/lib/libmbedtls/mbedtls/library/bignum.c:155
    2dfc:	f242 7310 	movw	r3, #10000	; 0x2710
/media/wen/My_Passport/Raspbian/raspbian-tee/raspbian-tee/optee_os/lib/libmbedtls/mbedtls/library/bignum.c:152
    2e00:	b570      	push	{r4, r5, r6, lr}
/media/wen/My_Passport/Raspbian/raspbian-tee/raspbian-tee/optee_os/lib/libmbedtls/mbedtls/library/bignum.c:155
    2e02:	4299      	cmp	r1, r3
/media/wen/My_Passport/Raspbian/raspbian-tee/raspbian-tee/optee_os/lib/libmbedtls/mbedtls/library/bignum.c:152
    2e04:	4604      	mov	r4, r0
    2e06:	460d      	mov	r5, r1
/media/wen/My_Passport/Raspbian/raspbian-tee/raspbian-tee/optee_os/lib/libmbedtls/mbedtls/library/bignum.c:155
    2e08:	d902      	bls.n	2e10 <mbedtls_mpi_grow+0x14>
/media/wen/My_Passport/Raspbian/raspbian-tee/raspbian-tee/optee_os/lib/libmbedtls/mbedtls/library/bignum.c:156
    2e0a:	f06f 000f 	mvn.w	r0, #15
    2e0e:	bd70      	pop	{r4, r5, r6, pc}
/media/wen/My_Passport/Raspbian/raspbian-tee/raspbian-tee/optee_os/lib/libmbedtls/mbedtls/library/bignum.c:158
    2e10:	8883      	ldrh	r3, [r0, #4]
    2e12:	4299      	cmp	r1, r3
    2e14:	d92d      	bls.n	2e72 <mbedtls_mpi_grow+0x76>
/media/wen/My_Passport/Raspbian/raspbian-tee/raspbian-tee/optee_os/lib/libmbedtls/mbedtls/library/bignum.c:161
    2e16:	7842      	ldrb	r2, [r0, #1]
    2e18:	2a01      	cmp	r2, #1
    2e1a:	d017      	beq.n	2e4c <mbedtls_mpi_grow+0x50>
    2e1c:	d304      	bcc.n	2e28 <mbedtls_mpi_grow+0x2c>
    2e1e:	2a02      	cmp	r2, #2
    2e20:	d01b      	beq.n	2e5a <mbedtls_mpi_grow+0x5e>
/media/wen/My_Passport/Raspbian/raspbian-tee/raspbian-tee/optee_os/lib/libmbedtls/mbedtls/library/bignum.c:174
    2e22:	f06f 0003 	mvn.w	r0, #3
/media/wen/My_Passport/Raspbian/raspbian-tee/raspbian-tee/optee_os/lib/libmbedtls/mbedtls/library/bignum.c:196
    2e26:	bd70      	pop	{r4, r5, r6, pc}
/media/wen/My_Passport/Raspbian/raspbian-tee/raspbian-tee/optee_os/lib/libmbedtls/mbedtls/library/bignum.c:163
    2e28:	2104      	movs	r1, #4
    2e2a:	4628      	mov	r0, r5
    2e2c:	f002 fc28 	bl	5680 <calloc>
/media/wen/My_Passport/Raspbian/raspbian-tee/raspbian-tee/optee_os/lib/libmbedtls/mbedtls/library/bignum.c:166
    2e30:	4606      	mov	r6, r0
/media/wen/My_Passport/Raspbian/raspbian-tee/raspbian-tee/optee_os/lib/libmbedtls/mbedtls/library/bignum.c:177
    2e32:	2800      	cmp	r0, #0
    2e34:	d0e9      	beq.n	2e0a <mbedtls_mpi_grow+0xe>
/media/wen/My_Passport/Raspbian/raspbian-tee/raspbian-tee/optee_os/lib/libmbedtls/mbedtls/library/bignum.c:180
    2e36:	68a1      	ldr	r1, [r4, #8]
    2e38:	b9e9      	cbnz	r1, 2e76 <mbedtls_mpi_grow+0x7a>
/media/wen/My_Passport/Raspbian/raspbian-tee/raspbian-tee/optee_os/lib/libmbedtls/mbedtls/library/bignum.c:186
    2e3a:	7863      	ldrb	r3, [r4, #1]
    2e3c:	b343      	cbz	r3, 2e90 <mbedtls_mpi_grow+0x94>
/media/wen/My_Passport/Raspbian/raspbian-tee/raspbian-tee/optee_os/lib/libmbedtls/mbedtls/library/bignum.c:189
    2e3e:	4b17      	ldr	r3, [pc, #92]	; (2e9c <mbedtls_mpi_grow+0xa0>)
    2e40:	68a1      	ldr	r1, [r4, #8]
    2e42:	447b      	add	r3, pc
    2e44:	6818      	ldr	r0, [r3, #0]
    2e46:	f002 ff1b 	bl	5c80 <mempool_free>
    2e4a:	e024      	b.n	2e96 <mbedtls_mpi_grow+0x9a>
/media/wen/My_Passport/Raspbian/raspbian-tee/raspbian-tee/optee_os/lib/libmbedtls/mbedtls/library/bignum.c:166
    2e4c:	4b14      	ldr	r3, [pc, #80]	; (2ea0 <mbedtls_mpi_grow+0xa4>)
    2e4e:	2204      	movs	r2, #4
    2e50:	447b      	add	r3, pc
    2e52:	6818      	ldr	r0, [r3, #0]
    2e54:	f002 ff02 	bl	5c5c <mempool_calloc>
    2e58:	e7ea      	b.n	2e30 <mbedtls_mpi_grow+0x34>
/media/wen/My_Passport/Raspbian/raspbian-tee/raspbian-tee/optee_os/lib/libmbedtls/mbedtls/library/bignum.c:169
    2e5a:	8842      	ldrh	r2, [r0, #2]
    2e5c:	4291      	cmp	r1, r2
    2e5e:	d8d4      	bhi.n	2e0a <mbedtls_mpi_grow+0xe>
/media/wen/My_Passport/Raspbian/raspbian-tee/raspbian-tee/optee_os/lib/libmbedtls/mbedtls/library/bignum.c:171
    2e60:	6880      	ldr	r0, [r0, #8]
    2e62:	1aca      	subs	r2, r1, r3
    2e64:	2100      	movs	r1, #0
    2e66:	0092      	lsls	r2, r2, #2
    2e68:	eb00 0083 	add.w	r0, r0, r3, lsl #2
    2e6c:	f002 ff49 	bl	5d02 <memset>
/media/wen/My_Passport/Raspbian/raspbian-tee/raspbian-tee/optee_os/lib/libmbedtls/mbedtls/library/bignum.c:193
    2e70:	80a5      	strh	r5, [r4, #4]
/media/wen/My_Passport/Raspbian/raspbian-tee/raspbian-tee/optee_os/lib/libmbedtls/mbedtls/library/bignum.c:159
    2e72:	2000      	movs	r0, #0
    2e74:	bd70      	pop	{r4, r5, r6, pc}
/media/wen/My_Passport/Raspbian/raspbian-tee/raspbian-tee/optee_os/lib/libmbedtls/mbedtls/library/bignum.c:181
    2e76:	88a2      	ldrh	r2, [r4, #4]
    2e78:	0092      	lsls	r2, r2, #2
    2e7a:	f002 ff37 	bl	5cec <memcpy>
/media/wen/My_Passport/Raspbian/raspbian-tee/raspbian-tee/optee_os/lib/libmbedtls/mbedtls/library/bignum.c:182
    2e7e:	88a3      	ldrh	r3, [r4, #4]
mbedtls_mpi_zeroize():
/media/wen/My_Passport/Raspbian/raspbian-tee/raspbian-tee/optee_os/lib/libmbedtls/mbedtls/library/bignum.c:65
    2e80:	68a2      	ldr	r2, [r4, #8]
    2e82:	2100      	movs	r1, #0
    2e84:	f113 33ff 	adds.w	r3, r3, #4294967295
    2e88:	d3d7      	bcc.n	2e3a <mbedtls_mpi_grow+0x3e>
    2e8a:	6011      	str	r1, [r2, #0]
    2e8c:	3204      	adds	r2, #4
    2e8e:	e7f9      	b.n	2e84 <mbedtls_mpi_grow+0x88>
mbedtls_mpi_grow():
/media/wen/My_Passport/Raspbian/raspbian-tee/raspbian-tee/optee_os/lib/libmbedtls/mbedtls/library/bignum.c:187
    2e90:	68a0      	ldr	r0, [r4, #8]
    2e92:	f002 fbec 	bl	566e <free>
/media/wen/My_Passport/Raspbian/raspbian-tee/raspbian-tee/optee_os/lib/libmbedtls/mbedtls/library/bignum.c:191
    2e96:	60a6      	str	r6, [r4, #8]
    2e98:	e7ea      	b.n	2e70 <mbedtls_mpi_grow+0x74>
    2e9a:	bf00      	nop
    2e9c:	00007276 	.word	0x00007276
    2ea0:	00007268 	.word	0x00007268

00002ea4 <mbedtls_mpi_shrink>:
mbedtls_mpi_shrink():
/media/wen/My_Passport/Raspbian/raspbian-tee/raspbian-tee/optee_os/lib/libmbedtls/mbedtls/library/bignum.c:208
    2ea4:	8883      	ldrh	r3, [r0, #4]
/media/wen/My_Passport/Raspbian/raspbian-tee/raspbian-tee/optee_os/lib/libmbedtls/mbedtls/library/bignum.c:203
    2ea6:	b570      	push	{r4, r5, r6, lr}
    2ea8:	4604      	mov	r4, r0
/media/wen/My_Passport/Raspbian/raspbian-tee/raspbian-tee/optee_os/lib/libmbedtls/mbedtls/library/bignum.c:208
    2eaa:	428b      	cmp	r3, r1
/media/wen/My_Passport/Raspbian/raspbian-tee/raspbian-tee/optee_os/lib/libmbedtls/mbedtls/library/bignum.c:203
    2eac:	460e      	mov	r6, r1
/media/wen/My_Passport/Raspbian/raspbian-tee/raspbian-tee/optee_os/lib/libmbedtls/mbedtls/library/bignum.c:208
    2eae:	d803      	bhi.n	2eb8 <mbedtls_mpi_shrink+0x14>
/media/wen/My_Passport/Raspbian/raspbian-tee/raspbian-tee/optee_os/lib/libmbedtls/mbedtls/library/bignum.c:252
    2eb0:	e8bd 4070 	ldmia.w	sp!, {r4, r5, r6, lr}
/media/wen/My_Passport/Raspbian/raspbian-tee/raspbian-tee/optee_os/lib/libmbedtls/mbedtls/library/bignum.c:209
    2eb4:	f7ff bfa2 	b.w	2dfc <mbedtls_mpi_grow>
/media/wen/My_Passport/Raspbian/raspbian-tee/raspbian-tee/optee_os/lib/libmbedtls/mbedtls/library/bignum.c:211
    2eb8:	1e5a      	subs	r2, r3, #1
    2eba:	4619      	mov	r1, r3
    2ebc:	0092      	lsls	r2, r2, #2
/media/wen/My_Passport/Raspbian/raspbian-tee/raspbian-tee/optee_os/lib/libmbedtls/mbedtls/library/bignum.c:211 (discriminator 1)
    2ebe:	2901      	cmp	r1, #1
    2ec0:	f101 35ff 	add.w	r5, r1, #4294967295
    2ec4:	d101      	bne.n	2eca <mbedtls_mpi_shrink+0x26>
    2ec6:	2500      	movs	r5, #0
    2ec8:	e005      	b.n	2ed6 <mbedtls_mpi_shrink+0x32>
/media/wen/My_Passport/Raspbian/raspbian-tee/raspbian-tee/optee_os/lib/libmbedtls/mbedtls/library/bignum.c:212
    2eca:	68a1      	ldr	r1, [r4, #8]
    2ecc:	5888      	ldr	r0, [r1, r2]
    2ece:	4629      	mov	r1, r5
    2ed0:	3a04      	subs	r2, #4
    2ed2:	2800      	cmp	r0, #0
    2ed4:	d0f3      	beq.n	2ebe <mbedtls_mpi_shrink+0x1a>
/media/wen/My_Passport/Raspbian/raspbian-tee/raspbian-tee/optee_os/lib/libmbedtls/mbedtls/library/bignum.c:214
    2ed6:	3501      	adds	r5, #1
/media/wen/My_Passport/Raspbian/raspbian-tee/raspbian-tee/optee_os/lib/libmbedtls/mbedtls/library/bignum.c:219
    2ed8:	7862      	ldrb	r2, [r4, #1]
    2eda:	42b5      	cmp	r5, r6
    2edc:	bf38      	it	cc
    2ede:	4635      	movcc	r5, r6
    2ee0:	2a01      	cmp	r2, #1
    2ee2:	d01d      	beq.n	2f20 <mbedtls_mpi_shrink+0x7c>
    2ee4:	d304      	bcc.n	2ef0 <mbedtls_mpi_shrink+0x4c>
    2ee6:	2a02      	cmp	r2, #2
    2ee8:	d022      	beq.n	2f30 <mbedtls_mpi_shrink+0x8c>
/media/wen/My_Passport/Raspbian/raspbian-tee/raspbian-tee/optee_os/lib/libmbedtls/mbedtls/library/bignum.c:233
    2eea:	f06f 0003 	mvn.w	r0, #3
    2eee:	bd70      	pop	{r4, r5, r6, pc}
/media/wen/My_Passport/Raspbian/raspbian-tee/raspbian-tee/optee_os/lib/libmbedtls/mbedtls/library/bignum.c:221
    2ef0:	2104      	movs	r1, #4
    2ef2:	4630      	mov	r0, r6
    2ef4:	f002 fbc4 	bl	5680 <calloc>
/media/wen/My_Passport/Raspbian/raspbian-tee/raspbian-tee/optee_os/lib/libmbedtls/mbedtls/library/bignum.c:237
    2ef8:	68a1      	ldr	r1, [r4, #8]
/media/wen/My_Passport/Raspbian/raspbian-tee/raspbian-tee/optee_os/lib/libmbedtls/mbedtls/library/bignum.c:224
    2efa:	4606      	mov	r6, r0
/media/wen/My_Passport/Raspbian/raspbian-tee/raspbian-tee/optee_os/lib/libmbedtls/mbedtls/library/bignum.c:237
    2efc:	b171      	cbz	r1, 2f1c <mbedtls_mpi_shrink+0x78>
/media/wen/My_Passport/Raspbian/raspbian-tee/raspbian-tee/optee_os/lib/libmbedtls/mbedtls/library/bignum.c:239
    2efe:	00aa      	lsls	r2, r5, #2
    2f00:	f002 fef4 	bl	5cec <memcpy>
/media/wen/My_Passport/Raspbian/raspbian-tee/raspbian-tee/optee_os/lib/libmbedtls/mbedtls/library/bignum.c:240
    2f04:	68a1      	ldr	r1, [r4, #8]
    2f06:	88a3      	ldrh	r3, [r4, #4]
mbedtls_mpi_zeroize():
/media/wen/My_Passport/Raspbian/raspbian-tee/raspbian-tee/optee_os/lib/libmbedtls/mbedtls/library/bignum.c:65
    2f08:	2000      	movs	r0, #0
    2f0a:	460a      	mov	r2, r1
    2f0c:	f113 33ff 	adds.w	r3, r3, #4294967295
    2f10:	d21f      	bcs.n	2f52 <mbedtls_mpi_shrink+0xae>
mbedtls_mpi_shrink():
/media/wen/My_Passport/Raspbian/raspbian-tee/raspbian-tee/optee_os/lib/libmbedtls/mbedtls/library/bignum.c:241
    2f12:	7863      	ldrb	r3, [r4, #1]
    2f14:	bb03      	cbnz	r3, 2f58 <mbedtls_mpi_shrink+0xb4>
/media/wen/My_Passport/Raspbian/raspbian-tee/raspbian-tee/optee_os/lib/libmbedtls/mbedtls/library/bignum.c:242
    2f16:	4608      	mov	r0, r1
    2f18:	f002 fba9 	bl	566e <free>
/media/wen/My_Passport/Raspbian/raspbian-tee/raspbian-tee/optee_os/lib/libmbedtls/mbedtls/library/bignum.c:247
    2f1c:	60a6      	str	r6, [r4, #8]
    2f1e:	e012      	b.n	2f46 <mbedtls_mpi_shrink+0xa2>
/media/wen/My_Passport/Raspbian/raspbian-tee/raspbian-tee/optee_os/lib/libmbedtls/mbedtls/library/bignum.c:224
    2f20:	4b12      	ldr	r3, [pc, #72]	; (2f6c <mbedtls_mpi_shrink+0xc8>)
    2f22:	2204      	movs	r2, #4
    2f24:	4631      	mov	r1, r6
    2f26:	447b      	add	r3, pc
    2f28:	6818      	ldr	r0, [r3, #0]
    2f2a:	f002 fe97 	bl	5c5c <mempool_calloc>
    2f2e:	e7e3      	b.n	2ef8 <mbedtls_mpi_shrink+0x54>
/media/wen/My_Passport/Raspbian/raspbian-tee/raspbian-tee/optee_os/lib/libmbedtls/mbedtls/library/bignum.c:227
    2f30:	8862      	ldrh	r2, [r4, #2]
    2f32:	4296      	cmp	r6, r2
    2f34:	d816      	bhi.n	2f64 <mbedtls_mpi_shrink+0xc0>
/media/wen/My_Passport/Raspbian/raspbian-tee/raspbian-tee/optee_os/lib/libmbedtls/mbedtls/library/bignum.c:229
    2f36:	68a2      	ldr	r2, [r4, #8]
    2f38:	1b5b      	subs	r3, r3, r5
mbedtls_mpi_zeroize():
/media/wen/My_Passport/Raspbian/raspbian-tee/raspbian-tee/optee_os/lib/libmbedtls/mbedtls/library/bignum.c:65
    2f3a:	2100      	movs	r1, #0
    2f3c:	eb02 0285 	add.w	r2, r2, r5, lsl #2
    2f40:	f113 33ff 	adds.w	r3, r3, #4294967295
    2f44:	d202      	bcs.n	2f4c <mbedtls_mpi_shrink+0xa8>
mbedtls_mpi_shrink():
/media/wen/My_Passport/Raspbian/raspbian-tee/raspbian-tee/optee_os/lib/libmbedtls/mbedtls/library/bignum.c:249
    2f46:	80a5      	strh	r5, [r4, #4]
/media/wen/My_Passport/Raspbian/raspbian-tee/raspbian-tee/optee_os/lib/libmbedtls/mbedtls/library/bignum.c:251
    2f48:	2000      	movs	r0, #0
    2f4a:	bd70      	pop	{r4, r5, r6, pc}
mbedtls_mpi_zeroize():
/media/wen/My_Passport/Raspbian/raspbian-tee/raspbian-tee/optee_os/lib/libmbedtls/mbedtls/library/bignum.c:65
    2f4c:	6011      	str	r1, [r2, #0]
    2f4e:	3204      	adds	r2, #4
    2f50:	e7f6      	b.n	2f40 <mbedtls_mpi_shrink+0x9c>
    2f52:	6010      	str	r0, [r2, #0]
    2f54:	3204      	adds	r2, #4
    2f56:	e7d9      	b.n	2f0c <mbedtls_mpi_shrink+0x68>
mbedtls_mpi_shrink():
/media/wen/My_Passport/Raspbian/raspbian-tee/raspbian-tee/optee_os/lib/libmbedtls/mbedtls/library/bignum.c:244
    2f58:	4b05      	ldr	r3, [pc, #20]	; (2f70 <mbedtls_mpi_shrink+0xcc>)
    2f5a:	447b      	add	r3, pc
    2f5c:	6818      	ldr	r0, [r3, #0]
    2f5e:	f002 fe8f 	bl	5c80 <mempool_free>
    2f62:	e7db      	b.n	2f1c <mbedtls_mpi_shrink+0x78>
/media/wen/My_Passport/Raspbian/raspbian-tee/raspbian-tee/optee_os/lib/libmbedtls/mbedtls/library/bignum.c:228
    2f64:	f06f 000f 	mvn.w	r0, #15
/media/wen/My_Passport/Raspbian/raspbian-tee/raspbian-tee/optee_os/lib/libmbedtls/mbedtls/library/bignum.c:252
    2f68:	bd70      	pop	{r4, r5, r6, pc}
    2f6a:	bf00      	nop
    2f6c:	00007192 	.word	0x00007192
    2f70:	0000715e 	.word	0x0000715e

00002f74 <mbedtls_mpi_copy>:
mbedtls_mpi_copy():
/media/wen/My_Passport/Raspbian/raspbian-tee/raspbian-tee/optee_os/lib/libmbedtls/mbedtls/library/bignum.c:262
    2f74:	4288      	cmp	r0, r1
/media/wen/My_Passport/Raspbian/raspbian-tee/raspbian-tee/optee_os/lib/libmbedtls/mbedtls/library/bignum.c:258
    2f76:	b5f8      	push	{r3, r4, r5, r6, r7, lr}
    2f78:	4606      	mov	r6, r0
    2f7a:	460f      	mov	r7, r1
/media/wen/My_Passport/Raspbian/raspbian-tee/raspbian-tee/optee_os/lib/libmbedtls/mbedtls/library/bignum.c:262
    2f7c:	d023      	beq.n	2fc6 <mbedtls_mpi_copy+0x52>
/media/wen/My_Passport/Raspbian/raspbian-tee/raspbian-tee/optee_os/lib/libmbedtls/mbedtls/library/bignum.c:265
    2f7e:	688d      	ldr	r5, [r1, #8]
    2f80:	b91d      	cbnz	r5, 2f8a <mbedtls_mpi_copy+0x16>
/media/wen/My_Passport/Raspbian/raspbian-tee/raspbian-tee/optee_os/lib/libmbedtls/mbedtls/library/bignum.c:267
    2f82:	f7ff ff14 	bl	2dae <mbedtls_mpi_free>
/media/wen/My_Passport/Raspbian/raspbian-tee/raspbian-tee/optee_os/lib/libmbedtls/mbedtls/library/bignum.c:286
    2f86:	4628      	mov	r0, r5
    2f88:	bdf8      	pop	{r3, r4, r5, r6, r7, pc}
/media/wen/My_Passport/Raspbian/raspbian-tee/raspbian-tee/optee_os/lib/libmbedtls/mbedtls/library/bignum.c:271
    2f8a:	888a      	ldrh	r2, [r1, #4]
/media/wen/My_Passport/Raspbian/raspbian-tee/raspbian-tee/optee_os/lib/libmbedtls/mbedtls/library/bignum.c:271 (discriminator 2)
    2f8c:	3a01      	subs	r2, #1
    2f8e:	b11a      	cbz	r2, 2f98 <mbedtls_mpi_copy+0x24>
/media/wen/My_Passport/Raspbian/raspbian-tee/raspbian-tee/optee_os/lib/libmbedtls/mbedtls/library/bignum.c:272
    2f90:	f855 3022 	ldr.w	r3, [r5, r2, lsl #2]
    2f94:	2b00      	cmp	r3, #0
    2f96:	d0f9      	beq.n	2f8c <mbedtls_mpi_copy+0x18>
/media/wen/My_Passport/Raspbian/raspbian-tee/raspbian-tee/optee_os/lib/libmbedtls/mbedtls/library/bignum.c:276
    2f98:	f997 3000 	ldrsb.w	r3, [r7]
/media/wen/My_Passport/Raspbian/raspbian-tee/raspbian-tee/optee_os/lib/libmbedtls/mbedtls/library/bignum.c:274
    2f9c:	1c54      	adds	r4, r2, #1
/media/wen/My_Passport/Raspbian/raspbian-tee/raspbian-tee/optee_os/lib/libmbedtls/mbedtls/library/bignum.c:278
    2f9e:	4621      	mov	r1, r4
    2fa0:	4630      	mov	r0, r6
/media/wen/My_Passport/Raspbian/raspbian-tee/raspbian-tee/optee_os/lib/libmbedtls/mbedtls/library/bignum.c:276
    2fa2:	7033      	strb	r3, [r6, #0]
/media/wen/My_Passport/Raspbian/raspbian-tee/raspbian-tee/optee_os/lib/libmbedtls/mbedtls/library/bignum.c:278
    2fa4:	f7ff ff2a 	bl	2dfc <mbedtls_mpi_grow>
    2fa8:	4605      	mov	r5, r0
    2faa:	2800      	cmp	r0, #0
    2fac:	d1eb      	bne.n	2f86 <mbedtls_mpi_copy+0x12>
/media/wen/My_Passport/Raspbian/raspbian-tee/raspbian-tee/optee_os/lib/libmbedtls/mbedtls/library/bignum.c:280
    2fae:	88b2      	ldrh	r2, [r6, #4]
    2fb0:	4601      	mov	r1, r0
    2fb2:	68b0      	ldr	r0, [r6, #8]
    2fb4:	0092      	lsls	r2, r2, #2
    2fb6:	f002 fea4 	bl	5d02 <memset>
/media/wen/My_Passport/Raspbian/raspbian-tee/raspbian-tee/optee_os/lib/libmbedtls/mbedtls/library/bignum.c:281
    2fba:	00a2      	lsls	r2, r4, #2
    2fbc:	68b9      	ldr	r1, [r7, #8]
    2fbe:	68b0      	ldr	r0, [r6, #8]
    2fc0:	f002 fe94 	bl	5cec <memcpy>
    2fc4:	e7df      	b.n	2f86 <mbedtls_mpi_copy+0x12>
/media/wen/My_Passport/Raspbian/raspbian-tee/raspbian-tee/optee_os/lib/libmbedtls/mbedtls/library/bignum.c:263
    2fc6:	2500      	movs	r5, #0
    2fc8:	e7dd      	b.n	2f86 <mbedtls_mpi_copy+0x12>

00002fca <mbedtls_mpi_swap>:
mbedtls_mpi_swap():
/media/wen/My_Passport/Raspbian/raspbian-tee/raspbian-tee/optee_os/lib/libmbedtls/mbedtls/library/bignum.c:292
    2fca:	b5f0      	push	{r4, r5, r6, r7, lr}
/media/wen/My_Passport/Raspbian/raspbian-tee/raspbian-tee/optee_os/lib/libmbedtls/mbedtls/library/bignum.c:295
    2fcc:	250c      	movs	r5, #12
/media/wen/My_Passport/Raspbian/raspbian-tee/raspbian-tee/optee_os/lib/libmbedtls/mbedtls/library/bignum.c:292
    2fce:	460e      	mov	r6, r1
    2fd0:	b085      	sub	sp, #20
    2fd2:	4607      	mov	r7, r0
/media/wen/My_Passport/Raspbian/raspbian-tee/raspbian-tee/optee_os/lib/libmbedtls/mbedtls/library/bignum.c:295
    2fd4:	ac01      	add	r4, sp, #4
    2fd6:	462a      	mov	r2, r5
    2fd8:	4601      	mov	r1, r0
    2fda:	4620      	mov	r0, r4
    2fdc:	f002 fe86 	bl	5cec <memcpy>
/media/wen/My_Passport/Raspbian/raspbian-tee/raspbian-tee/optee_os/lib/libmbedtls/mbedtls/library/bignum.c:296
    2fe0:	462a      	mov	r2, r5
    2fe2:	4631      	mov	r1, r6
    2fe4:	4638      	mov	r0, r7
    2fe6:	f002 fe81 	bl	5cec <memcpy>
/media/wen/My_Passport/Raspbian/raspbian-tee/raspbian-tee/optee_os/lib/libmbedtls/mbedtls/library/bignum.c:297
    2fea:	462a      	mov	r2, r5
    2fec:	4621      	mov	r1, r4
    2fee:	4630      	mov	r0, r6
    2ff0:	f002 fe7c 	bl	5cec <memcpy>
/media/wen/My_Passport/Raspbian/raspbian-tee/raspbian-tee/optee_os/lib/libmbedtls/mbedtls/library/bignum.c:298
    2ff4:	b005      	add	sp, #20
    2ff6:	bdf0      	pop	{r4, r5, r6, r7, pc}

00002ff8 <mbedtls_mpi_safe_cond_assign>:
mbedtls_mpi_safe_cond_assign():
/media/wen/My_Passport/Raspbian/raspbian-tee/raspbian-tee/optee_os/lib/libmbedtls/mbedtls/library/bignum.c:306
    2ff8:	e92d 41f0 	stmdb	sp!, {r4, r5, r6, r7, r8, lr}
    2ffc:	460e      	mov	r6, r1
/media/wen/My_Passport/Raspbian/raspbian-tee/raspbian-tee/optee_os/lib/libmbedtls/mbedtls/library/bignum.c:313
    2ffe:	8889      	ldrh	r1, [r1, #4]
/media/wen/My_Passport/Raspbian/raspbian-tee/raspbian-tee/optee_os/lib/libmbedtls/mbedtls/library/bignum.c:306
    3000:	4605      	mov	r5, r0
    3002:	4614      	mov	r4, r2
/media/wen/My_Passport/Raspbian/raspbian-tee/raspbian-tee/optee_os/lib/libmbedtls/mbedtls/library/bignum.c:313
    3004:	f7ff fefa 	bl	2dfc <mbedtls_mpi_grow>
    3008:	b9a0      	cbnz	r0, 3034 <mbedtls_mpi_safe_cond_assign+0x3c>
/media/wen/My_Passport/Raspbian/raspbian-tee/raspbian-tee/optee_os/lib/libmbedtls/mbedtls/library/bignum.c:311
    300a:	4262      	negs	r2, r4
/media/wen/My_Passport/Raspbian/raspbian-tee/raspbian-tee/optee_os/lib/libmbedtls/mbedtls/library/bignum.c:315
    300c:	7831      	ldrb	r1, [r6, #0]
/media/wen/My_Passport/Raspbian/raspbian-tee/raspbian-tee/optee_os/lib/libmbedtls/mbedtls/library/bignum.c:311
    300e:	4322      	orrs	r2, r4
/media/wen/My_Passport/Raspbian/raspbian-tee/raspbian-tee/optee_os/lib/libmbedtls/mbedtls/library/bignum.c:315
    3010:	782b      	ldrb	r3, [r5, #0]
/media/wen/My_Passport/Raspbian/raspbian-tee/raspbian-tee/optee_os/lib/libmbedtls/mbedtls/library/bignum.c:311
    3012:	f3c2 12c0 	ubfx	r2, r2, #7, #1
/media/wen/My_Passport/Raspbian/raspbian-tee/raspbian-tee/optee_os/lib/libmbedtls/mbedtls/library/bignum.c:315
    3016:	f1c2 0401 	rsb	r4, r2, #1
    301a:	fb11 f102 	smulbb	r1, r1, r2
    301e:	fb03 1304 	mla	r3, r3, r4, r1
    3022:	702b      	strb	r3, [r5, #0]
/media/wen/My_Passport/Raspbian/raspbian-tee/raspbian-tee/optee_os/lib/libmbedtls/mbedtls/library/bignum.c:317
    3024:	4603      	mov	r3, r0
    3026:	88b1      	ldrh	r1, [r6, #4]
/media/wen/My_Passport/Raspbian/raspbian-tee/raspbian-tee/optee_os/lib/libmbedtls/mbedtls/library/bignum.c:317 (discriminator 1)
    3028:	428b      	cmp	r3, r1
    302a:	d305      	bcc.n	3038 <mbedtls_mpi_safe_cond_assign+0x40>
/media/wen/My_Passport/Raspbian/raspbian-tee/raspbian-tee/optee_os/lib/libmbedtls/mbedtls/library/bignum.c:320
    302c:	88af      	ldrh	r7, [r5, #4]
    302e:	008b      	lsls	r3, r1, #2
/media/wen/My_Passport/Raspbian/raspbian-tee/raspbian-tee/optee_os/lib/libmbedtls/mbedtls/library/bignum.c:320 (discriminator 1)
    3030:	42b9      	cmp	r1, r7
    3032:	d310      	bcc.n	3056 <mbedtls_mpi_safe_cond_assign+0x5e>
/media/wen/My_Passport/Raspbian/raspbian-tee/raspbian-tee/optee_os/lib/libmbedtls/mbedtls/library/bignum.c:325
    3034:	e8bd 81f0 	ldmia.w	sp!, {r4, r5, r6, r7, r8, pc}
/media/wen/My_Passport/Raspbian/raspbian-tee/raspbian-tee/optee_os/lib/libmbedtls/mbedtls/library/bignum.c:318 (discriminator 3)
    3038:	68b7      	ldr	r7, [r6, #8]
    303a:	f8d5 c008 	ldr.w	ip, [r5, #8]
    303e:	f857 8023 	ldr.w	r8, [r7, r3, lsl #2]
    3042:	f85c 7023 	ldr.w	r7, [ip, r3, lsl #2]
    3046:	fb07 fe04 	mul.w	lr, r7, r4
    304a:	fb08 e702 	mla	r7, r8, r2, lr
    304e:	f84c 7023 	str.w	r7, [ip, r3, lsl #2]
/media/wen/My_Passport/Raspbian/raspbian-tee/raspbian-tee/optee_os/lib/libmbedtls/mbedtls/library/bignum.c:317 (discriminator 3)
    3052:	3301      	adds	r3, #1
    3054:	e7e8      	b.n	3028 <mbedtls_mpi_safe_cond_assign+0x30>
/media/wen/My_Passport/Raspbian/raspbian-tee/raspbian-tee/optee_os/lib/libmbedtls/mbedtls/library/bignum.c:321 (discriminator 2)
    3056:	68ae      	ldr	r6, [r5, #8]
/media/wen/My_Passport/Raspbian/raspbian-tee/raspbian-tee/optee_os/lib/libmbedtls/mbedtls/library/bignum.c:320 (discriminator 2)
    3058:	3101      	adds	r1, #1
/media/wen/My_Passport/Raspbian/raspbian-tee/raspbian-tee/optee_os/lib/libmbedtls/mbedtls/library/bignum.c:321 (discriminator 2)
    305a:	58f2      	ldr	r2, [r6, r3]
    305c:	4362      	muls	r2, r4
    305e:	50f2      	str	r2, [r6, r3]
    3060:	3304      	adds	r3, #4
    3062:	e7e5      	b.n	3030 <mbedtls_mpi_safe_cond_assign+0x38>

00003064 <mbedtls_mpi_safe_cond_swap>:
mbedtls_mpi_safe_cond_swap():
/media/wen/My_Passport/Raspbian/raspbian-tee/raspbian-tee/optee_os/lib/libmbedtls/mbedtls/library/bignum.c:339
    3064:	4288      	cmp	r0, r1
/media/wen/My_Passport/Raspbian/raspbian-tee/raspbian-tee/optee_os/lib/libmbedtls/mbedtls/library/bignum.c:334
    3066:	e92d 41f0 	stmdb	sp!, {r4, r5, r6, r7, r8, lr}
    306a:	4605      	mov	r5, r0
    306c:	460c      	mov	r4, r1
    306e:	4616      	mov	r6, r2
/media/wen/My_Passport/Raspbian/raspbian-tee/raspbian-tee/optee_os/lib/libmbedtls/mbedtls/library/bignum.c:339
    3070:	d102      	bne.n	3078 <mbedtls_mpi_safe_cond_swap+0x14>
/media/wen/My_Passport/Raspbian/raspbian-tee/raspbian-tee/optee_os/lib/libmbedtls/mbedtls/library/bignum.c:340
    3072:	2000      	movs	r0, #0
    3074:	e8bd 81f0 	ldmia.w	sp!, {r4, r5, r6, r7, r8, pc}
/media/wen/My_Passport/Raspbian/raspbian-tee/raspbian-tee/optee_os/lib/libmbedtls/mbedtls/library/bignum.c:345
    3078:	8889      	ldrh	r1, [r1, #4]
    307a:	f7ff febf 	bl	2dfc <mbedtls_mpi_grow>
    307e:	bb90      	cbnz	r0, 30e6 <mbedtls_mpi_safe_cond_swap+0x82>
/media/wen/My_Passport/Raspbian/raspbian-tee/raspbian-tee/optee_os/lib/libmbedtls/mbedtls/library/bignum.c:346
    3080:	88a9      	ldrh	r1, [r5, #4]
    3082:	4620      	mov	r0, r4
    3084:	f7ff feba 	bl	2dfc <mbedtls_mpi_grow>
    3088:	bb68      	cbnz	r0, 30e6 <mbedtls_mpi_safe_cond_swap+0x82>
/media/wen/My_Passport/Raspbian/raspbian-tee/raspbian-tee/optee_os/lib/libmbedtls/mbedtls/library/bignum.c:343
    308a:	4272      	negs	r2, r6
/media/wen/My_Passport/Raspbian/raspbian-tee/raspbian-tee/optee_os/lib/libmbedtls/mbedtls/library/bignum.c:349
    308c:	7829      	ldrb	r1, [r5, #0]
/media/wen/My_Passport/Raspbian/raspbian-tee/raspbian-tee/optee_os/lib/libmbedtls/mbedtls/library/bignum.c:343
    308e:	4332      	orrs	r2, r6
/media/wen/My_Passport/Raspbian/raspbian-tee/raspbian-tee/optee_os/lib/libmbedtls/mbedtls/library/bignum.c:349
    3090:	7827      	ldrb	r7, [r4, #0]
/media/wen/My_Passport/Raspbian/raspbian-tee/raspbian-tee/optee_os/lib/libmbedtls/mbedtls/library/bignum.c:343
    3092:	f3c2 12c0 	ubfx	r2, r2, #7, #1
/media/wen/My_Passport/Raspbian/raspbian-tee/raspbian-tee/optee_os/lib/libmbedtls/mbedtls/library/bignum.c:349
    3096:	f1c2 0601 	rsb	r6, r2, #1
    309a:	b2f3      	uxtb	r3, r6
    309c:	fb11 fe03 	smulbb	lr, r1, r3
    30a0:	fb07 e702 	mla	r7, r7, r2, lr
/media/wen/My_Passport/Raspbian/raspbian-tee/raspbian-tee/optee_os/lib/libmbedtls/mbedtls/library/bignum.c:350
    30a4:	fb12 f101 	smulbb	r1, r2, r1
/media/wen/My_Passport/Raspbian/raspbian-tee/raspbian-tee/optee_os/lib/libmbedtls/mbedtls/library/bignum.c:349
    30a8:	702f      	strb	r7, [r5, #0]
/media/wen/My_Passport/Raspbian/raspbian-tee/raspbian-tee/optee_os/lib/libmbedtls/mbedtls/library/bignum.c:350
    30aa:	7827      	ldrb	r7, [r4, #0]
    30ac:	fb07 1303 	mla	r3, r7, r3, r1
    30b0:	7023      	strb	r3, [r4, #0]
/media/wen/My_Passport/Raspbian/raspbian-tee/raspbian-tee/optee_os/lib/libmbedtls/mbedtls/library/bignum.c:353
    30b2:	f8b5 e004 	ldrh.w	lr, [r5, #4]
/media/wen/My_Passport/Raspbian/raspbian-tee/raspbian-tee/optee_os/lib/libmbedtls/mbedtls/library/bignum.c:353 (discriminator 1)
    30b6:	4570      	cmp	r0, lr
    30b8:	d2db      	bcs.n	3072 <mbedtls_mpi_safe_cond_swap+0xe>
/media/wen/My_Passport/Raspbian/raspbian-tee/raspbian-tee/optee_os/lib/libmbedtls/mbedtls/library/bignum.c:355 (discriminator 3)
    30ba:	f8d5 c008 	ldr.w	ip, [r5, #8]
/media/wen/My_Passport/Raspbian/raspbian-tee/raspbian-tee/optee_os/lib/libmbedtls/mbedtls/library/bignum.c:356 (discriminator 3)
    30be:	68a7      	ldr	r7, [r4, #8]
/media/wen/My_Passport/Raspbian/raspbian-tee/raspbian-tee/optee_os/lib/libmbedtls/mbedtls/library/bignum.c:355 (discriminator 3)
    30c0:	f85c 3020 	ldr.w	r3, [ip, r0, lsl #2]
/media/wen/My_Passport/Raspbian/raspbian-tee/raspbian-tee/optee_os/lib/libmbedtls/mbedtls/library/bignum.c:356 (discriminator 3)
    30c4:	f857 1020 	ldr.w	r1, [r7, r0, lsl #2]
    30c8:	fb06 f803 	mul.w	r8, r6, r3
    30cc:	fb01 8102 	mla	r1, r1, r2, r8
/media/wen/My_Passport/Raspbian/raspbian-tee/raspbian-tee/optee_os/lib/libmbedtls/mbedtls/library/bignum.c:357 (discriminator 3)
    30d0:	4353      	muls	r3, r2
/media/wen/My_Passport/Raspbian/raspbian-tee/raspbian-tee/optee_os/lib/libmbedtls/mbedtls/library/bignum.c:356 (discriminator 3)
    30d2:	f84c 1020 	str.w	r1, [ip, r0, lsl #2]
/media/wen/My_Passport/Raspbian/raspbian-tee/raspbian-tee/optee_os/lib/libmbedtls/mbedtls/library/bignum.c:357 (discriminator 3)
    30d6:	f857 1020 	ldr.w	r1, [r7, r0, lsl #2]
    30da:	fb01 3306 	mla	r3, r1, r6, r3
    30de:	f847 3020 	str.w	r3, [r7, r0, lsl #2]
/media/wen/My_Passport/Raspbian/raspbian-tee/raspbian-tee/optee_os/lib/libmbedtls/mbedtls/library/bignum.c:353 (discriminator 3)
    30e2:	3001      	adds	r0, #1
    30e4:	e7e7      	b.n	30b6 <mbedtls_mpi_safe_cond_swap+0x52>
/media/wen/My_Passport/Raspbian/raspbian-tee/raspbian-tee/optee_os/lib/libmbedtls/mbedtls/library/bignum.c:362
    30e6:	e8bd 81f0 	ldmia.w	sp!, {r4, r5, r6, r7, r8, pc}

000030ea <mbedtls_mpi_lset>:
mbedtls_mpi_lset():
/media/wen/My_Passport/Raspbian/raspbian-tee/raspbian-tee/optee_os/lib/libmbedtls/mbedtls/library/bignum.c:368
    30ea:	b570      	push	{r4, r5, r6, lr}
    30ec:	460e      	mov	r6, r1
/media/wen/My_Passport/Raspbian/raspbian-tee/raspbian-tee/optee_os/lib/libmbedtls/mbedtls/library/bignum.c:371
    30ee:	2101      	movs	r1, #1
/media/wen/My_Passport/Raspbian/raspbian-tee/raspbian-tee/optee_os/lib/libmbedtls/mbedtls/library/bignum.c:368
    30f0:	4604      	mov	r4, r0
/media/wen/My_Passport/Raspbian/raspbian-tee/raspbian-tee/optee_os/lib/libmbedtls/mbedtls/library/bignum.c:371
    30f2:	f7ff fe83 	bl	2dfc <mbedtls_mpi_grow>
    30f6:	4605      	mov	r5, r0
    30f8:	b988      	cbnz	r0, 311e <mbedtls_mpi_lset+0x34>
/media/wen/My_Passport/Raspbian/raspbian-tee/raspbian-tee/optee_os/lib/libmbedtls/mbedtls/library/bignum.c:372
    30fa:	88a2      	ldrh	r2, [r4, #4]
    30fc:	4601      	mov	r1, r0
    30fe:	68a0      	ldr	r0, [r4, #8]
    3100:	0092      	lsls	r2, r2, #2
    3102:	f002 fdfe 	bl	5d02 <memset>
/media/wen/My_Passport/Raspbian/raspbian-tee/raspbian-tee/optee_os/lib/libmbedtls/mbedtls/library/bignum.c:374
    3106:	68a3      	ldr	r3, [r4, #8]
    3108:	ea86 72e6 	eor.w	r2, r6, r6, asr #31
/media/wen/My_Passport/Raspbian/raspbian-tee/raspbian-tee/optee_os/lib/libmbedtls/mbedtls/library/bignum.c:375
    310c:	2e00      	cmp	r6, #0
/media/wen/My_Passport/Raspbian/raspbian-tee/raspbian-tee/optee_os/lib/libmbedtls/mbedtls/library/bignum.c:374
    310e:	eba2 72e6 	sub.w	r2, r2, r6, asr #31
    3112:	601a      	str	r2, [r3, #0]
/media/wen/My_Passport/Raspbian/raspbian-tee/raspbian-tee/optee_os/lib/libmbedtls/mbedtls/library/bignum.c:375
    3114:	f04f 33ff 	mov.w	r3, #4294967295
    3118:	bfa8      	it	ge
    311a:	2301      	movge	r3, #1
    311c:	7023      	strb	r3, [r4, #0]
/media/wen/My_Passport/Raspbian/raspbian-tee/raspbian-tee/optee_os/lib/libmbedtls/mbedtls/library/bignum.c:380
    311e:	4628      	mov	r0, r5
    3120:	bd70      	pop	{r4, r5, r6, pc}

00003122 <mbedtls_mpi_get_bit>:
mbedtls_mpi_get_bit():
/media/wen/My_Passport/Raspbian/raspbian-tee/raspbian-tee/optee_os/lib/libmbedtls/mbedtls/library/bignum.c:387
    3122:	8883      	ldrh	r3, [r0, #4]
    3124:	ebb1 1f43 	cmp.w	r1, r3, lsl #5
    3128:	d209      	bcs.n	313e <mbedtls_mpi_get_bit+0x1c>
/media/wen/My_Passport/Raspbian/raspbian-tee/raspbian-tee/optee_os/lib/libmbedtls/mbedtls/library/bignum.c:390
    312a:	6883      	ldr	r3, [r0, #8]
    312c:	094a      	lsrs	r2, r1, #5
    312e:	f001 011f 	and.w	r1, r1, #31
    3132:	f853 0022 	ldr.w	r0, [r3, r2, lsl #2]
    3136:	40c8      	lsrs	r0, r1
    3138:	f000 0001 	and.w	r0, r0, #1
    313c:	4770      	bx	lr
/media/wen/My_Passport/Raspbian/raspbian-tee/raspbian-tee/optee_os/lib/libmbedtls/mbedtls/library/bignum.c:388
    313e:	2000      	movs	r0, #0
/media/wen/My_Passport/Raspbian/raspbian-tee/raspbian-tee/optee_os/lib/libmbedtls/mbedtls/library/bignum.c:391
    3140:	4770      	bx	lr

00003142 <mbedtls_mpi_set_bit>:
mbedtls_mpi_set_bit():
/media/wen/My_Passport/Raspbian/raspbian-tee/raspbian-tee/optee_os/lib/libmbedtls/mbedtls/library/bignum.c:402
    3142:	2a01      	cmp	r2, #1
/media/wen/My_Passport/Raspbian/raspbian-tee/raspbian-tee/optee_os/lib/libmbedtls/mbedtls/library/bignum.c:397
    3144:	b5f8      	push	{r3, r4, r5, r6, r7, lr}
    3146:	4607      	mov	r7, r0
    3148:	460c      	mov	r4, r1
    314a:	4615      	mov	r5, r2
/media/wen/My_Passport/Raspbian/raspbian-tee/raspbian-tee/optee_os/lib/libmbedtls/mbedtls/library/bignum.c:399
    314c:	ea4f 1651 	mov.w	r6, r1, lsr #5
/media/wen/My_Passport/Raspbian/raspbian-tee/raspbian-tee/optee_os/lib/libmbedtls/mbedtls/library/bignum.c:402
    3150:	d81c      	bhi.n	318c <mbedtls_mpi_set_bit+0x4a>
/media/wen/My_Passport/Raspbian/raspbian-tee/raspbian-tee/optee_os/lib/libmbedtls/mbedtls/library/bignum.c:405
    3152:	8883      	ldrh	r3, [r0, #4]
    3154:	ebb1 1f43 	cmp.w	r1, r3, lsl #5
    3158:	d210      	bcs.n	317c <mbedtls_mpi_set_bit+0x3a>
/media/wen/My_Passport/Raspbian/raspbian-tee/raspbian-tee/optee_os/lib/libmbedtls/mbedtls/library/bignum.c:413
    315a:	68b9      	ldr	r1, [r7, #8]
/media/wen/My_Passport/Raspbian/raspbian-tee/raspbian-tee/optee_os/lib/libmbedtls/mbedtls/library/bignum.c:400
    315c:	f004 041f 	and.w	r4, r4, #31
/media/wen/My_Passport/Raspbian/raspbian-tee/raspbian-tee/optee_os/lib/libmbedtls/mbedtls/library/bignum.c:413
    3160:	2301      	movs	r3, #1
    3162:	fa03 f204 	lsl.w	r2, r3, r4
    3166:	f851 3026 	ldr.w	r3, [r1, r6, lsl #2]
/media/wen/My_Passport/Raspbian/raspbian-tee/raspbian-tee/optee_os/lib/libmbedtls/mbedtls/library/bignum.c:414
    316a:	fa05 f404 	lsl.w	r4, r5, r4
/media/wen/My_Passport/Raspbian/raspbian-tee/raspbian-tee/optee_os/lib/libmbedtls/mbedtls/library/bignum.c:413
    316e:	ea23 0302 	bic.w	r3, r3, r2
/media/wen/My_Passport/Raspbian/raspbian-tee/raspbian-tee/optee_os/lib/libmbedtls/mbedtls/library/bignum.c:414
    3172:	431c      	orrs	r4, r3
    3174:	f841 4026 	str.w	r4, [r1, r6, lsl #2]
    3178:	2000      	movs	r0, #0
    317a:	bdf8      	pop	{r3, r4, r5, r6, r7, pc}
/media/wen/My_Passport/Raspbian/raspbian-tee/raspbian-tee/optee_os/lib/libmbedtls/mbedtls/library/bignum.c:407
    317c:	2a00      	cmp	r2, #0
    317e:	d0fb      	beq.n	3178 <mbedtls_mpi_set_bit+0x36>
/media/wen/My_Passport/Raspbian/raspbian-tee/raspbian-tee/optee_os/lib/libmbedtls/mbedtls/library/bignum.c:410
    3180:	1c71      	adds	r1, r6, #1
    3182:	f7ff fe3b 	bl	2dfc <mbedtls_mpi_grow>
    3186:	2800      	cmp	r0, #0
    3188:	d0e7      	beq.n	315a <mbedtls_mpi_set_bit+0x18>
    318a:	bdf8      	pop	{r3, r4, r5, r6, r7, pc}
/media/wen/My_Passport/Raspbian/raspbian-tee/raspbian-tee/optee_os/lib/libmbedtls/mbedtls/library/bignum.c:403
    318c:	f06f 0003 	mvn.w	r0, #3
    3190:	bdf8      	pop	{r3, r4, r5, r6, r7, pc}

00003192 <mbedtls_mpi_lsb>:
mbedtls_mpi_lsb():
/media/wen/My_Passport/Raspbian/raspbian-tee/raspbian-tee/optee_os/lib/libmbedtls/mbedtls/library/bignum.c:425
    3192:	b570      	push	{r4, r5, r6, lr}
/media/wen/My_Passport/Raspbian/raspbian-tee/raspbian-tee/optee_os/lib/libmbedtls/mbedtls/library/bignum.c:426
    3194:	2300      	movs	r3, #0
/media/wen/My_Passport/Raspbian/raspbian-tee/raspbian-tee/optee_os/lib/libmbedtls/mbedtls/library/bignum.c:428
    3196:	8885      	ldrh	r5, [r0, #4]
    3198:	4619      	mov	r1, r3
/media/wen/My_Passport/Raspbian/raspbian-tee/raspbian-tee/optee_os/lib/libmbedtls/mbedtls/library/bignum.c:428 (discriminator 1)
    319a:	42a9      	cmp	r1, r5
    319c:	d20d      	bcs.n	31ba <mbedtls_mpi_lsb+0x28>
/media/wen/My_Passport/Raspbian/raspbian-tee/raspbian-tee/optee_os/lib/libmbedtls/mbedtls/library/bignum.c:430
    319e:	6882      	ldr	r2, [r0, #8]
    31a0:	f852 4021 	ldr.w	r4, [r2, r1, lsl #2]
    31a4:	2200      	movs	r2, #0
    31a6:	fa24 f602 	lsr.w	r6, r4, r2
    31aa:	07f6      	lsls	r6, r6, #31
    31ac:	d406      	bmi.n	31bc <mbedtls_mpi_lsb+0x2a>
/media/wen/My_Passport/Raspbian/raspbian-tee/raspbian-tee/optee_os/lib/libmbedtls/mbedtls/library/bignum.c:429 (discriminator 2)
    31ae:	3201      	adds	r2, #1
    31b0:	3301      	adds	r3, #1
    31b2:	2a20      	cmp	r2, #32
    31b4:	d1f7      	bne.n	31a6 <mbedtls_mpi_lsb+0x14>
/media/wen/My_Passport/Raspbian/raspbian-tee/raspbian-tee/optee_os/lib/libmbedtls/mbedtls/library/bignum.c:428 (discriminator 2)
    31b6:	3101      	adds	r1, #1
    31b8:	e7ef      	b.n	319a <mbedtls_mpi_lsb+0x8>
/media/wen/My_Passport/Raspbian/raspbian-tee/raspbian-tee/optee_os/lib/libmbedtls/mbedtls/library/bignum.c:433
    31ba:	2300      	movs	r3, #0
/media/wen/My_Passport/Raspbian/raspbian-tee/raspbian-tee/optee_os/lib/libmbedtls/mbedtls/library/bignum.c:434
    31bc:	4618      	mov	r0, r3
    31be:	bd70      	pop	{r4, r5, r6, pc}

000031c0 <mbedtls_mpi_bitlen>:
mbedtls_mpi_bitlen():
/media/wen/My_Passport/Raspbian/raspbian-tee/raspbian-tee/optee_os/lib/libmbedtls/mbedtls/library/bignum.c:461
    31c0:	8883      	ldrh	r3, [r0, #4]
/media/wen/My_Passport/Raspbian/raspbian-tee/raspbian-tee/optee_os/lib/libmbedtls/mbedtls/library/bignum.c:458
    31c2:	b530      	push	{r4, r5, lr}
/media/wen/My_Passport/Raspbian/raspbian-tee/raspbian-tee/optee_os/lib/libmbedtls/mbedtls/library/bignum.c:461
    31c4:	b1e3      	cbz	r3, 3200 <mbedtls_mpi_bitlen+0x40>
/media/wen/My_Passport/Raspbian/raspbian-tee/raspbian-tee/optee_os/lib/libmbedtls/mbedtls/library/bignum.c:464
    31c6:	1e5a      	subs	r2, r3, #1
    31c8:	0092      	lsls	r2, r2, #2
/media/wen/My_Passport/Raspbian/raspbian-tee/raspbian-tee/optee_os/lib/libmbedtls/mbedtls/library/bignum.c:464 (discriminator 1)
    31ca:	2b01      	cmp	r3, #1
    31cc:	f103 31ff 	add.w	r1, r3, #4294967295
    31d0:	6884      	ldr	r4, [r0, #8]
    31d2:	d101      	bne.n	31d8 <mbedtls_mpi_bitlen+0x18>
    31d4:	2100      	movs	r1, #0
    31d6:	e004      	b.n	31e2 <mbedtls_mpi_bitlen+0x22>
/media/wen/My_Passport/Raspbian/raspbian-tee/raspbian-tee/optee_os/lib/libmbedtls/mbedtls/library/bignum.c:465
    31d8:	58a5      	ldr	r5, [r4, r2]
    31da:	460b      	mov	r3, r1
    31dc:	3a04      	subs	r2, #4
    31de:	2d00      	cmp	r5, #0
    31e0:	d0f3      	beq.n	31ca <mbedtls_mpi_bitlen+0xa>
/media/wen/My_Passport/Raspbian/raspbian-tee/raspbian-tee/optee_os/lib/libmbedtls/mbedtls/library/bignum.c:468
    31e2:	f854 2021 	ldr.w	r2, [r4, r1, lsl #2]
mbedtls_clz():
/media/wen/My_Passport/Raspbian/raspbian-tee/raspbian-tee/optee_os/lib/libmbedtls/mbedtls/library/bignum.c:444
    31e6:	2000      	movs	r0, #0
/media/wen/My_Passport/Raspbian/raspbian-tee/raspbian-tee/optee_os/lib/libmbedtls/mbedtls/library/bignum.c:442
    31e8:	f04f 4300 	mov.w	r3, #2147483648	; 0x80000000
/media/wen/My_Passport/Raspbian/raspbian-tee/raspbian-tee/optee_os/lib/libmbedtls/mbedtls/library/bignum.c:446
    31ec:	421a      	tst	r2, r3
    31ee:	d103      	bne.n	31f8 <mbedtls_mpi_bitlen+0x38>
/media/wen/My_Passport/Raspbian/raspbian-tee/raspbian-tee/optee_os/lib/libmbedtls/mbedtls/library/bignum.c:444
    31f0:	3001      	adds	r0, #1
/media/wen/My_Passport/Raspbian/raspbian-tee/raspbian-tee/optee_os/lib/libmbedtls/mbedtls/library/bignum.c:448
    31f2:	085b      	lsrs	r3, r3, #1
/media/wen/My_Passport/Raspbian/raspbian-tee/raspbian-tee/optee_os/lib/libmbedtls/mbedtls/library/bignum.c:444
    31f4:	2820      	cmp	r0, #32
    31f6:	d1f9      	bne.n	31ec <mbedtls_mpi_bitlen+0x2c>
mbedtls_mpi_bitlen():
/media/wen/My_Passport/Raspbian/raspbian-tee/raspbian-tee/optee_os/lib/libmbedtls/mbedtls/library/bignum.c:470
    31f8:	ebc0 1041 	rsb	r0, r0, r1, lsl #5
    31fc:	3020      	adds	r0, #32
    31fe:	bd30      	pop	{r4, r5, pc}
/media/wen/My_Passport/Raspbian/raspbian-tee/raspbian-tee/optee_os/lib/libmbedtls/mbedtls/library/bignum.c:462
    3200:	4618      	mov	r0, r3
/media/wen/My_Passport/Raspbian/raspbian-tee/raspbian-tee/optee_os/lib/libmbedtls/mbedtls/library/bignum.c:471
    3202:	bd30      	pop	{r4, r5, pc}

00003204 <mbedtls_mpi_size>:
mbedtls_mpi_size():
/media/wen/My_Passport/Raspbian/raspbian-tee/raspbian-tee/optee_os/lib/libmbedtls/mbedtls/library/bignum.c:477
    3204:	b508      	push	{r3, lr}
/media/wen/My_Passport/Raspbian/raspbian-tee/raspbian-tee/optee_os/lib/libmbedtls/mbedtls/library/bignum.c:478
    3206:	f7ff ffdb 	bl	31c0 <mbedtls_mpi_bitlen>
    320a:	3007      	adds	r0, #7
/media/wen/My_Passport/Raspbian/raspbian-tee/raspbian-tee/optee_os/lib/libmbedtls/mbedtls/library/bignum.c:479
    320c:	08c0      	lsrs	r0, r0, #3
    320e:	bd08      	pop	{r3, pc}

00003210 <mbedtls_mpi_read_binary>:
mbedtls_mpi_read_binary():
/media/wen/My_Passport/Raspbian/raspbian-tee/raspbian-tee/optee_os/lib/libmbedtls/mbedtls/library/bignum.c:750
    3210:	b5f8      	push	{r3, r4, r5, r6, r7, lr}
    3212:	4606      	mov	r6, r0
    3214:	460f      	mov	r7, r1
    3216:	4615      	mov	r5, r2
/media/wen/My_Passport/Raspbian/raspbian-tee/raspbian-tee/optee_os/lib/libmbedtls/mbedtls/library/bignum.c:754
    3218:	2400      	movs	r4, #0
/media/wen/My_Passport/Raspbian/raspbian-tee/raspbian-tee/optee_os/lib/libmbedtls/mbedtls/library/bignum.c:754 (discriminator 1)
    321a:	42ac      	cmp	r4, r5
    321c:	d001      	beq.n	3222 <mbedtls_mpi_read_binary+0x12>
/media/wen/My_Passport/Raspbian/raspbian-tee/raspbian-tee/optee_os/lib/libmbedtls/mbedtls/library/bignum.c:755
    321e:	5d3b      	ldrb	r3, [r7, r4]
    3220:	b1b3      	cbz	r3, 3250 <mbedtls_mpi_read_binary+0x40>
/media/wen/My_Passport/Raspbian/raspbian-tee/raspbian-tee/optee_os/lib/libmbedtls/mbedtls/library/bignum.c:758
    3222:	1b29      	subs	r1, r5, r4
    3224:	4630      	mov	r0, r6
    3226:	f011 0303 	ands.w	r3, r1, #3
    322a:	bf18      	it	ne
    322c:	2301      	movne	r3, #1
    322e:	eb03 0191 	add.w	r1, r3, r1, lsr #2
    3232:	f7ff fde3 	bl	2dfc <mbedtls_mpi_grow>
    3236:	b950      	cbnz	r0, 324e <mbedtls_mpi_read_binary+0x3e>
/media/wen/My_Passport/Raspbian/raspbian-tee/raspbian-tee/optee_os/lib/libmbedtls/mbedtls/library/bignum.c:759
    3238:	4601      	mov	r1, r0
    323a:	4630      	mov	r0, r6
    323c:	f7ff ff55 	bl	30ea <mbedtls_mpi_lset>
    3240:	b928      	cbnz	r0, 324e <mbedtls_mpi_read_binary+0x3e>
    3242:	eb07 0c05 	add.w	ip, r7, r5
    3246:	4603      	mov	r3, r0
/media/wen/My_Passport/Raspbian/raspbian-tee/raspbian-tee/optee_os/lib/libmbedtls/mbedtls/library/bignum.c:761 (discriminator 1)
    3248:	1aea      	subs	r2, r5, r3
    324a:	4294      	cmp	r4, r2
    324c:	d302      	bcc.n	3254 <mbedtls_mpi_read_binary+0x44>
/media/wen/My_Passport/Raspbian/raspbian-tee/raspbian-tee/optee_os/lib/libmbedtls/mbedtls/library/bignum.c:767
    324e:	bdf8      	pop	{r3, r4, r5, r6, r7, pc}
/media/wen/My_Passport/Raspbian/raspbian-tee/raspbian-tee/optee_os/lib/libmbedtls/mbedtls/library/bignum.c:754 (discriminator 2)
    3250:	3401      	adds	r4, #1
    3252:	e7e2      	b.n	321a <mbedtls_mpi_read_binary+0xa>
/media/wen/My_Passport/Raspbian/raspbian-tee/raspbian-tee/optee_os/lib/libmbedtls/mbedtls/library/bignum.c:762 (discriminator 3)
    3254:	68b1      	ldr	r1, [r6, #8]
    3256:	00df      	lsls	r7, r3, #3
    3258:	f023 0e03 	bic.w	lr, r3, #3
    325c:	f81c 2d01 	ldrb.w	r2, [ip, #-1]!
    3260:	f007 0718 	and.w	r7, r7, #24
/media/wen/My_Passport/Raspbian/raspbian-tee/raspbian-tee/optee_os/lib/libmbedtls/mbedtls/library/bignum.c:761 (discriminator 3)
    3264:	3301      	adds	r3, #1
/media/wen/My_Passport/Raspbian/raspbian-tee/raspbian-tee/optee_os/lib/libmbedtls/mbedtls/library/bignum.c:762 (discriminator 3)
    3266:	fa02 f707 	lsl.w	r7, r2, r7
    326a:	f851 200e 	ldr.w	r2, [r1, lr]
    326e:	433a      	orrs	r2, r7
    3270:	f841 200e 	str.w	r2, [r1, lr]
    3274:	e7e8      	b.n	3248 <mbedtls_mpi_read_binary+0x38>

00003276 <mbedtls_mpi_write_binary>:
mbedtls_mpi_write_binary():
/media/wen/My_Passport/Raspbian/raspbian-tee/raspbian-tee/optee_os/lib/libmbedtls/mbedtls/library/bignum.c:773
    3276:	b5f8      	push	{r3, r4, r5, r6, r7, lr}
    3278:	4617      	mov	r7, r2
    327a:	4605      	mov	r5, r0
    327c:	460c      	mov	r4, r1
/media/wen/My_Passport/Raspbian/raspbian-tee/raspbian-tee/optee_os/lib/libmbedtls/mbedtls/library/bignum.c:776
    327e:	f7ff ffc1 	bl	3204 <mbedtls_mpi_size>
/media/wen/My_Passport/Raspbian/raspbian-tee/raspbian-tee/optee_os/lib/libmbedtls/mbedtls/library/bignum.c:778
    3282:	42b8      	cmp	r0, r7
/media/wen/My_Passport/Raspbian/raspbian-tee/raspbian-tee/optee_os/lib/libmbedtls/mbedtls/library/bignum.c:776
    3284:	4606      	mov	r6, r0
/media/wen/My_Passport/Raspbian/raspbian-tee/raspbian-tee/optee_os/lib/libmbedtls/mbedtls/library/bignum.c:778
    3286:	d816      	bhi.n	32b6 <mbedtls_mpi_write_binary+0x40>
/media/wen/My_Passport/Raspbian/raspbian-tee/raspbian-tee/optee_os/lib/libmbedtls/mbedtls/library/bignum.c:781
    3288:	4620      	mov	r0, r4
    328a:	463a      	mov	r2, r7
    328c:	2100      	movs	r1, #0
    328e:	443c      	add	r4, r7
    3290:	f002 fd37 	bl	5d02 <memset>
/media/wen/My_Passport/Raspbian/raspbian-tee/raspbian-tee/optee_os/lib/libmbedtls/mbedtls/library/bignum.c:783
    3294:	2300      	movs	r3, #0
/media/wen/My_Passport/Raspbian/raspbian-tee/raspbian-tee/optee_os/lib/libmbedtls/mbedtls/library/bignum.c:783 (discriminator 1)
    3296:	42b3      	cmp	r3, r6
    3298:	d101      	bne.n	329e <mbedtls_mpi_write_binary+0x28>
/media/wen/My_Passport/Raspbian/raspbian-tee/raspbian-tee/optee_os/lib/libmbedtls/mbedtls/library/bignum.c:786
    329a:	2000      	movs	r0, #0
    329c:	bdf8      	pop	{r3, r4, r5, r6, r7, pc}
/media/wen/My_Passport/Raspbian/raspbian-tee/raspbian-tee/optee_os/lib/libmbedtls/mbedtls/library/bignum.c:784 (discriminator 3)
    329e:	68af      	ldr	r7, [r5, #8]
    32a0:	f023 0003 	bic.w	r0, r3, #3
    32a4:	00da      	lsls	r2, r3, #3
/media/wen/My_Passport/Raspbian/raspbian-tee/raspbian-tee/optee_os/lib/libmbedtls/mbedtls/library/bignum.c:783 (discriminator 3)
    32a6:	3301      	adds	r3, #1
/media/wen/My_Passport/Raspbian/raspbian-tee/raspbian-tee/optee_os/lib/libmbedtls/mbedtls/library/bignum.c:784 (discriminator 3)
    32a8:	f002 0118 	and.w	r1, r2, #24
    32ac:	583a      	ldr	r2, [r7, r0]
    32ae:	40ca      	lsrs	r2, r1
    32b0:	f804 2d01 	strb.w	r2, [r4, #-1]!
    32b4:	e7ef      	b.n	3296 <mbedtls_mpi_write_binary+0x20>
/media/wen/My_Passport/Raspbian/raspbian-tee/raspbian-tee/optee_os/lib/libmbedtls/mbedtls/library/bignum.c:779
    32b6:	f06f 0007 	mvn.w	r0, #7
/media/wen/My_Passport/Raspbian/raspbian-tee/raspbian-tee/optee_os/lib/libmbedtls/mbedtls/library/bignum.c:787
    32ba:	bdf8      	pop	{r3, r4, r5, r6, r7, pc}

000032bc <mbedtls_mpi_shift_l>:
mbedtls_mpi_shift_l():
/media/wen/My_Passport/Raspbian/raspbian-tee/raspbian-tee/optee_os/lib/libmbedtls/mbedtls/library/bignum.c:793
    32bc:	b5f8      	push	{r3, r4, r5, r6, r7, lr}
    32be:	4606      	mov	r6, r0
    32c0:	460c      	mov	r4, r1
/media/wen/My_Passport/Raspbian/raspbian-tee/raspbian-tee/optee_os/lib/libmbedtls/mbedtls/library/bignum.c:798
    32c2:	094d      	lsrs	r5, r1, #5
/media/wen/My_Passport/Raspbian/raspbian-tee/raspbian-tee/optee_os/lib/libmbedtls/mbedtls/library/bignum.c:799
    32c4:	f001 071f 	and.w	r7, r1, #31
/media/wen/My_Passport/Raspbian/raspbian-tee/raspbian-tee/optee_os/lib/libmbedtls/mbedtls/library/bignum.c:801
    32c8:	f7ff ff7a 	bl	31c0 <mbedtls_mpi_bitlen>
/media/wen/My_Passport/Raspbian/raspbian-tee/raspbian-tee/optee_os/lib/libmbedtls/mbedtls/library/bignum.c:803
    32cc:	88b3      	ldrh	r3, [r6, #4]
/media/wen/My_Passport/Raspbian/raspbian-tee/raspbian-tee/optee_os/lib/libmbedtls/mbedtls/library/bignum.c:801
    32ce:	4420      	add	r0, r4
/media/wen/My_Passport/Raspbian/raspbian-tee/raspbian-tee/optee_os/lib/libmbedtls/mbedtls/library/bignum.c:803
    32d0:	ebb0 1f43 	cmp.w	r0, r3, lsl #5
    32d4:	d803      	bhi.n	32de <mbedtls_mpi_shift_l+0x22>
/media/wen/My_Passport/Raspbian/raspbian-tee/raspbian-tee/optee_os/lib/libmbedtls/mbedtls/library/bignum.c:811
    32d6:	b975      	cbnz	r5, 32f6 <mbedtls_mpi_shift_l+0x3a>
/media/wen/My_Passport/Raspbian/raspbian-tee/raspbian-tee/optee_os/lib/libmbedtls/mbedtls/library/bignum.c:823
    32d8:	bb4f      	cbnz	r7, 332e <mbedtls_mpi_shift_l+0x72>
/media/wen/My_Passport/Raspbian/raspbian-tee/raspbian-tee/optee_os/lib/libmbedtls/mbedtls/library/bignum.c:806
    32da:	2000      	movs	r0, #0
    32dc:	bdf8      	pop	{r3, r4, r5, r6, r7, pc}
/media/wen/My_Passport/Raspbian/raspbian-tee/raspbian-tee/optee_os/lib/libmbedtls/mbedtls/library/bignum.c:804
    32de:	f010 011f 	ands.w	r1, r0, #31
    32e2:	bf18      	it	ne
    32e4:	2101      	movne	r1, #1
    32e6:	eb01 1150 	add.w	r1, r1, r0, lsr #5
    32ea:	4630      	mov	r0, r6
    32ec:	f7ff fd86 	bl	2dfc <mbedtls_mpi_grow>
    32f0:	2800      	cmp	r0, #0
    32f2:	d0f0      	beq.n	32d6 <mbedtls_mpi_shift_l+0x1a>
    32f4:	bdf8      	pop	{r3, r4, r5, r6, r7, pc}
/media/wen/My_Passport/Raspbian/raspbian-tee/raspbian-tee/optee_os/lib/libmbedtls/mbedtls/library/bignum.c:813
    32f6:	88b3      	ldrh	r3, [r6, #4]
    32f8:	f06f 0103 	mvn.w	r1, #3
    32fc:	f103 4280 	add.w	r2, r3, #1073741824	; 0x40000000
    3300:	3a01      	subs	r2, #1
    3302:	4369      	muls	r1, r5
    3304:	0092      	lsls	r2, r2, #2
/media/wen/My_Passport/Raspbian/raspbian-tee/raspbian-tee/optee_os/lib/libmbedtls/mbedtls/library/bignum.c:813 (discriminator 1)
    3306:	42ab      	cmp	r3, r5
    3308:	d80a      	bhi.n	3320 <mbedtls_mpi_shift_l+0x64>
    330a:	f103 4380 	add.w	r3, r3, #1073741824	; 0x40000000
/media/wen/My_Passport/Raspbian/raspbian-tee/raspbian-tee/optee_os/lib/libmbedtls/mbedtls/library/bignum.c:817
    330e:	2200      	movs	r2, #0
    3310:	3b01      	subs	r3, #1
    3312:	009b      	lsls	r3, r3, #2
/media/wen/My_Passport/Raspbian/raspbian-tee/raspbian-tee/optee_os/lib/libmbedtls/mbedtls/library/bignum.c:816 (discriminator 1)
    3314:	1d19      	adds	r1, r3, #4
    3316:	d0df      	beq.n	32d8 <mbedtls_mpi_shift_l+0x1c>
/media/wen/My_Passport/Raspbian/raspbian-tee/raspbian-tee/optee_os/lib/libmbedtls/mbedtls/library/bignum.c:817 (discriminator 2)
    3318:	68b1      	ldr	r1, [r6, #8]
    331a:	50ca      	str	r2, [r1, r3]
    331c:	3b04      	subs	r3, #4
    331e:	e7f9      	b.n	3314 <mbedtls_mpi_shift_l+0x58>
/media/wen/My_Passport/Raspbian/raspbian-tee/raspbian-tee/optee_os/lib/libmbedtls/mbedtls/library/bignum.c:814 (discriminator 3)
    3320:	68b0      	ldr	r0, [r6, #8]
/media/wen/My_Passport/Raspbian/raspbian-tee/raspbian-tee/optee_os/lib/libmbedtls/mbedtls/library/bignum.c:813 (discriminator 3)
    3322:	3b01      	subs	r3, #1
/media/wen/My_Passport/Raspbian/raspbian-tee/raspbian-tee/optee_os/lib/libmbedtls/mbedtls/library/bignum.c:814 (discriminator 3)
    3324:	1884      	adds	r4, r0, r2
    3326:	5864      	ldr	r4, [r4, r1]
    3328:	5084      	str	r4, [r0, r2]
    332a:	3a04      	subs	r2, #4
    332c:	e7eb      	b.n	3306 <mbedtls_mpi_shift_l+0x4a>
/media/wen/My_Passport/Raspbian/raspbian-tee/raspbian-tee/optee_os/lib/libmbedtls/mbedtls/library/bignum.c:825
    332e:	f8b6 e004 	ldrh.w	lr, [r6, #4]
    3332:	00ab      	lsls	r3, r5, #2
    3334:	2100      	movs	r1, #0
/media/wen/My_Passport/Raspbian/raspbian-tee/raspbian-tee/optee_os/lib/libmbedtls/mbedtls/library/bignum.c:827
    3336:	f1c7 0c20 	rsb	ip, r7, #32
/media/wen/My_Passport/Raspbian/raspbian-tee/raspbian-tee/optee_os/lib/libmbedtls/mbedtls/library/bignum.c:825 (discriminator 1)
    333a:	4575      	cmp	r5, lr
    333c:	d2cd      	bcs.n	32da <mbedtls_mpi_shift_l+0x1e>
/media/wen/My_Passport/Raspbian/raspbian-tee/raspbian-tee/optee_os/lib/libmbedtls/mbedtls/library/bignum.c:827 (discriminator 3)
    333e:	68b4      	ldr	r4, [r6, #8]
/media/wen/My_Passport/Raspbian/raspbian-tee/raspbian-tee/optee_os/lib/libmbedtls/mbedtls/library/bignum.c:825 (discriminator 3)
    3340:	3501      	adds	r5, #1
/media/wen/My_Passport/Raspbian/raspbian-tee/raspbian-tee/optee_os/lib/libmbedtls/mbedtls/library/bignum.c:827 (discriminator 3)
    3342:	58e0      	ldr	r0, [r4, r3]
/media/wen/My_Passport/Raspbian/raspbian-tee/raspbian-tee/optee_os/lib/libmbedtls/mbedtls/library/bignum.c:828 (discriminator 3)
    3344:	fa00 f207 	lsl.w	r2, r0, r7
/media/wen/My_Passport/Raspbian/raspbian-tee/raspbian-tee/optee_os/lib/libmbedtls/mbedtls/library/bignum.c:829 (discriminator 3)
    3348:	430a      	orrs	r2, r1
/media/wen/My_Passport/Raspbian/raspbian-tee/raspbian-tee/optee_os/lib/libmbedtls/mbedtls/library/bignum.c:827 (discriminator 3)
    334a:	fa20 f10c 	lsr.w	r1, r0, ip
/media/wen/My_Passport/Raspbian/raspbian-tee/raspbian-tee/optee_os/lib/libmbedtls/mbedtls/library/bignum.c:829 (discriminator 3)
    334e:	50e2      	str	r2, [r4, r3]
    3350:	3304      	adds	r3, #4
    3352:	e7f2      	b.n	333a <mbedtls_mpi_shift_l+0x7e>

00003354 <mbedtls_mpi_shift_r>:
mbedtls_mpi_shift_r():
/media/wen/My_Passport/Raspbian/raspbian-tee/raspbian-tee/optee_os/lib/libmbedtls/mbedtls/library/bignum.c:850
    3354:	8882      	ldrh	r2, [r0, #4]
/media/wen/My_Passport/Raspbian/raspbian-tee/raspbian-tee/optee_os/lib/libmbedtls/mbedtls/library/bignum.c:843
    3356:	b5f0      	push	{r4, r5, r6, r7, lr}
/media/wen/My_Passport/Raspbian/raspbian-tee/raspbian-tee/optee_os/lib/libmbedtls/mbedtls/library/bignum.c:847
    3358:	094c      	lsrs	r4, r1, #5
/media/wen/My_Passport/Raspbian/raspbian-tee/raspbian-tee/optee_os/lib/libmbedtls/mbedtls/library/bignum.c:850
    335a:	4294      	cmp	r4, r2
/media/wen/My_Passport/Raspbian/raspbian-tee/raspbian-tee/optee_os/lib/libmbedtls/mbedtls/library/bignum.c:848
    335c:	f001 011f 	and.w	r1, r1, #31
/media/wen/My_Passport/Raspbian/raspbian-tee/raspbian-tee/optee_os/lib/libmbedtls/mbedtls/library/bignum.c:850
    3360:	d801      	bhi.n	3366 <mbedtls_mpi_shift_r+0x12>
/media/wen/My_Passport/Raspbian/raspbian-tee/raspbian-tee/optee_os/lib/libmbedtls/mbedtls/library/bignum.c:850 (discriminator 1)
    3362:	d105      	bne.n	3370 <mbedtls_mpi_shift_r+0x1c>
/media/wen/My_Passport/Raspbian/raspbian-tee/raspbian-tee/optee_os/lib/libmbedtls/mbedtls/library/bignum.c:850 (discriminator 2)
    3364:	b371      	cbz	r1, 33c4 <mbedtls_mpi_shift_r+0x70>
/media/wen/My_Passport/Raspbian/raspbian-tee/raspbian-tee/optee_os/lib/libmbedtls/mbedtls/library/bignum.c:851
    3366:	2100      	movs	r1, #0
/media/wen/My_Passport/Raspbian/raspbian-tee/raspbian-tee/optee_os/lib/libmbedtls/mbedtls/library/bignum.c:880
    3368:	e8bd 40f0 	ldmia.w	sp!, {r4, r5, r6, r7, lr}
/media/wen/My_Passport/Raspbian/raspbian-tee/raspbian-tee/optee_os/lib/libmbedtls/mbedtls/library/bignum.c:851
    336c:	f7ff bebd 	b.w	30ea <mbedtls_mpi_lset>
/media/wen/My_Passport/Raspbian/raspbian-tee/raspbian-tee/optee_os/lib/libmbedtls/mbedtls/library/bignum.c:856
    3370:	bb54      	cbnz	r4, 33c8 <mbedtls_mpi_shift_r+0x74>
/media/wen/My_Passport/Raspbian/raspbian-tee/raspbian-tee/optee_os/lib/libmbedtls/mbedtls/library/bignum.c:868
    3372:	b139      	cbz	r1, 3384 <mbedtls_mpi_shift_r+0x30>
    3374:	f102 4380 	add.w	r3, r2, #1073741824	; 0x40000000
/media/wen/My_Passport/Raspbian/raspbian-tee/raspbian-tee/optee_os/lib/libmbedtls/mbedtls/library/bignum.c:868 (discriminator 1)
    3378:	2500      	movs	r5, #0
    337a:	3b01      	subs	r3, #1
/media/wen/My_Passport/Raspbian/raspbian-tee/raspbian-tee/optee_os/lib/libmbedtls/mbedtls/library/bignum.c:872 (discriminator 1)
    337c:	f1c1 0e20 	rsb	lr, r1, #32
    3380:	009b      	lsls	r3, r3, #2
/media/wen/My_Passport/Raspbian/raspbian-tee/raspbian-tee/optee_os/lib/libmbedtls/mbedtls/library/bignum.c:870 (discriminator 1)
    3382:	b9a2      	cbnz	r2, 33ae <mbedtls_mpi_shift_r+0x5a>
/media/wen/My_Passport/Raspbian/raspbian-tee/raspbian-tee/optee_os/lib/libmbedtls/mbedtls/library/bignum.c:880
    3384:	2000      	movs	r0, #0
    3386:	bdf0      	pop	{r4, r5, r6, r7, pc}
/media/wen/My_Passport/Raspbian/raspbian-tee/raspbian-tee/optee_os/lib/libmbedtls/mbedtls/library/bignum.c:859 (discriminator 3)
    3388:	6885      	ldr	r5, [r0, #8]
    338a:	191e      	adds	r6, r3, r4
    338c:	f855 6026 	ldr.w	r6, [r5, r6, lsl #2]
    3390:	f845 6023 	str.w	r6, [r5, r3, lsl #2]
/media/wen/My_Passport/Raspbian/raspbian-tee/raspbian-tee/optee_os/lib/libmbedtls/mbedtls/library/bignum.c:858 (discriminator 3)
    3394:	3301      	adds	r3, #1
/media/wen/My_Passport/Raspbian/raspbian-tee/raspbian-tee/optee_os/lib/libmbedtls/mbedtls/library/bignum.c:858 (discriminator 1)
    3396:	1b15      	subs	r5, r2, r4
    3398:	42ab      	cmp	r3, r5
    339a:	d3f5      	bcc.n	3388 <mbedtls_mpi_shift_r+0x34>
    339c:	00ab      	lsls	r3, r5, #2
/media/wen/My_Passport/Raspbian/raspbian-tee/raspbian-tee/optee_os/lib/libmbedtls/mbedtls/library/bignum.c:862
    339e:	2400      	movs	r4, #0
/media/wen/My_Passport/Raspbian/raspbian-tee/raspbian-tee/optee_os/lib/libmbedtls/mbedtls/library/bignum.c:861 (discriminator 1)
    33a0:	4295      	cmp	r5, r2
    33a2:	d2e6      	bcs.n	3372 <mbedtls_mpi_shift_r+0x1e>
/media/wen/My_Passport/Raspbian/raspbian-tee/raspbian-tee/optee_os/lib/libmbedtls/mbedtls/library/bignum.c:862 (discriminator 2)
    33a4:	6886      	ldr	r6, [r0, #8]
/media/wen/My_Passport/Raspbian/raspbian-tee/raspbian-tee/optee_os/lib/libmbedtls/mbedtls/library/bignum.c:861 (discriminator 2)
    33a6:	3501      	adds	r5, #1
/media/wen/My_Passport/Raspbian/raspbian-tee/raspbian-tee/optee_os/lib/libmbedtls/mbedtls/library/bignum.c:862 (discriminator 2)
    33a8:	50f4      	str	r4, [r6, r3]
    33aa:	3304      	adds	r3, #4
    33ac:	e7f8      	b.n	33a0 <mbedtls_mpi_shift_r+0x4c>
/media/wen/My_Passport/Raspbian/raspbian-tee/raspbian-tee/optee_os/lib/libmbedtls/mbedtls/library/bignum.c:872 (discriminator 3)
    33ae:	6887      	ldr	r7, [r0, #8]
/media/wen/My_Passport/Raspbian/raspbian-tee/raspbian-tee/optee_os/lib/libmbedtls/mbedtls/library/bignum.c:870 (discriminator 3)
    33b0:	3a01      	subs	r2, #1
/media/wen/My_Passport/Raspbian/raspbian-tee/raspbian-tee/optee_os/lib/libmbedtls/mbedtls/library/bignum.c:872 (discriminator 3)
    33b2:	58fe      	ldr	r6, [r7, r3]
/media/wen/My_Passport/Raspbian/raspbian-tee/raspbian-tee/optee_os/lib/libmbedtls/mbedtls/library/bignum.c:873 (discriminator 3)
    33b4:	fa26 f401 	lsr.w	r4, r6, r1
/media/wen/My_Passport/Raspbian/raspbian-tee/raspbian-tee/optee_os/lib/libmbedtls/mbedtls/library/bignum.c:874 (discriminator 3)
    33b8:	432c      	orrs	r4, r5
/media/wen/My_Passport/Raspbian/raspbian-tee/raspbian-tee/optee_os/lib/libmbedtls/mbedtls/library/bignum.c:872 (discriminator 3)
    33ba:	fa06 f50e 	lsl.w	r5, r6, lr
/media/wen/My_Passport/Raspbian/raspbian-tee/raspbian-tee/optee_os/lib/libmbedtls/mbedtls/library/bignum.c:874 (discriminator 3)
    33be:	50fc      	str	r4, [r7, r3]
    33c0:	3b04      	subs	r3, #4
    33c2:	e7de      	b.n	3382 <mbedtls_mpi_shift_r+0x2e>
/media/wen/My_Passport/Raspbian/raspbian-tee/raspbian-tee/optee_os/lib/libmbedtls/mbedtls/library/bignum.c:856
    33c4:	2c00      	cmp	r4, #0
    33c6:	d0dd      	beq.n	3384 <mbedtls_mpi_shift_r+0x30>
    33c8:	2300      	movs	r3, #0
    33ca:	e7e4      	b.n	3396 <mbedtls_mpi_shift_r+0x42>

000033cc <mbedtls_mpi_cmp_abs>:
mbedtls_mpi_cmp_abs():
/media/wen/My_Passport/Raspbian/raspbian-tee/raspbian-tee/optee_os/lib/libmbedtls/mbedtls/library/bignum.c:889
    33cc:	8883      	ldrh	r3, [r0, #4]
/media/wen/My_Passport/Raspbian/raspbian-tee/raspbian-tee/optee_os/lib/libmbedtls/mbedtls/library/bignum.c:886
    33ce:	b530      	push	{r4, r5, lr}
    33d0:	f103 4280 	add.w	r2, r3, #1073741824	; 0x40000000
    33d4:	3a01      	subs	r2, #1
    33d6:	0092      	lsls	r2, r2, #2
/media/wen/My_Passport/Raspbian/raspbian-tee/raspbian-tee/optee_os/lib/libmbedtls/mbedtls/library/bignum.c:889 (discriminator 1)
    33d8:	b99b      	cbnz	r3, 3402 <mbedtls_mpi_cmp_abs+0x36>
/media/wen/My_Passport/Raspbian/raspbian-tee/raspbian-tee/optee_os/lib/libmbedtls/mbedtls/library/bignum.c:893
    33da:	888c      	ldrh	r4, [r1, #4]
    33dc:	f104 4280 	add.w	r2, r4, #1073741824	; 0x40000000
    33e0:	3a01      	subs	r2, #1
    33e2:	0092      	lsls	r2, r2, #2
/media/wen/My_Passport/Raspbian/raspbian-tee/raspbian-tee/optee_os/lib/libmbedtls/mbedtls/library/bignum.c:893 (discriminator 1)
    33e4:	b9a4      	cbnz	r4, 3410 <mbedtls_mpi_cmp_abs+0x44>
/media/wen/My_Passport/Raspbian/raspbian-tee/raspbian-tee/optee_os/lib/libmbedtls/mbedtls/library/bignum.c:897
    33e6:	ea53 0204 	orrs.w	r2, r3, r4
    33ea:	d008      	beq.n	33fe <mbedtls_mpi_cmp_abs+0x32>
/media/wen/My_Passport/Raspbian/raspbian-tee/raspbian-tee/optee_os/lib/libmbedtls/mbedtls/library/bignum.c:900
    33ec:	42a3      	cmp	r3, r4
    33ee:	d822      	bhi.n	3436 <mbedtls_mpi_cmp_abs+0x6a>
/media/wen/My_Passport/Raspbian/raspbian-tee/raspbian-tee/optee_os/lib/libmbedtls/mbedtls/library/bignum.c:901
    33f0:	d31e      	bcc.n	3430 <mbedtls_mpi_cmp_abs+0x64>
    33f2:	f103 4380 	add.w	r3, r3, #1073741824	; 0x40000000
    33f6:	3b01      	subs	r3, #1
    33f8:	009b      	lsls	r3, r3, #2
/media/wen/My_Passport/Raspbian/raspbian-tee/raspbian-tee/optee_os/lib/libmbedtls/mbedtls/library/bignum.c:903 (discriminator 1)
    33fa:	1d1a      	adds	r2, r3, #4
    33fc:	d10f      	bne.n	341e <mbedtls_mpi_cmp_abs+0x52>
/media/wen/My_Passport/Raspbian/raspbian-tee/raspbian-tee/optee_os/lib/libmbedtls/mbedtls/library/bignum.c:898
    33fe:	2000      	movs	r0, #0
    3400:	bd30      	pop	{r4, r5, pc}
/media/wen/My_Passport/Raspbian/raspbian-tee/raspbian-tee/optee_os/lib/libmbedtls/mbedtls/library/bignum.c:890
    3402:	6884      	ldr	r4, [r0, #8]
    3404:	58a4      	ldr	r4, [r4, r2]
    3406:	3a04      	subs	r2, #4
    3408:	2c00      	cmp	r4, #0
    340a:	d1e6      	bne.n	33da <mbedtls_mpi_cmp_abs+0xe>
/media/wen/My_Passport/Raspbian/raspbian-tee/raspbian-tee/optee_os/lib/libmbedtls/mbedtls/library/bignum.c:889 (discriminator 2)
    340c:	3b01      	subs	r3, #1
    340e:	e7e3      	b.n	33d8 <mbedtls_mpi_cmp_abs+0xc>
/media/wen/My_Passport/Raspbian/raspbian-tee/raspbian-tee/optee_os/lib/libmbedtls/mbedtls/library/bignum.c:894
    3410:	688d      	ldr	r5, [r1, #8]
    3412:	58ad      	ldr	r5, [r5, r2]
    3414:	3a04      	subs	r2, #4
    3416:	2d00      	cmp	r5, #0
    3418:	d1e5      	bne.n	33e6 <mbedtls_mpi_cmp_abs+0x1a>
/media/wen/My_Passport/Raspbian/raspbian-tee/raspbian-tee/optee_os/lib/libmbedtls/mbedtls/library/bignum.c:893 (discriminator 2)
    341a:	3c01      	subs	r4, #1
    341c:	e7e2      	b.n	33e4 <mbedtls_mpi_cmp_abs+0x18>
/media/wen/My_Passport/Raspbian/raspbian-tee/raspbian-tee/optee_os/lib/libmbedtls/mbedtls/library/bignum.c:905
    341e:	6882      	ldr	r2, [r0, #8]
    3420:	58d4      	ldr	r4, [r2, r3]
    3422:	688a      	ldr	r2, [r1, #8]
    3424:	58d2      	ldr	r2, [r2, r3]
    3426:	4294      	cmp	r4, r2
    3428:	d805      	bhi.n	3436 <mbedtls_mpi_cmp_abs+0x6a>
    342a:	f1a3 0304 	sub.w	r3, r3, #4
/media/wen/My_Passport/Raspbian/raspbian-tee/raspbian-tee/optee_os/lib/libmbedtls/mbedtls/library/bignum.c:906
    342e:	d2e4      	bcs.n	33fa <mbedtls_mpi_cmp_abs+0x2e>
/media/wen/My_Passport/Raspbian/raspbian-tee/raspbian-tee/optee_os/lib/libmbedtls/mbedtls/library/bignum.c:901
    3430:	f04f 30ff 	mov.w	r0, #4294967295
/media/wen/My_Passport/Raspbian/raspbian-tee/raspbian-tee/optee_os/lib/libmbedtls/mbedtls/library/bignum.c:910
    3434:	bd30      	pop	{r4, r5, pc}
/media/wen/My_Passport/Raspbian/raspbian-tee/raspbian-tee/optee_os/lib/libmbedtls/mbedtls/library/bignum.c:900
    3436:	2001      	movs	r0, #1
    3438:	bd30      	pop	{r4, r5, pc}

0000343a <mbedtls_mpi_cmp_mpi>:
mbedtls_mpi_cmp_mpi():
/media/wen/My_Passport/Raspbian/raspbian-tee/raspbian-tee/optee_os/lib/libmbedtls/mbedtls/library/bignum.c:919
    343a:	8883      	ldrh	r3, [r0, #4]
/media/wen/My_Passport/Raspbian/raspbian-tee/raspbian-tee/optee_os/lib/libmbedtls/mbedtls/library/bignum.c:916
    343c:	b530      	push	{r4, r5, lr}
    343e:	f103 4280 	add.w	r2, r3, #1073741824	; 0x40000000
    3442:	3a01      	subs	r2, #1
    3444:	0092      	lsls	r2, r2, #2
/media/wen/My_Passport/Raspbian/raspbian-tee/raspbian-tee/optee_os/lib/libmbedtls/mbedtls/library/bignum.c:919 (discriminator 1)
    3446:	b973      	cbnz	r3, 3466 <mbedtls_mpi_cmp_mpi+0x2c>
/media/wen/My_Passport/Raspbian/raspbian-tee/raspbian-tee/optee_os/lib/libmbedtls/mbedtls/library/bignum.c:923
    3448:	888c      	ldrh	r4, [r1, #4]
    344a:	f104 4280 	add.w	r2, r4, #1073741824	; 0x40000000
    344e:	3a01      	subs	r2, #1
    3450:	0092      	lsls	r2, r2, #2
/media/wen/My_Passport/Raspbian/raspbian-tee/raspbian-tee/optee_os/lib/libmbedtls/mbedtls/library/bignum.c:923 (discriminator 1)
    3452:	b97c      	cbnz	r4, 3474 <mbedtls_mpi_cmp_mpi+0x3a>
/media/wen/My_Passport/Raspbian/raspbian-tee/raspbian-tee/optee_os/lib/libmbedtls/mbedtls/library/bignum.c:927
    3454:	ea53 0204 	orrs.w	r2, r3, r4
    3458:	d003      	beq.n	3462 <mbedtls_mpi_cmp_mpi+0x28>
/media/wen/My_Passport/Raspbian/raspbian-tee/raspbian-tee/optee_os/lib/libmbedtls/mbedtls/library/bignum.c:930
    345a:	42a3      	cmp	r3, r4
    345c:	d911      	bls.n	3482 <mbedtls_mpi_cmp_mpi+0x48>
/media/wen/My_Passport/Raspbian/raspbian-tee/raspbian-tee/optee_os/lib/libmbedtls/mbedtls/library/bignum.c:930 (discriminator 1)
    345e:	f990 2000 	ldrsb.w	r2, [r0]
/media/wen/My_Passport/Raspbian/raspbian-tee/raspbian-tee/optee_os/lib/libmbedtls/mbedtls/library/bignum.c:943
    3462:	4610      	mov	r0, r2
    3464:	bd30      	pop	{r4, r5, pc}
/media/wen/My_Passport/Raspbian/raspbian-tee/raspbian-tee/optee_os/lib/libmbedtls/mbedtls/library/bignum.c:920
    3466:	6884      	ldr	r4, [r0, #8]
    3468:	58a4      	ldr	r4, [r4, r2]
    346a:	3a04      	subs	r2, #4
    346c:	2c00      	cmp	r4, #0
    346e:	d1eb      	bne.n	3448 <mbedtls_mpi_cmp_mpi+0xe>
/media/wen/My_Passport/Raspbian/raspbian-tee/raspbian-tee/optee_os/lib/libmbedtls/mbedtls/library/bignum.c:919 (discriminator 2)
    3470:	3b01      	subs	r3, #1
    3472:	e7e8      	b.n	3446 <mbedtls_mpi_cmp_mpi+0xc>
/media/wen/My_Passport/Raspbian/raspbian-tee/raspbian-tee/optee_os/lib/libmbedtls/mbedtls/library/bignum.c:924
    3474:	688d      	ldr	r5, [r1, #8]
    3476:	58ad      	ldr	r5, [r5, r2]
    3478:	3a04      	subs	r2, #4
    347a:	2d00      	cmp	r5, #0
    347c:	d1ea      	bne.n	3454 <mbedtls_mpi_cmp_mpi+0x1a>
/media/wen/My_Passport/Raspbian/raspbian-tee/raspbian-tee/optee_os/lib/libmbedtls/mbedtls/library/bignum.c:923 (discriminator 2)
    347e:	3c01      	subs	r4, #1
    3480:	e7e7      	b.n	3452 <mbedtls_mpi_cmp_mpi+0x18>
    3482:	f991 4000 	ldrsb.w	r4, [r1]
/media/wen/My_Passport/Raspbian/raspbian-tee/raspbian-tee/optee_os/lib/libmbedtls/mbedtls/library/bignum.c:931
    3486:	d201      	bcs.n	348c <mbedtls_mpi_cmp_mpi+0x52>
/media/wen/My_Passport/Raspbian/raspbian-tee/raspbian-tee/optee_os/lib/libmbedtls/mbedtls/library/bignum.c:931 (discriminator 1)
    3488:	4262      	negs	r2, r4
    348a:	e7ea      	b.n	3462 <mbedtls_mpi_cmp_mpi+0x28>
/media/wen/My_Passport/Raspbian/raspbian-tee/raspbian-tee/optee_os/lib/libmbedtls/mbedtls/library/bignum.c:933
    348c:	f990 2000 	ldrsb.w	r2, [r0]
    3490:	2a00      	cmp	r2, #0
    3492:	dd01      	ble.n	3498 <mbedtls_mpi_cmp_mpi+0x5e>
/media/wen/My_Passport/Raspbian/raspbian-tee/raspbian-tee/optee_os/lib/libmbedtls/mbedtls/library/bignum.c:933 (discriminator 1)
    3494:	2c00      	cmp	r4, #0
    3496:	db16      	blt.n	34c6 <mbedtls_mpi_cmp_mpi+0x8c>
/media/wen/My_Passport/Raspbian/raspbian-tee/raspbian-tee/optee_os/lib/libmbedtls/mbedtls/library/bignum.c:934
    3498:	2c00      	cmp	r4, #0
    349a:	dd01      	ble.n	34a0 <mbedtls_mpi_cmp_mpi+0x66>
/media/wen/My_Passport/Raspbian/raspbian-tee/raspbian-tee/optee_os/lib/libmbedtls/mbedtls/library/bignum.c:934 (discriminator 1)
    349c:	2a00      	cmp	r2, #0
    349e:	db14      	blt.n	34ca <mbedtls_mpi_cmp_mpi+0x90>
    34a0:	f103 4380 	add.w	r3, r3, #1073741824	; 0x40000000
    34a4:	3b01      	subs	r3, #1
    34a6:	009b      	lsls	r3, r3, #2
/media/wen/My_Passport/Raspbian/raspbian-tee/raspbian-tee/optee_os/lib/libmbedtls/mbedtls/library/bignum.c:936 (discriminator 1)
    34a8:	1d1c      	adds	r4, r3, #4
    34aa:	d101      	bne.n	34b0 <mbedtls_mpi_cmp_mpi+0x76>
/media/wen/My_Passport/Raspbian/raspbian-tee/raspbian-tee/optee_os/lib/libmbedtls/mbedtls/library/bignum.c:928
    34ac:	2200      	movs	r2, #0
    34ae:	e7d8      	b.n	3462 <mbedtls_mpi_cmp_mpi+0x28>
/media/wen/My_Passport/Raspbian/raspbian-tee/raspbian-tee/optee_os/lib/libmbedtls/mbedtls/library/bignum.c:938
    34b0:	6884      	ldr	r4, [r0, #8]
    34b2:	58e5      	ldr	r5, [r4, r3]
    34b4:	688c      	ldr	r4, [r1, #8]
    34b6:	58e4      	ldr	r4, [r4, r3]
    34b8:	42a5      	cmp	r5, r4
    34ba:	d8d2      	bhi.n	3462 <mbedtls_mpi_cmp_mpi+0x28>
    34bc:	f1a3 0304 	sub.w	r3, r3, #4
/media/wen/My_Passport/Raspbian/raspbian-tee/raspbian-tee/optee_os/lib/libmbedtls/mbedtls/library/bignum.c:939
    34c0:	d2f2      	bcs.n	34a8 <mbedtls_mpi_cmp_mpi+0x6e>
/media/wen/My_Passport/Raspbian/raspbian-tee/raspbian-tee/optee_os/lib/libmbedtls/mbedtls/library/bignum.c:939 (discriminator 1)
    34c2:	4252      	negs	r2, r2
    34c4:	e7cd      	b.n	3462 <mbedtls_mpi_cmp_mpi+0x28>
/media/wen/My_Passport/Raspbian/raspbian-tee/raspbian-tee/optee_os/lib/libmbedtls/mbedtls/library/bignum.c:933
    34c6:	2201      	movs	r2, #1
    34c8:	e7cb      	b.n	3462 <mbedtls_mpi_cmp_mpi+0x28>
/media/wen/My_Passport/Raspbian/raspbian-tee/raspbian-tee/optee_os/lib/libmbedtls/mbedtls/library/bignum.c:934
    34ca:	f04f 32ff 	mov.w	r2, #4294967295
    34ce:	e7c8      	b.n	3462 <mbedtls_mpi_cmp_mpi+0x28>

000034d0 <mbedtls_mpi_cmp_int>:
mbedtls_mpi_cmp_int():
/media/wen/My_Passport/Raspbian/raspbian-tee/raspbian-tee/optee_os/lib/libmbedtls/mbedtls/library/bignum.c:949
    34d0:	b51f      	push	{r0, r1, r2, r3, r4, lr}
/media/wen/My_Passport/Raspbian/raspbian-tee/raspbian-tee/optee_os/lib/libmbedtls/mbedtls/library/bignum.c:953
    34d2:	ea81 73e1 	eor.w	r3, r1, r1, asr #31
/media/wen/My_Passport/Raspbian/raspbian-tee/raspbian-tee/optee_os/lib/libmbedtls/mbedtls/library/bignum.c:954
    34d6:	2900      	cmp	r1, #0
/media/wen/My_Passport/Raspbian/raspbian-tee/raspbian-tee/optee_os/lib/libmbedtls/mbedtls/library/bignum.c:953
    34d8:	eba3 73e1 	sub.w	r3, r3, r1, asr #31
/media/wen/My_Passport/Raspbian/raspbian-tee/raspbian-tee/optee_os/lib/libmbedtls/mbedtls/library/bignum.c:958
    34dc:	a901      	add	r1, sp, #4
/media/wen/My_Passport/Raspbian/raspbian-tee/raspbian-tee/optee_os/lib/libmbedtls/mbedtls/library/bignum.c:953
    34de:	9300      	str	r3, [sp, #0]
/media/wen/My_Passport/Raspbian/raspbian-tee/raspbian-tee/optee_os/lib/libmbedtls/mbedtls/library/bignum.c:954
    34e0:	f04f 33ff 	mov.w	r3, #4294967295
    34e4:	bfa8      	it	ge
    34e6:	2301      	movge	r3, #1
/media/wen/My_Passport/Raspbian/raspbian-tee/raspbian-tee/optee_os/lib/libmbedtls/mbedtls/library/bignum.c:956
    34e8:	f8cd d00c 	str.w	sp, [sp, #12]
/media/wen/My_Passport/Raspbian/raspbian-tee/raspbian-tee/optee_os/lib/libmbedtls/mbedtls/library/bignum.c:954
    34ec:	f88d 3004 	strb.w	r3, [sp, #4]
/media/wen/My_Passport/Raspbian/raspbian-tee/raspbian-tee/optee_os/lib/libmbedtls/mbedtls/library/bignum.c:955
    34f0:	2301      	movs	r3, #1
    34f2:	f8ad 3008 	strh.w	r3, [sp, #8]
/media/wen/My_Passport/Raspbian/raspbian-tee/raspbian-tee/optee_os/lib/libmbedtls/mbedtls/library/bignum.c:958
    34f6:	f7ff ffa0 	bl	343a <mbedtls_mpi_cmp_mpi>
/media/wen/My_Passport/Raspbian/raspbian-tee/raspbian-tee/optee_os/lib/libmbedtls/mbedtls/library/bignum.c:959
    34fa:	b005      	add	sp, #20
    34fc:	f85d fb04 	ldr.w	pc, [sp], #4

00003500 <mbedtls_mpi_add_abs>:
mbedtls_mpi_add_abs():
/media/wen/My_Passport/Raspbian/raspbian-tee/raspbian-tee/optee_os/lib/libmbedtls/mbedtls/library/bignum.c:970
    3500:	4290      	cmp	r0, r2
/media/wen/My_Passport/Raspbian/raspbian-tee/raspbian-tee/optee_os/lib/libmbedtls/mbedtls/library/bignum.c:965
    3502:	e92d 41f0 	stmdb	sp!, {r4, r5, r6, r7, r8, lr}
    3506:	4606      	mov	r6, r0
    3508:	460d      	mov	r5, r1
    350a:	4614      	mov	r4, r2
/media/wen/My_Passport/Raspbian/raspbian-tee/raspbian-tee/optee_os/lib/libmbedtls/mbedtls/library/bignum.c:970
    350c:	d002      	beq.n	3514 <mbedtls_mpi_add_abs+0x14>
/media/wen/My_Passport/Raspbian/raspbian-tee/raspbian-tee/optee_os/lib/libmbedtls/mbedtls/library/bignum.c:975
    350e:	4288      	cmp	r0, r1
    3510:	d131      	bne.n	3576 <mbedtls_mpi_add_abs+0x76>
/media/wen/My_Passport/Raspbian/raspbian-tee/raspbian-tee/optee_os/lib/libmbedtls/mbedtls/library/bignum.c:965
    3512:	4625      	mov	r5, r4
/media/wen/My_Passport/Raspbian/raspbian-tee/raspbian-tee/optee_os/lib/libmbedtls/mbedtls/library/bignum.c:981
    3514:	2301      	movs	r3, #1
    3516:	7033      	strb	r3, [r6, #0]
/media/wen/My_Passport/Raspbian/raspbian-tee/raspbian-tee/optee_os/lib/libmbedtls/mbedtls/library/bignum.c:983
    3518:	88ac      	ldrh	r4, [r5, #4]
    351a:	f104 4380 	add.w	r3, r4, #1073741824	; 0x40000000
    351e:	3b01      	subs	r3, #1
    3520:	009b      	lsls	r3, r3, #2
/media/wen/My_Passport/Raspbian/raspbian-tee/raspbian-tee/optee_os/lib/libmbedtls/mbedtls/library/bignum.c:983 (discriminator 1)
    3522:	bb84      	cbnz	r4, 3586 <mbedtls_mpi_add_abs+0x86>
/media/wen/My_Passport/Raspbian/raspbian-tee/raspbian-tee/optee_os/lib/libmbedtls/mbedtls/library/bignum.c:987
    3524:	4621      	mov	r1, r4
    3526:	4630      	mov	r0, r6
    3528:	f7ff fc68 	bl	2dfc <mbedtls_mpi_grow>
    352c:	4607      	mov	r7, r0
    352e:	bb38      	cbnz	r0, 3580 <mbedtls_mpi_add_abs+0x80>
    3530:	68a8      	ldr	r0, [r5, #8]
    3532:	ea4f 0884 	mov.w	r8, r4, lsl #2
/media/wen/My_Passport/Raspbian/raspbian-tee/raspbian-tee/optee_os/lib/libmbedtls/mbedtls/library/bignum.c:989
    3536:	68b1      	ldr	r1, [r6, #8]
    3538:	463d      	mov	r5, r7
    353a:	3804      	subs	r0, #4
    353c:	eb01 0308 	add.w	r3, r1, r8
/media/wen/My_Passport/Raspbian/raspbian-tee/raspbian-tee/optee_os/lib/libmbedtls/mbedtls/library/bignum.c:994 (discriminator 1)
    3540:	4299      	cmp	r1, r3
    3542:	d127      	bne.n	3594 <mbedtls_mpi_add_abs+0x94>
/media/wen/My_Passport/Raspbian/raspbian-tee/raspbian-tee/optee_os/lib/libmbedtls/mbedtls/library/bignum.c:1001
    3544:	b1e5      	cbz	r5, 3580 <mbedtls_mpi_add_abs+0x80>
/media/wen/My_Passport/Raspbian/raspbian-tee/raspbian-tee/optee_os/lib/libmbedtls/mbedtls/library/bignum.c:1003
    3546:	88b2      	ldrh	r2, [r6, #4]
    3548:	4294      	cmp	r4, r2
    354a:	f104 0401 	add.w	r4, r4, #1
    354e:	d306      	bcc.n	355e <mbedtls_mpi_add_abs+0x5e>
/media/wen/My_Passport/Raspbian/raspbian-tee/raspbian-tee/optee_os/lib/libmbedtls/mbedtls/library/bignum.c:1005
    3550:	4621      	mov	r1, r4
    3552:	4630      	mov	r0, r6
    3554:	f7ff fc52 	bl	2dfc <mbedtls_mpi_grow>
    3558:	bb58      	cbnz	r0, 35b2 <mbedtls_mpi_add_abs+0xb2>
/media/wen/My_Passport/Raspbian/raspbian-tee/raspbian-tee/optee_os/lib/libmbedtls/mbedtls/library/bignum.c:1006
    355a:	68b3      	ldr	r3, [r6, #8]
    355c:	4443      	add	r3, r8
/media/wen/My_Passport/Raspbian/raspbian-tee/raspbian-tee/optee_os/lib/libmbedtls/mbedtls/library/bignum.c:1009
    355e:	681a      	ldr	r2, [r3, #0]
    3560:	f108 0804 	add.w	r8, r8, #4
    3564:	442a      	add	r2, r5
    3566:	4295      	cmp	r5, r2
    3568:	f843 2b04 	str.w	r2, [r3], #4
    356c:	bf98      	it	ls
    356e:	2500      	movls	r5, #0
    3570:	bf88      	it	hi
    3572:	2501      	movhi	r5, #1
    3574:	e7e6      	b.n	3544 <mbedtls_mpi_add_abs+0x44>
/media/wen/My_Passport/Raspbian/raspbian-tee/raspbian-tee/optee_os/lib/libmbedtls/mbedtls/library/bignum.c:976
    3576:	f7ff fcfd 	bl	2f74 <mbedtls_mpi_copy>
    357a:	4607      	mov	r7, r0
    357c:	2800      	cmp	r0, #0
    357e:	d0c8      	beq.n	3512 <mbedtls_mpi_add_abs+0x12>
/media/wen/My_Passport/Raspbian/raspbian-tee/raspbian-tee/optee_os/lib/libmbedtls/mbedtls/library/bignum.c:1015
    3580:	4638      	mov	r0, r7
    3582:	e8bd 81f0 	ldmia.w	sp!, {r4, r5, r6, r7, r8, pc}
/media/wen/My_Passport/Raspbian/raspbian-tee/raspbian-tee/optee_os/lib/libmbedtls/mbedtls/library/bignum.c:984
    3586:	68aa      	ldr	r2, [r5, #8]
    3588:	58d2      	ldr	r2, [r2, r3]
    358a:	3b04      	subs	r3, #4
    358c:	2a00      	cmp	r2, #0
    358e:	d1c9      	bne.n	3524 <mbedtls_mpi_add_abs+0x24>
/media/wen/My_Passport/Raspbian/raspbian-tee/raspbian-tee/optee_os/lib/libmbedtls/mbedtls/library/bignum.c:983 (discriminator 2)
    3590:	3c01      	subs	r4, #1
    3592:	e7c6      	b.n	3522 <mbedtls_mpi_add_abs+0x22>
/media/wen/My_Passport/Raspbian/raspbian-tee/raspbian-tee/optee_os/lib/libmbedtls/mbedtls/library/bignum.c:997 (discriminator 3)
    3594:	680a      	ldr	r2, [r1, #0]
/media/wen/My_Passport/Raspbian/raspbian-tee/raspbian-tee/optee_os/lib/libmbedtls/mbedtls/library/bignum.c:996 (discriminator 3)
    3596:	f850 ef04 	ldr.w	lr, [r0, #4]!
/media/wen/My_Passport/Raspbian/raspbian-tee/raspbian-tee/optee_os/lib/libmbedtls/mbedtls/library/bignum.c:997 (discriminator 3)
    359a:	18aa      	adds	r2, r5, r2
    359c:	f04f 0501 	mov.w	r5, #1
/media/wen/My_Passport/Raspbian/raspbian-tee/raspbian-tee/optee_os/lib/libmbedtls/mbedtls/library/bignum.c:998 (discriminator 3)
    35a0:	4472      	add	r2, lr
/media/wen/My_Passport/Raspbian/raspbian-tee/raspbian-tee/optee_os/lib/libmbedtls/mbedtls/library/bignum.c:997 (discriminator 3)
    35a2:	bf38      	it	cc
    35a4:	2500      	movcc	r5, #0
/media/wen/My_Passport/Raspbian/raspbian-tee/raspbian-tee/optee_os/lib/libmbedtls/mbedtls/library/bignum.c:998 (discriminator 3)
    35a6:	4596      	cmp	lr, r2
    35a8:	f841 2b04 	str.w	r2, [r1], #4
    35ac:	bf88      	it	hi
    35ae:	3501      	addhi	r5, #1
    35b0:	e7c6      	b.n	3540 <mbedtls_mpi_add_abs+0x40>
/media/wen/My_Passport/Raspbian/raspbian-tee/raspbian-tee/optee_os/lib/libmbedtls/mbedtls/library/bignum.c:1005
    35b2:	4607      	mov	r7, r0
/media/wen/My_Passport/Raspbian/raspbian-tee/raspbian-tee/optee_os/lib/libmbedtls/mbedtls/library/bignum.c:1014
    35b4:	e7e4      	b.n	3580 <mbedtls_mpi_add_abs+0x80>

000035b6 <mbedtls_mpi_sub_abs>:
mbedtls_mpi_sub_abs():
/media/wen/My_Passport/Raspbian/raspbian-tee/raspbian-tee/optee_os/lib/libmbedtls/mbedtls/library/bignum.c:1042
    35b6:	e92d 41ff 	stmdb	sp!, {r0, r1, r2, r3, r4, r5, r6, r7, r8, lr}
    35ba:	4688      	mov	r8, r1
    35bc:	4606      	mov	r6, r0
/media/wen/My_Passport/Raspbian/raspbian-tee/raspbian-tee/optee_os/lib/libmbedtls/mbedtls/library/bignum.c:1047
    35be:	4611      	mov	r1, r2
    35c0:	4640      	mov	r0, r8
/media/wen/My_Passport/Raspbian/raspbian-tee/raspbian-tee/optee_os/lib/libmbedtls/mbedtls/library/bignum.c:1042
    35c2:	4614      	mov	r4, r2
/media/wen/My_Passport/Raspbian/raspbian-tee/raspbian-tee/optee_os/lib/libmbedtls/mbedtls/library/bignum.c:1047
    35c4:	f7ff ff02 	bl	33cc <mbedtls_mpi_cmp_abs>
    35c8:	2800      	cmp	r0, #0
    35ca:	db31      	blt.n	3630 <mbedtls_mpi_sub_abs+0x7a>
/media/wen/My_Passport/Raspbian/raspbian-tee/raspbian-tee/optee_os/lib/libmbedtls/mbedtls/library/bignum.c:1050
    35cc:	af01      	add	r7, sp, #4
    35ce:	4638      	mov	r0, r7
    35d0:	f7ff fbd2 	bl	2d78 <mbedtls_mpi_init_mempool>
/media/wen/My_Passport/Raspbian/raspbian-tee/raspbian-tee/optee_os/lib/libmbedtls/mbedtls/library/bignum.c:1052
    35d4:	42b4      	cmp	r4, r6
    35d6:	d106      	bne.n	35e6 <mbedtls_mpi_sub_abs+0x30>
/media/wen/My_Passport/Raspbian/raspbian-tee/raspbian-tee/optee_os/lib/libmbedtls/mbedtls/library/bignum.c:1054
    35d8:	4621      	mov	r1, r4
    35da:	4638      	mov	r0, r7
    35dc:	f7ff fcca 	bl	2f74 <mbedtls_mpi_copy>
    35e0:	4605      	mov	r5, r0
    35e2:	b9b8      	cbnz	r0, 3614 <mbedtls_mpi_sub_abs+0x5e>
/media/wen/My_Passport/Raspbian/raspbian-tee/raspbian-tee/optee_os/lib/libmbedtls/mbedtls/library/bignum.c:1055
    35e4:	463c      	mov	r4, r7
/media/wen/My_Passport/Raspbian/raspbian-tee/raspbian-tee/optee_os/lib/libmbedtls/mbedtls/library/bignum.c:1058
    35e6:	45b0      	cmp	r8, r6
    35e8:	d10d      	bne.n	3606 <mbedtls_mpi_sub_abs+0x50>
/media/wen/My_Passport/Raspbian/raspbian-tee/raspbian-tee/optee_os/lib/libmbedtls/mbedtls/library/bignum.c:1064
    35ea:	2301      	movs	r3, #1
    35ec:	7033      	strb	r3, [r6, #0]
/media/wen/My_Passport/Raspbian/raspbian-tee/raspbian-tee/optee_os/lib/libmbedtls/mbedtls/library/bignum.c:1068
    35ee:	88a0      	ldrh	r0, [r4, #4]
    35f0:	f100 4380 	add.w	r3, r0, #1073741824	; 0x40000000
    35f4:	3b01      	subs	r3, #1
    35f6:	009b      	lsls	r3, r3, #2
/media/wen/My_Passport/Raspbian/raspbian-tee/raspbian-tee/optee_os/lib/libmbedtls/mbedtls/library/bignum.c:1068 (discriminator 1)
    35f8:	b998      	cbnz	r0, 3622 <mbedtls_mpi_sub_abs+0x6c>
/media/wen/My_Passport/Raspbian/raspbian-tee/raspbian-tee/optee_os/lib/libmbedtls/mbedtls/library/bignum.c:1072
    35fa:	68b2      	ldr	r2, [r6, #8]
/media/wen/My_Passport/Raspbian/raspbian-tee/raspbian-tee/optee_os/lib/libmbedtls/mbedtls/library/bignum.c:1066
    35fc:	2500      	movs	r5, #0
/media/wen/My_Passport/Raspbian/raspbian-tee/raspbian-tee/optee_os/lib/libmbedtls/mbedtls/library/bignum.c:1072
    35fe:	68a1      	ldr	r1, [r4, #8]
    3600:	f7ff f99e 	bl	2940 <mpi_sub_hlp>
    3604:	e006      	b.n	3614 <mbedtls_mpi_sub_abs+0x5e>
/media/wen/My_Passport/Raspbian/raspbian-tee/raspbian-tee/optee_os/lib/libmbedtls/mbedtls/library/bignum.c:1059
    3606:	4641      	mov	r1, r8
    3608:	4630      	mov	r0, r6
    360a:	f7ff fcb3 	bl	2f74 <mbedtls_mpi_copy>
    360e:	4605      	mov	r5, r0
    3610:	2800      	cmp	r0, #0
    3612:	d0ea      	beq.n	35ea <mbedtls_mpi_sub_abs+0x34>
/media/wen/My_Passport/Raspbian/raspbian-tee/raspbian-tee/optee_os/lib/libmbedtls/mbedtls/library/bignum.c:1076
    3614:	4638      	mov	r0, r7
    3616:	f7ff fbca 	bl	2dae <mbedtls_mpi_free>
/media/wen/My_Passport/Raspbian/raspbian-tee/raspbian-tee/optee_os/lib/libmbedtls/mbedtls/library/bignum.c:1079
    361a:	4628      	mov	r0, r5
    361c:	b004      	add	sp, #16
    361e:	e8bd 81f0 	ldmia.w	sp!, {r4, r5, r6, r7, r8, pc}
/media/wen/My_Passport/Raspbian/raspbian-tee/raspbian-tee/optee_os/lib/libmbedtls/mbedtls/library/bignum.c:1069
    3622:	68a2      	ldr	r2, [r4, #8]
    3624:	58d2      	ldr	r2, [r2, r3]
    3626:	3b04      	subs	r3, #4
    3628:	2a00      	cmp	r2, #0
    362a:	d1e6      	bne.n	35fa <mbedtls_mpi_sub_abs+0x44>
/media/wen/My_Passport/Raspbian/raspbian-tee/raspbian-tee/optee_os/lib/libmbedtls/mbedtls/library/bignum.c:1068 (discriminator 2)
    362c:	3801      	subs	r0, #1
    362e:	e7e3      	b.n	35f8 <mbedtls_mpi_sub_abs+0x42>
/media/wen/My_Passport/Raspbian/raspbian-tee/raspbian-tee/optee_os/lib/libmbedtls/mbedtls/library/bignum.c:1048
    3630:	f06f 0509 	mvn.w	r5, #9
    3634:	e7f1      	b.n	361a <mbedtls_mpi_sub_abs+0x64>

00003636 <mbedtls_mpi_add_mpi>:
mbedtls_mpi_add_mpi():
/media/wen/My_Passport/Raspbian/raspbian-tee/raspbian-tee/optee_os/lib/libmbedtls/mbedtls/library/bignum.c:1085
    3636:	b5f8      	push	{r3, r4, r5, r6, r7, lr}
    3638:	4605      	mov	r5, r0
    363a:	460f      	mov	r7, r1
/media/wen/My_Passport/Raspbian/raspbian-tee/raspbian-tee/optee_os/lib/libmbedtls/mbedtls/library/bignum.c:1086
    363c:	f991 4000 	ldrsb.w	r4, [r1]
/media/wen/My_Passport/Raspbian/raspbian-tee/raspbian-tee/optee_os/lib/libmbedtls/mbedtls/library/bignum.c:1085
    3640:	4616      	mov	r6, r2
/media/wen/My_Passport/Raspbian/raspbian-tee/raspbian-tee/optee_os/lib/libmbedtls/mbedtls/library/bignum.c:1088
    3642:	f992 3000 	ldrsb.w	r3, [r2]
    3646:	4363      	muls	r3, r4
    3648:	d516      	bpl.n	3678 <mbedtls_mpi_add_mpi+0x42>
/media/wen/My_Passport/Raspbian/raspbian-tee/raspbian-tee/optee_os/lib/libmbedtls/mbedtls/library/bignum.c:1090
    364a:	4611      	mov	r1, r2
    364c:	4638      	mov	r0, r7
    364e:	f7ff febd 	bl	33cc <mbedtls_mpi_cmp_abs>
    3652:	2800      	cmp	r0, #0
    3654:	db06      	blt.n	3664 <mbedtls_mpi_add_mpi+0x2e>
/media/wen/My_Passport/Raspbian/raspbian-tee/raspbian-tee/optee_os/lib/libmbedtls/mbedtls/library/bignum.c:1092
    3656:	4632      	mov	r2, r6
    3658:	4639      	mov	r1, r7
    365a:	4628      	mov	r0, r5
    365c:	f7ff ffab 	bl	35b6 <mbedtls_mpi_sub_abs>
/media/wen/My_Passport/Raspbian/raspbian-tee/raspbian-tee/optee_os/lib/libmbedtls/mbedtls/library/bignum.c:1103
    3660:	b140      	cbz	r0, 3674 <mbedtls_mpi_add_mpi+0x3e>
/media/wen/My_Passport/Raspbian/raspbian-tee/raspbian-tee/optee_os/lib/libmbedtls/mbedtls/library/bignum.c:1110
    3662:	bdf8      	pop	{r3, r4, r5, r6, r7, pc}
/media/wen/My_Passport/Raspbian/raspbian-tee/raspbian-tee/optee_os/lib/libmbedtls/mbedtls/library/bignum.c:1097
    3664:	463a      	mov	r2, r7
    3666:	4631      	mov	r1, r6
    3668:	4628      	mov	r0, r5
    366a:	f7ff ffa4 	bl	35b6 <mbedtls_mpi_sub_abs>
    366e:	2800      	cmp	r0, #0
    3670:	d1f7      	bne.n	3662 <mbedtls_mpi_add_mpi+0x2c>
/media/wen/My_Passport/Raspbian/raspbian-tee/raspbian-tee/optee_os/lib/libmbedtls/mbedtls/library/bignum.c:1098
    3672:	4264      	negs	r4, r4
/media/wen/My_Passport/Raspbian/raspbian-tee/raspbian-tee/optee_os/lib/libmbedtls/mbedtls/library/bignum.c:1104
    3674:	702c      	strb	r4, [r5, #0]
/media/wen/My_Passport/Raspbian/raspbian-tee/raspbian-tee/optee_os/lib/libmbedtls/mbedtls/library/bignum.c:1109
    3676:	e7f4      	b.n	3662 <mbedtls_mpi_add_mpi+0x2c>
/media/wen/My_Passport/Raspbian/raspbian-tee/raspbian-tee/optee_os/lib/libmbedtls/mbedtls/library/bignum.c:1103
    3678:	f7ff ff42 	bl	3500 <mbedtls_mpi_add_abs>
    367c:	e7f0      	b.n	3660 <mbedtls_mpi_add_mpi+0x2a>

0000367e <mbedtls_mpi_sub_mpi>:
mbedtls_mpi_sub_mpi():
/media/wen/My_Passport/Raspbian/raspbian-tee/raspbian-tee/optee_os/lib/libmbedtls/mbedtls/library/bignum.c:1116
    367e:	b5f8      	push	{r3, r4, r5, r6, r7, lr}
    3680:	4605      	mov	r5, r0
    3682:	460f      	mov	r7, r1
/media/wen/My_Passport/Raspbian/raspbian-tee/raspbian-tee/optee_os/lib/libmbedtls/mbedtls/library/bignum.c:1117
    3684:	f991 4000 	ldrsb.w	r4, [r1]
/media/wen/My_Passport/Raspbian/raspbian-tee/raspbian-tee/optee_os/lib/libmbedtls/mbedtls/library/bignum.c:1116
    3688:	4616      	mov	r6, r2
/media/wen/My_Passport/Raspbian/raspbian-tee/raspbian-tee/optee_os/lib/libmbedtls/mbedtls/library/bignum.c:1119
    368a:	f992 3000 	ldrsb.w	r3, [r2]
    368e:	fb13 f304 	smulbb	r3, r3, r4
    3692:	2b00      	cmp	r3, #0
    3694:	dd16      	ble.n	36c4 <mbedtls_mpi_sub_mpi+0x46>
/media/wen/My_Passport/Raspbian/raspbian-tee/raspbian-tee/optee_os/lib/libmbedtls/mbedtls/library/bignum.c:1121
    3696:	4611      	mov	r1, r2
    3698:	4638      	mov	r0, r7
    369a:	f7ff fe97 	bl	33cc <mbedtls_mpi_cmp_abs>
    369e:	2800      	cmp	r0, #0
    36a0:	db06      	blt.n	36b0 <mbedtls_mpi_sub_mpi+0x32>
/media/wen/My_Passport/Raspbian/raspbian-tee/raspbian-tee/optee_os/lib/libmbedtls/mbedtls/library/bignum.c:1123
    36a2:	4632      	mov	r2, r6
    36a4:	4639      	mov	r1, r7
    36a6:	4628      	mov	r0, r5
    36a8:	f7ff ff85 	bl	35b6 <mbedtls_mpi_sub_abs>
/media/wen/My_Passport/Raspbian/raspbian-tee/raspbian-tee/optee_os/lib/libmbedtls/mbedtls/library/bignum.c:1134
    36ac:	b140      	cbz	r0, 36c0 <mbedtls_mpi_sub_mpi+0x42>
/media/wen/My_Passport/Raspbian/raspbian-tee/raspbian-tee/optee_os/lib/libmbedtls/mbedtls/library/bignum.c:1141
    36ae:	bdf8      	pop	{r3, r4, r5, r6, r7, pc}
/media/wen/My_Passport/Raspbian/raspbian-tee/raspbian-tee/optee_os/lib/libmbedtls/mbedtls/library/bignum.c:1128
    36b0:	463a      	mov	r2, r7
    36b2:	4631      	mov	r1, r6
    36b4:	4628      	mov	r0, r5
    36b6:	f7ff ff7e 	bl	35b6 <mbedtls_mpi_sub_abs>
    36ba:	2800      	cmp	r0, #0
    36bc:	d1f7      	bne.n	36ae <mbedtls_mpi_sub_mpi+0x30>
/media/wen/My_Passport/Raspbian/raspbian-tee/raspbian-tee/optee_os/lib/libmbedtls/mbedtls/library/bignum.c:1129
    36be:	4264      	negs	r4, r4
/media/wen/My_Passport/Raspbian/raspbian-tee/raspbian-tee/optee_os/lib/libmbedtls/mbedtls/library/bignum.c:1135
    36c0:	702c      	strb	r4, [r5, #0]
/media/wen/My_Passport/Raspbian/raspbian-tee/raspbian-tee/optee_os/lib/libmbedtls/mbedtls/library/bignum.c:1140
    36c2:	e7f4      	b.n	36ae <mbedtls_mpi_sub_mpi+0x30>
/media/wen/My_Passport/Raspbian/raspbian-tee/raspbian-tee/optee_os/lib/libmbedtls/mbedtls/library/bignum.c:1134
    36c4:	f7ff ff1c 	bl	3500 <mbedtls_mpi_add_abs>
    36c8:	e7f0      	b.n	36ac <mbedtls_mpi_sub_mpi+0x2e>

000036ca <mbedtls_mpi_add_int>:
mbedtls_mpi_add_int():
/media/wen/My_Passport/Raspbian/raspbian-tee/raspbian-tee/optee_os/lib/libmbedtls/mbedtls/library/bignum.c:1147
    36ca:	b51f      	push	{r0, r1, r2, r3, r4, lr}
/media/wen/My_Passport/Raspbian/raspbian-tee/raspbian-tee/optee_os/lib/libmbedtls/mbedtls/library/bignum.c:1151
    36cc:	ea82 73e2 	eor.w	r3, r2, r2, asr #31
/media/wen/My_Passport/Raspbian/raspbian-tee/raspbian-tee/optee_os/lib/libmbedtls/mbedtls/library/bignum.c:1152
    36d0:	2a00      	cmp	r2, #0
/media/wen/My_Passport/Raspbian/raspbian-tee/raspbian-tee/optee_os/lib/libmbedtls/mbedtls/library/bignum.c:1151
    36d2:	eba3 73e2 	sub.w	r3, r3, r2, asr #31
/media/wen/My_Passport/Raspbian/raspbian-tee/raspbian-tee/optee_os/lib/libmbedtls/mbedtls/library/bignum.c:1156
    36d6:	aa01      	add	r2, sp, #4
/media/wen/My_Passport/Raspbian/raspbian-tee/raspbian-tee/optee_os/lib/libmbedtls/mbedtls/library/bignum.c:1151
    36d8:	9300      	str	r3, [sp, #0]
/media/wen/My_Passport/Raspbian/raspbian-tee/raspbian-tee/optee_os/lib/libmbedtls/mbedtls/library/bignum.c:1152
    36da:	f04f 33ff 	mov.w	r3, #4294967295
    36de:	bfa8      	it	ge
    36e0:	2301      	movge	r3, #1
/media/wen/My_Passport/Raspbian/raspbian-tee/raspbian-tee/optee_os/lib/libmbedtls/mbedtls/library/bignum.c:1154
    36e2:	f8cd d00c 	str.w	sp, [sp, #12]
/media/wen/My_Passport/Raspbian/raspbian-tee/raspbian-tee/optee_os/lib/libmbedtls/mbedtls/library/bignum.c:1152
    36e6:	f88d 3004 	strb.w	r3, [sp, #4]
/media/wen/My_Passport/Raspbian/raspbian-tee/raspbian-tee/optee_os/lib/libmbedtls/mbedtls/library/bignum.c:1153
    36ea:	2301      	movs	r3, #1
    36ec:	f8ad 3008 	strh.w	r3, [sp, #8]
/media/wen/My_Passport/Raspbian/raspbian-tee/raspbian-tee/optee_os/lib/libmbedtls/mbedtls/library/bignum.c:1156
    36f0:	f7ff ffa1 	bl	3636 <mbedtls_mpi_add_mpi>
/media/wen/My_Passport/Raspbian/raspbian-tee/raspbian-tee/optee_os/lib/libmbedtls/mbedtls/library/bignum.c:1157
    36f4:	b005      	add	sp, #20
    36f6:	f85d fb04 	ldr.w	pc, [sp], #4

000036fa <mbedtls_mpi_sub_int>:
mbedtls_mpi_sub_int():
/media/wen/My_Passport/Raspbian/raspbian-tee/raspbian-tee/optee_os/lib/libmbedtls/mbedtls/library/bignum.c:1163
    36fa:	b51f      	push	{r0, r1, r2, r3, r4, lr}
/media/wen/My_Passport/Raspbian/raspbian-tee/raspbian-tee/optee_os/lib/libmbedtls/mbedtls/library/bignum.c:1167
    36fc:	ea82 73e2 	eor.w	r3, r2, r2, asr #31
/media/wen/My_Passport/Raspbian/raspbian-tee/raspbian-tee/optee_os/lib/libmbedtls/mbedtls/library/bignum.c:1168
    3700:	2a00      	cmp	r2, #0
/media/wen/My_Passport/Raspbian/raspbian-tee/raspbian-tee/optee_os/lib/libmbedtls/mbedtls/library/bignum.c:1167
    3702:	eba3 73e2 	sub.w	r3, r3, r2, asr #31
/media/wen/My_Passport/Raspbian/raspbian-tee/raspbian-tee/optee_os/lib/libmbedtls/mbedtls/library/bignum.c:1172
    3706:	aa01      	add	r2, sp, #4
/media/wen/My_Passport/Raspbian/raspbian-tee/raspbian-tee/optee_os/lib/libmbedtls/mbedtls/library/bignum.c:1167
    3708:	9300      	str	r3, [sp, #0]
/media/wen/My_Passport/Raspbian/raspbian-tee/raspbian-tee/optee_os/lib/libmbedtls/mbedtls/library/bignum.c:1168
    370a:	f04f 33ff 	mov.w	r3, #4294967295
    370e:	bfa8      	it	ge
    3710:	2301      	movge	r3, #1
/media/wen/My_Passport/Raspbian/raspbian-tee/raspbian-tee/optee_os/lib/libmbedtls/mbedtls/library/bignum.c:1170
    3712:	f8cd d00c 	str.w	sp, [sp, #12]
/media/wen/My_Passport/Raspbian/raspbian-tee/raspbian-tee/optee_os/lib/libmbedtls/mbedtls/library/bignum.c:1168
    3716:	f88d 3004 	strb.w	r3, [sp, #4]
/media/wen/My_Passport/Raspbian/raspbian-tee/raspbian-tee/optee_os/lib/libmbedtls/mbedtls/library/bignum.c:1169
    371a:	2301      	movs	r3, #1
    371c:	f8ad 3008 	strh.w	r3, [sp, #8]
/media/wen/My_Passport/Raspbian/raspbian-tee/raspbian-tee/optee_os/lib/libmbedtls/mbedtls/library/bignum.c:1172
    3720:	f7ff ffad 	bl	367e <mbedtls_mpi_sub_mpi>
/media/wen/My_Passport/Raspbian/raspbian-tee/raspbian-tee/optee_os/lib/libmbedtls/mbedtls/library/bignum.c:1173
    3724:	b005      	add	sp, #20
    3726:	f85d fb04 	ldr.w	pc, [sp], #4

0000372a <mbedtls_mpi_mul_mpi>:
mbedtls_mpi_mul_mpi():
/media/wen/My_Passport/Raspbian/raspbian-tee/raspbian-tee/optee_os/lib/libmbedtls/mbedtls/library/bignum.c:1251
    372a:	e92d 4ff0 	stmdb	sp!, {r4, r5, r6, r7, r8, r9, sl, fp, lr}
    372e:	4606      	mov	r6, r0
    3730:	4688      	mov	r8, r1
    3732:	b087      	sub	sp, #28
    3734:	4617      	mov	r7, r2
/media/wen/My_Passport/Raspbian/raspbian-tee/raspbian-tee/optee_os/lib/libmbedtls/mbedtls/library/bignum.c:1256
    3736:	4668      	mov	r0, sp
    3738:	f10d 0b0c 	add.w	fp, sp, #12
    373c:	f7ff fb1c 	bl	2d78 <mbedtls_mpi_init_mempool>
    3740:	4658      	mov	r0, fp
    3742:	f7ff fb19 	bl	2d78 <mbedtls_mpi_init_mempool>
/media/wen/My_Passport/Raspbian/raspbian-tee/raspbian-tee/optee_os/lib/libmbedtls/mbedtls/library/bignum.c:1258
    3746:	428e      	cmp	r6, r1
/media/wen/My_Passport/Raspbian/raspbian-tee/raspbian-tee/optee_os/lib/libmbedtls/mbedtls/library/bignum.c:1256
    3748:	46ea      	mov	sl, sp
/media/wen/My_Passport/Raspbian/raspbian-tee/raspbian-tee/optee_os/lib/libmbedtls/mbedtls/library/bignum.c:1258
    374a:	d106      	bne.n	375a <mbedtls_mpi_mul_mpi+0x30>
/media/wen/My_Passport/Raspbian/raspbian-tee/raspbian-tee/optee_os/lib/libmbedtls/mbedtls/library/bignum.c:1258 (discriminator 1)
    374c:	4631      	mov	r1, r6
    374e:	4668      	mov	r0, sp
    3750:	f7ff fc10 	bl	2f74 <mbedtls_mpi_copy>
    3754:	4605      	mov	r5, r0
    3756:	bb88      	cbnz	r0, 37bc <mbedtls_mpi_mul_mpi+0x92>
/media/wen/My_Passport/Raspbian/raspbian-tee/raspbian-tee/optee_os/lib/libmbedtls/mbedtls/library/bignum.c:1258
    3758:	46e8      	mov	r8, sp
/media/wen/My_Passport/Raspbian/raspbian-tee/raspbian-tee/optee_os/lib/libmbedtls/mbedtls/library/bignum.c:1259
    375a:	42be      	cmp	r6, r7
    375c:	d106      	bne.n	376c <mbedtls_mpi_mul_mpi+0x42>
/media/wen/My_Passport/Raspbian/raspbian-tee/raspbian-tee/optee_os/lib/libmbedtls/mbedtls/library/bignum.c:1259 (discriminator 1)
    375e:	4631      	mov	r1, r6
    3760:	4658      	mov	r0, fp
    3762:	f7ff fc07 	bl	2f74 <mbedtls_mpi_copy>
    3766:	4605      	mov	r5, r0
    3768:	bb40      	cbnz	r0, 37bc <mbedtls_mpi_mul_mpi+0x92>
/media/wen/My_Passport/Raspbian/raspbian-tee/raspbian-tee/optee_os/lib/libmbedtls/mbedtls/library/bignum.c:1259
    376a:	465f      	mov	r7, fp
/media/wen/My_Passport/Raspbian/raspbian-tee/raspbian-tee/optee_os/lib/libmbedtls/mbedtls/library/bignum.c:1261
    376c:	f8b8 9004 	ldrh.w	r9, [r8, #4]
    3770:	f109 4380 	add.w	r3, r9, #1073741824	; 0x40000000
    3774:	3b01      	subs	r3, #1
    3776:	009b      	lsls	r3, r3, #2
/media/wen/My_Passport/Raspbian/raspbian-tee/raspbian-tee/optee_os/lib/libmbedtls/mbedtls/library/bignum.c:1261 (discriminator 1)
    3778:	f1b9 0f00 	cmp.w	r9, #0
    377c:	d128      	bne.n	37d0 <mbedtls_mpi_mul_mpi+0xa6>
/media/wen/My_Passport/Raspbian/raspbian-tee/raspbian-tee/optee_os/lib/libmbedtls/mbedtls/library/bignum.c:1265
    377e:	88bc      	ldrh	r4, [r7, #4]
    3780:	f104 4380 	add.w	r3, r4, #1073741824	; 0x40000000
    3784:	3b01      	subs	r3, #1
    3786:	009b      	lsls	r3, r3, #2
/media/wen/My_Passport/Raspbian/raspbian-tee/raspbian-tee/optee_os/lib/libmbedtls/mbedtls/library/bignum.c:1265 (discriminator 1)
    3788:	bb5c      	cbnz	r4, 37e2 <mbedtls_mpi_mul_mpi+0xb8>
/media/wen/My_Passport/Raspbian/raspbian-tee/raspbian-tee/optee_os/lib/libmbedtls/mbedtls/library/bignum.c:1269
    378a:	eb09 0104 	add.w	r1, r9, r4
    378e:	4630      	mov	r0, r6
    3790:	f7ff fb34 	bl	2dfc <mbedtls_mpi_grow>
    3794:	4605      	mov	r5, r0
    3796:	b988      	cbnz	r0, 37bc <mbedtls_mpi_mul_mpi+0x92>
/media/wen/My_Passport/Raspbian/raspbian-tee/raspbian-tee/optee_os/lib/libmbedtls/mbedtls/library/bignum.c:1270
    3798:	4601      	mov	r1, r0
    379a:	4630      	mov	r0, r6
    379c:	f7ff fca5 	bl	30ea <mbedtls_mpi_lset>
    37a0:	4605      	mov	r5, r0
    37a2:	b958      	cbnz	r0, 37bc <mbedtls_mpi_mul_mpi+0x92>
    37a4:	f104 4480 	add.w	r4, r4, #1073741824	; 0x40000000
    37a8:	3c01      	subs	r4, #1
    37aa:	00a4      	lsls	r4, r4, #2
/media/wen/My_Passport/Raspbian/raspbian-tee/raspbian-tee/optee_os/lib/libmbedtls/mbedtls/library/bignum.c:1272 (discriminator 1)
    37ac:	1d23      	adds	r3, r4, #4
    37ae:	d11f      	bne.n	37f0 <mbedtls_mpi_mul_mpi+0xc6>
/media/wen/My_Passport/Raspbian/raspbian-tee/raspbian-tee/optee_os/lib/libmbedtls/mbedtls/library/bignum.c:1275
    37b0:	f898 3000 	ldrb.w	r3, [r8]
    37b4:	783a      	ldrb	r2, [r7, #0]
    37b6:	fb13 f302 	smulbb	r3, r3, r2
    37ba:	7033      	strb	r3, [r6, #0]
/media/wen/My_Passport/Raspbian/raspbian-tee/raspbian-tee/optee_os/lib/libmbedtls/mbedtls/library/bignum.c:1279
    37bc:	4658      	mov	r0, fp
    37be:	f7ff faf6 	bl	2dae <mbedtls_mpi_free>
    37c2:	4650      	mov	r0, sl
    37c4:	f7ff faf3 	bl	2dae <mbedtls_mpi_free>
/media/wen/My_Passport/Raspbian/raspbian-tee/raspbian-tee/optee_os/lib/libmbedtls/mbedtls/library/bignum.c:1282
    37c8:	4628      	mov	r0, r5
    37ca:	b007      	add	sp, #28
    37cc:	e8bd 8ff0 	ldmia.w	sp!, {r4, r5, r6, r7, r8, r9, sl, fp, pc}
/media/wen/My_Passport/Raspbian/raspbian-tee/raspbian-tee/optee_os/lib/libmbedtls/mbedtls/library/bignum.c:1262
    37d0:	f8d8 2008 	ldr.w	r2, [r8, #8]
    37d4:	58d2      	ldr	r2, [r2, r3]
    37d6:	3b04      	subs	r3, #4
    37d8:	2a00      	cmp	r2, #0
    37da:	d1d0      	bne.n	377e <mbedtls_mpi_mul_mpi+0x54>
/media/wen/My_Passport/Raspbian/raspbian-tee/raspbian-tee/optee_os/lib/libmbedtls/mbedtls/library/bignum.c:1261 (discriminator 2)
    37dc:	f109 39ff 	add.w	r9, r9, #4294967295
    37e0:	e7ca      	b.n	3778 <mbedtls_mpi_mul_mpi+0x4e>
/media/wen/My_Passport/Raspbian/raspbian-tee/raspbian-tee/optee_os/lib/libmbedtls/mbedtls/library/bignum.c:1266
    37e2:	68ba      	ldr	r2, [r7, #8]
    37e4:	58d2      	ldr	r2, [r2, r3]
    37e6:	3b04      	subs	r3, #4
    37e8:	2a00      	cmp	r2, #0
    37ea:	d1ce      	bne.n	378a <mbedtls_mpi_mul_mpi+0x60>
/media/wen/My_Passport/Raspbian/raspbian-tee/raspbian-tee/optee_os/lib/libmbedtls/mbedtls/library/bignum.c:1265 (discriminator 2)
    37ec:	3c01      	subs	r4, #1
    37ee:	e7cb      	b.n	3788 <mbedtls_mpi_mul_mpi+0x5e>
/media/wen/My_Passport/Raspbian/raspbian-tee/raspbian-tee/optee_os/lib/libmbedtls/mbedtls/library/bignum.c:1273 (discriminator 3)
    37f0:	68bb      	ldr	r3, [r7, #8]
    37f2:	4648      	mov	r0, r9
    37f4:	68b2      	ldr	r2, [r6, #8]
    37f6:	f8d8 1008 	ldr.w	r1, [r8, #8]
    37fa:	4422      	add	r2, r4
    37fc:	591b      	ldr	r3, [r3, r4]
    37fe:	3c04      	subs	r4, #4
    3800:	f7ff f8cb 	bl	299a <mpi_mul_hlp>
    3804:	e7d2      	b.n	37ac <mbedtls_mpi_mul_mpi+0x82>

00003806 <mbedtls_mpi_mul_int>:
mbedtls_mpi_mul_int():
/media/wen/My_Passport/Raspbian/raspbian-tee/raspbian-tee/optee_os/lib/libmbedtls/mbedtls/library/bignum.c:1288
    3806:	b51f      	push	{r0, r1, r2, r3, r4, lr}
/media/wen/My_Passport/Raspbian/raspbian-tee/raspbian-tee/optee_os/lib/libmbedtls/mbedtls/library/bignum.c:1292
    3808:	2301      	movs	r3, #1
/media/wen/My_Passport/Raspbian/raspbian-tee/raspbian-tee/optee_os/lib/libmbedtls/mbedtls/library/bignum.c:1295
    380a:	9200      	str	r2, [sp, #0]
/media/wen/My_Passport/Raspbian/raspbian-tee/raspbian-tee/optee_os/lib/libmbedtls/mbedtls/library/bignum.c:1297
    380c:	aa01      	add	r2, sp, #4
/media/wen/My_Passport/Raspbian/raspbian-tee/raspbian-tee/optee_os/lib/libmbedtls/mbedtls/library/bignum.c:1292
    380e:	f88d 3004 	strb.w	r3, [sp, #4]
/media/wen/My_Passport/Raspbian/raspbian-tee/raspbian-tee/optee_os/lib/libmbedtls/mbedtls/library/bignum.c:1293
    3812:	f8ad 3008 	strh.w	r3, [sp, #8]
/media/wen/My_Passport/Raspbian/raspbian-tee/raspbian-tee/optee_os/lib/libmbedtls/mbedtls/library/bignum.c:1294
    3816:	f8cd d00c 	str.w	sp, [sp, #12]
/media/wen/My_Passport/Raspbian/raspbian-tee/raspbian-tee/optee_os/lib/libmbedtls/mbedtls/library/bignum.c:1297
    381a:	f7ff ff86 	bl	372a <mbedtls_mpi_mul_mpi>
/media/wen/My_Passport/Raspbian/raspbian-tee/raspbian-tee/optee_os/lib/libmbedtls/mbedtls/library/bignum.c:1298
    381e:	b005      	add	sp, #20
    3820:	f85d fb04 	ldr.w	pc, [sp], #4

00003824 <mbedtls_mpi_read_string>:
mbedtls_mpi_read_string():
/media/wen/My_Passport/Raspbian/raspbian-tee/raspbian-tee/optee_os/lib/libmbedtls/mbedtls/library/bignum.c:508
    3824:	1e8b      	subs	r3, r1, #2
/media/wen/My_Passport/Raspbian/raspbian-tee/raspbian-tee/optee_os/lib/libmbedtls/mbedtls/library/bignum.c:502
    3826:	e92d 4ff0 	stmdb	sp!, {r4, r5, r6, r7, r8, r9, sl, fp, lr}
/media/wen/My_Passport/Raspbian/raspbian-tee/raspbian-tee/optee_os/lib/libmbedtls/mbedtls/library/bignum.c:508
    382a:	2b0e      	cmp	r3, #14
/media/wen/My_Passport/Raspbian/raspbian-tee/raspbian-tee/optee_os/lib/libmbedtls/mbedtls/library/bignum.c:502
    382c:	b087      	sub	sp, #28
    382e:	4605      	mov	r5, r0
    3830:	4689      	mov	r9, r1
    3832:	4690      	mov	r8, r2
/media/wen/My_Passport/Raspbian/raspbian-tee/raspbian-tee/optee_os/lib/libmbedtls/mbedtls/library/bignum.c:508
    3834:	d905      	bls.n	3842 <mbedtls_mpi_read_string+0x1e>
/media/wen/My_Passport/Raspbian/raspbian-tee/raspbian-tee/optee_os/lib/libmbedtls/mbedtls/library/bignum.c:509
    3836:	f06f 0a03 	mvn.w	sl, #3
/media/wen/My_Passport/Raspbian/raspbian-tee/raspbian-tee/optee_os/lib/libmbedtls/mbedtls/library/bignum.c:568
    383a:	4650      	mov	r0, sl
    383c:	b007      	add	sp, #28
    383e:	e8bd 8ff0 	ldmia.w	sp!, {r4, r5, r6, r7, r8, r9, sl, fp, pc}
/media/wen/My_Passport/Raspbian/raspbian-tee/raspbian-tee/optee_os/lib/libmbedtls/mbedtls/library/bignum.c:511
    3842:	ae03      	add	r6, sp, #12
    3844:	4630      	mov	r0, r6
    3846:	f7ff fa97 	bl	2d78 <mbedtls_mpi_init_mempool>
/media/wen/My_Passport/Raspbian/raspbian-tee/raspbian-tee/optee_os/lib/libmbedtls/mbedtls/library/bignum.c:513
    384a:	4640      	mov	r0, r8
    384c:	f002 fa72 	bl	5d34 <strlen>
/media/wen/My_Passport/Raspbian/raspbian-tee/raspbian-tee/optee_os/lib/libmbedtls/mbedtls/library/bignum.c:515
    3850:	f1b9 0f10 	cmp.w	r9, #16
/media/wen/My_Passport/Raspbian/raspbian-tee/raspbian-tee/optee_os/lib/libmbedtls/mbedtls/library/bignum.c:513
    3854:	4604      	mov	r4, r0
/media/wen/My_Passport/Raspbian/raspbian-tee/raspbian-tee/optee_os/lib/libmbedtls/mbedtls/library/bignum.c:515
    3856:	d141      	bne.n	38dc <mbedtls_mpi_read_string+0xb8>
/media/wen/My_Passport/Raspbian/raspbian-tee/raspbian-tee/optee_os/lib/libmbedtls/mbedtls/library/bignum.c:517
    3858:	f1b0 4f80 	cmp.w	r0, #1073741824	; 0x40000000
    385c:	d2eb      	bcs.n	3836 <mbedtls_mpi_read_string+0x12>
/media/wen/My_Passport/Raspbian/raspbian-tee/raspbian-tee/optee_os/lib/libmbedtls/mbedtls/library/bignum.c:520
    385e:	0083      	lsls	r3, r0, #2
    3860:	2101      	movs	r1, #1
    3862:	f013 0f1c 	tst.w	r3, #28
/media/wen/My_Passport/Raspbian/raspbian-tee/raspbian-tee/optee_os/lib/libmbedtls/mbedtls/library/bignum.c:522
    3866:	4628      	mov	r0, r5
/media/wen/My_Passport/Raspbian/raspbian-tee/raspbian-tee/optee_os/lib/libmbedtls/mbedtls/library/bignum.c:520
    3868:	bf08      	it	eq
    386a:	2100      	moveq	r1, #0
/media/wen/My_Passport/Raspbian/raspbian-tee/raspbian-tee/optee_os/lib/libmbedtls/mbedtls/library/bignum.c:522
    386c:	eb01 1153 	add.w	r1, r1, r3, lsr #5
    3870:	f7ff fac4 	bl	2dfc <mbedtls_mpi_grow>
    3874:	4682      	mov	sl, r0
    3876:	b9a0      	cbnz	r0, 38a2 <mbedtls_mpi_read_string+0x7e>
/media/wen/My_Passport/Raspbian/raspbian-tee/raspbian-tee/optee_os/lib/libmbedtls/mbedtls/library/bignum.c:523
    3878:	4601      	mov	r1, r0
    387a:	4628      	mov	r0, r5
    387c:	f7ff fc35 	bl	30ea <mbedtls_mpi_lset>
    3880:	4682      	mov	sl, r0
    3882:	b970      	cbnz	r0, 38a2 <mbedtls_mpi_read_string+0x7e>
    3884:	4607      	mov	r7, r0
/media/wen/My_Passport/Raspbian/raspbian-tee/raspbian-tee/optee_os/lib/libmbedtls/mbedtls/library/bignum.c:533 (discriminator 1)
    3886:	f10d 0908 	add.w	r9, sp, #8
/media/wen/My_Passport/Raspbian/raspbian-tee/raspbian-tee/optee_os/lib/libmbedtls/mbedtls/library/bignum.c:525 (discriminator 1)
    388a:	b914      	cbnz	r4, 3892 <mbedtls_mpi_read_string+0x6e>
/media/wen/My_Passport/Raspbian/raspbian-tee/raspbian-tee/optee_os/lib/libmbedtls/mbedtls/library/bignum.c:533
    388c:	f04f 0a00 	mov.w	sl, #0
    3890:	e007      	b.n	38a2 <mbedtls_mpi_read_string+0x7e>
/media/wen/My_Passport/Raspbian/raspbian-tee/raspbian-tee/optee_os/lib/libmbedtls/mbedtls/library/bignum.c:527
    3892:	2c01      	cmp	r4, #1
    3894:	d109      	bne.n	38aa <mbedtls_mpi_read_string+0x86>
/media/wen/My_Passport/Raspbian/raspbian-tee/raspbian-tee/optee_os/lib/libmbedtls/mbedtls/library/bignum.c:527 (discriminator 1)
    3896:	f898 2000 	ldrb.w	r2, [r8]
    389a:	2a2d      	cmp	r2, #45	; 0x2d
    389c:	d105      	bne.n	38aa <mbedtls_mpi_read_string+0x86>
/media/wen/My_Passport/Raspbian/raspbian-tee/raspbian-tee/optee_os/lib/libmbedtls/mbedtls/library/bignum.c:529
    389e:	22ff      	movs	r2, #255	; 0xff
    38a0:	702a      	strb	r2, [r5, #0]
/media/wen/My_Passport/Raspbian/raspbian-tee/raspbian-tee/optee_os/lib/libmbedtls/mbedtls/library/bignum.c:565
    38a2:	4630      	mov	r0, r6
    38a4:	f7ff fa83 	bl	2dae <mbedtls_mpi_free>
/media/wen/My_Passport/Raspbian/raspbian-tee/raspbian-tee/optee_os/lib/libmbedtls/mbedtls/library/bignum.c:567
    38a8:	e7c7      	b.n	383a <mbedtls_mpi_read_string+0x16>
/media/wen/My_Passport/Raspbian/raspbian-tee/raspbian-tee/optee_os/lib/libmbedtls/mbedtls/library/bignum.c:533
    38aa:	3c01      	subs	r4, #1
    38ac:	2110      	movs	r1, #16
    38ae:	4648      	mov	r0, r9
    38b0:	f818 2004 	ldrb.w	r2, [r8, r4]
    38b4:	f7ff f828 	bl	2908 <mpi_get_digit>
    38b8:	2800      	cmp	r0, #0
    38ba:	d147      	bne.n	394c <mbedtls_mpi_read_string+0x128>
/media/wen/My_Passport/Raspbian/raspbian-tee/raspbian-tee/optee_os/lib/libmbedtls/mbedtls/library/bignum.c:534 (discriminator 2)
    38bc:	68a8      	ldr	r0, [r5, #8]
    38be:	00b9      	lsls	r1, r7, #2
    38c0:	ea4f 0ed7 	mov.w	lr, r7, lsr #3
    38c4:	9a02      	ldr	r2, [sp, #8]
    38c6:	f001 011c 	and.w	r1, r1, #28
/media/wen/My_Passport/Raspbian/raspbian-tee/raspbian-tee/optee_os/lib/libmbedtls/mbedtls/library/bignum.c:525 (discriminator 2)
    38ca:	3701      	adds	r7, #1
/media/wen/My_Passport/Raspbian/raspbian-tee/raspbian-tee/optee_os/lib/libmbedtls/mbedtls/library/bignum.c:534 (discriminator 2)
    38cc:	fa02 f101 	lsl.w	r1, r2, r1
    38d0:	f850 202e 	ldr.w	r2, [r0, lr, lsl #2]
    38d4:	430a      	orrs	r2, r1
    38d6:	f840 202e 	str.w	r2, [r0, lr, lsl #2]
    38da:	e7d6      	b.n	388a <mbedtls_mpi_read_string+0x66>
/media/wen/My_Passport/Raspbian/raspbian-tee/raspbian-tee/optee_os/lib/libmbedtls/mbedtls/library/bignum.c:539
    38dc:	2100      	movs	r1, #0
    38de:	4628      	mov	r0, r5
    38e0:	f7ff fc03 	bl	30ea <mbedtls_mpi_lset>
    38e4:	4682      	mov	sl, r0
    38e6:	2800      	cmp	r0, #0
    38e8:	d1db      	bne.n	38a2 <mbedtls_mpi_read_string+0x7e>
/media/wen/My_Passport/Raspbian/raspbian-tee/raspbian-tee/optee_os/lib/libmbedtls/mbedtls/library/bignum.c:549 (discriminator 1)
    38ea:	ab02      	add	r3, sp, #8
    38ec:	4607      	mov	r7, r0
/media/wen/My_Passport/Raspbian/raspbian-tee/raspbian-tee/optee_os/lib/libmbedtls/mbedtls/library/bignum.c:545 (discriminator 1)
    38ee:	f04f 0bff 	mov.w	fp, #255	; 0xff
/media/wen/My_Passport/Raspbian/raspbian-tee/raspbian-tee/optee_os/lib/libmbedtls/mbedtls/library/bignum.c:549 (discriminator 1)
    38f2:	9301      	str	r3, [sp, #4]
/media/wen/My_Passport/Raspbian/raspbian-tee/raspbian-tee/optee_os/lib/libmbedtls/mbedtls/library/bignum.c:541 (discriminator 1)
    38f4:	42a7      	cmp	r7, r4
    38f6:	d0c9      	beq.n	388c <mbedtls_mpi_read_string+0x68>
/media/wen/My_Passport/Raspbian/raspbian-tee/raspbian-tee/optee_os/lib/libmbedtls/mbedtls/library/bignum.c:543
    38f8:	b93f      	cbnz	r7, 390a <mbedtls_mpi_read_string+0xe6>
/media/wen/My_Passport/Raspbian/raspbian-tee/raspbian-tee/optee_os/lib/libmbedtls/mbedtls/library/bignum.c:543 (discriminator 1)
    38fa:	f898 3000 	ldrb.w	r3, [r8]
    38fe:	2b2d      	cmp	r3, #45	; 0x2d
    3900:	d103      	bne.n	390a <mbedtls_mpi_read_string+0xe6>
/media/wen/My_Passport/Raspbian/raspbian-tee/raspbian-tee/optee_os/lib/libmbedtls/mbedtls/library/bignum.c:545
    3902:	f885 b000 	strb.w	fp, [r5]
/media/wen/My_Passport/Raspbian/raspbian-tee/raspbian-tee/optee_os/lib/libmbedtls/mbedtls/library/bignum.c:541 (discriminator 2)
    3906:	3701      	adds	r7, #1
    3908:	e7f4      	b.n	38f4 <mbedtls_mpi_read_string+0xd0>
/media/wen/My_Passport/Raspbian/raspbian-tee/raspbian-tee/optee_os/lib/libmbedtls/mbedtls/library/bignum.c:549
    390a:	f818 2007 	ldrb.w	r2, [r8, r7]
    390e:	4649      	mov	r1, r9
    3910:	9801      	ldr	r0, [sp, #4]
    3912:	f7fe fff9 	bl	2908 <mpi_get_digit>
    3916:	4682      	mov	sl, r0
    3918:	2800      	cmp	r0, #0
    391a:	d1c2      	bne.n	38a2 <mbedtls_mpi_read_string+0x7e>
/media/wen/My_Passport/Raspbian/raspbian-tee/raspbian-tee/optee_os/lib/libmbedtls/mbedtls/library/bignum.c:550
    391c:	464a      	mov	r2, r9
    391e:	4629      	mov	r1, r5
    3920:	4630      	mov	r0, r6
    3922:	f7ff ff70 	bl	3806 <mbedtls_mpi_mul_int>
    3926:	4682      	mov	sl, r0
    3928:	2800      	cmp	r0, #0
    392a:	d1ba      	bne.n	38a2 <mbedtls_mpi_read_string+0x7e>
/media/wen/My_Passport/Raspbian/raspbian-tee/raspbian-tee/optee_os/lib/libmbedtls/mbedtls/library/bignum.c:552
    392c:	f995 3000 	ldrsb.w	r3, [r5]
/media/wen/My_Passport/Raspbian/raspbian-tee/raspbian-tee/optee_os/lib/libmbedtls/mbedtls/library/bignum.c:554
    3930:	4631      	mov	r1, r6
    3932:	9a02      	ldr	r2, [sp, #8]
    3934:	4628      	mov	r0, r5
/media/wen/My_Passport/Raspbian/raspbian-tee/raspbian-tee/optee_os/lib/libmbedtls/mbedtls/library/bignum.c:552
    3936:	2b01      	cmp	r3, #1
    3938:	d105      	bne.n	3946 <mbedtls_mpi_read_string+0x122>
/media/wen/My_Passport/Raspbian/raspbian-tee/raspbian-tee/optee_os/lib/libmbedtls/mbedtls/library/bignum.c:554
    393a:	f7ff fec6 	bl	36ca <mbedtls_mpi_add_int>
/media/wen/My_Passport/Raspbian/raspbian-tee/raspbian-tee/optee_os/lib/libmbedtls/mbedtls/library/bignum.c:558
    393e:	4682      	mov	sl, r0
    3940:	2800      	cmp	r0, #0
    3942:	d0e0      	beq.n	3906 <mbedtls_mpi_read_string+0xe2>
    3944:	e7ad      	b.n	38a2 <mbedtls_mpi_read_string+0x7e>
    3946:	f7ff fed8 	bl	36fa <mbedtls_mpi_sub_int>
    394a:	e7f8      	b.n	393e <mbedtls_mpi_read_string+0x11a>
/media/wen/My_Passport/Raspbian/raspbian-tee/raspbian-tee/optee_os/lib/libmbedtls/mbedtls/library/bignum.c:533
    394c:	4682      	mov	sl, r0
    394e:	e7a8      	b.n	38a2 <mbedtls_mpi_read_string+0x7e>

00003950 <mbedtls_mpi_div_mpi>:
mbedtls_mpi_div_mpi():
/media/wen/My_Passport/Raspbian/raspbian-tee/raspbian-tee/optee_os/lib/libmbedtls/mbedtls/library/bignum.c:1400
    3950:	e92d 4ff0 	stmdb	sp!, {r4, r5, r6, r7, r8, r9, sl, fp, lr}
    3954:	4691      	mov	r9, r2
    3956:	b09d      	sub	sp, #116	; 0x74
    3958:	9003      	str	r0, [sp, #12]
/media/wen/My_Passport/Raspbian/raspbian-tee/raspbian-tee/optee_os/lib/libmbedtls/mbedtls/library/bignum.c:1405
    395a:	4618      	mov	r0, r3
/media/wen/My_Passport/Raspbian/raspbian-tee/raspbian-tee/optee_os/lib/libmbedtls/mbedtls/library/bignum.c:1400
    395c:	9101      	str	r1, [sp, #4]
/media/wen/My_Passport/Raspbian/raspbian-tee/raspbian-tee/optee_os/lib/libmbedtls/mbedtls/library/bignum.c:1405
    395e:	2100      	movs	r1, #0
/media/wen/My_Passport/Raspbian/raspbian-tee/raspbian-tee/optee_os/lib/libmbedtls/mbedtls/library/bignum.c:1400
    3960:	9306      	str	r3, [sp, #24]
/media/wen/My_Passport/Raspbian/raspbian-tee/raspbian-tee/optee_os/lib/libmbedtls/mbedtls/library/bignum.c:1405
    3962:	f7ff fdb5 	bl	34d0 <mbedtls_mpi_cmp_int>
    3966:	2800      	cmp	r0, #0
    3968:	f000 81c0 	beq.w	3cec <mbedtls_mpi_div_mpi+0x39c>
/media/wen/My_Passport/Raspbian/raspbian-tee/raspbian-tee/optee_os/lib/libmbedtls/mbedtls/library/bignum.c:1408
    396c:	ae0d      	add	r6, sp, #52	; 0x34
    396e:	ad10      	add	r5, sp, #64	; 0x40
    3970:	4630      	mov	r0, r6
/media/wen/My_Passport/Raspbian/raspbian-tee/raspbian-tee/optee_os/lib/libmbedtls/mbedtls/library/bignum.c:1409
    3972:	af13      	add	r7, sp, #76	; 0x4c
/media/wen/My_Passport/Raspbian/raspbian-tee/raspbian-tee/optee_os/lib/libmbedtls/mbedtls/library/bignum.c:1408
    3974:	f7ff fa00 	bl	2d78 <mbedtls_mpi_init_mempool>
    3978:	4628      	mov	r0, r5
    397a:	f7ff f9fd 	bl	2d78 <mbedtls_mpi_init_mempool>
/media/wen/My_Passport/Raspbian/raspbian-tee/raspbian-tee/optee_os/lib/libmbedtls/mbedtls/library/bignum.c:1409
    397e:	f10d 0a58 	add.w	sl, sp, #88	; 0x58
    3982:	4638      	mov	r0, r7
/media/wen/My_Passport/Raspbian/raspbian-tee/raspbian-tee/optee_os/lib/libmbedtls/mbedtls/library/bignum.c:1410
    3984:	f10d 0864 	add.w	r8, sp, #100	; 0x64
/media/wen/My_Passport/Raspbian/raspbian-tee/raspbian-tee/optee_os/lib/libmbedtls/mbedtls/library/bignum.c:1409
    3988:	f7ff f9f6 	bl	2d78 <mbedtls_mpi_init_mempool>
    398c:	4650      	mov	r0, sl
    398e:	f7ff f9f3 	bl	2d78 <mbedtls_mpi_init_mempool>
/media/wen/My_Passport/Raspbian/raspbian-tee/raspbian-tee/optee_os/lib/libmbedtls/mbedtls/library/bignum.c:1410
    3992:	4640      	mov	r0, r8
    3994:	f7ff f9f0 	bl	2d78 <mbedtls_mpi_init_mempool>
/media/wen/My_Passport/Raspbian/raspbian-tee/raspbian-tee/optee_os/lib/libmbedtls/mbedtls/library/bignum.c:1412
    3998:	9906      	ldr	r1, [sp, #24]
    399a:	4648      	mov	r0, r9
    399c:	f7ff fd16 	bl	33cc <mbedtls_mpi_cmp_abs>
    39a0:	2800      	cmp	r0, #0
    39a2:	da27      	bge.n	39f4 <mbedtls_mpi_div_mpi+0xa4>
/media/wen/My_Passport/Raspbian/raspbian-tee/raspbian-tee/optee_os/lib/libmbedtls/mbedtls/library/bignum.c:1414
    39a4:	9b03      	ldr	r3, [sp, #12]
    39a6:	b933      	cbnz	r3, 39b6 <mbedtls_mpi_div_mpi+0x66>
/media/wen/My_Passport/Raspbian/raspbian-tee/raspbian-tee/optee_os/lib/libmbedtls/mbedtls/library/bignum.c:1415
    39a8:	9b01      	ldr	r3, [sp, #4]
    39aa:	b9db      	cbnz	r3, 39e4 <mbedtls_mpi_div_mpi+0x94>
/media/wen/My_Passport/Raspbian/raspbian-tee/raspbian-tee/optee_os/lib/libmbedtls/mbedtls/library/bignum.c:1416
    39ac:	2400      	movs	r4, #0
/media/wen/My_Passport/Raspbian/raspbian-tee/raspbian-tee/optee_os/lib/libmbedtls/mbedtls/library/bignum.c:1510
    39ae:	4620      	mov	r0, r4
    39b0:	b01d      	add	sp, #116	; 0x74
    39b2:	e8bd 8ff0 	ldmia.w	sp!, {r4, r5, r6, r7, r8, r9, sl, fp, pc}
/media/wen/My_Passport/Raspbian/raspbian-tee/raspbian-tee/optee_os/lib/libmbedtls/mbedtls/library/bignum.c:1414 (discriminator 1)
    39b6:	2100      	movs	r1, #0
    39b8:	9803      	ldr	r0, [sp, #12]
    39ba:	f7ff fb96 	bl	30ea <mbedtls_mpi_lset>
    39be:	4604      	mov	r4, r0
    39c0:	2800      	cmp	r0, #0
    39c2:	d0f1      	beq.n	39a8 <mbedtls_mpi_div_mpi+0x58>
/media/wen/My_Passport/Raspbian/raspbian-tee/raspbian-tee/optee_os/lib/libmbedtls/mbedtls/library/bignum.c:1506
    39c4:	a80d      	add	r0, sp, #52	; 0x34
    39c6:	f7ff f9f2 	bl	2dae <mbedtls_mpi_free>
    39ca:	a810      	add	r0, sp, #64	; 0x40
    39cc:	f7ff f9ef 	bl	2dae <mbedtls_mpi_free>
    39d0:	a813      	add	r0, sp, #76	; 0x4c
    39d2:	f7ff f9ec 	bl	2dae <mbedtls_mpi_free>
/media/wen/My_Passport/Raspbian/raspbian-tee/raspbian-tee/optee_os/lib/libmbedtls/mbedtls/library/bignum.c:1507
    39d6:	a816      	add	r0, sp, #88	; 0x58
    39d8:	f7ff f9e9 	bl	2dae <mbedtls_mpi_free>
    39dc:	a819      	add	r0, sp, #100	; 0x64
    39de:	f7ff f9e6 	bl	2dae <mbedtls_mpi_free>
/media/wen/My_Passport/Raspbian/raspbian-tee/raspbian-tee/optee_os/lib/libmbedtls/mbedtls/library/bignum.c:1509
    39e2:	e7e4      	b.n	39ae <mbedtls_mpi_div_mpi+0x5e>
/media/wen/My_Passport/Raspbian/raspbian-tee/raspbian-tee/optee_os/lib/libmbedtls/mbedtls/library/bignum.c:1415 (discriminator 1)
    39e4:	4649      	mov	r1, r9
    39e6:	9801      	ldr	r0, [sp, #4]
    39e8:	f7ff fac4 	bl	2f74 <mbedtls_mpi_copy>
    39ec:	4604      	mov	r4, r0
    39ee:	2800      	cmp	r0, #0
    39f0:	d1e8      	bne.n	39c4 <mbedtls_mpi_div_mpi+0x74>
    39f2:	e7db      	b.n	39ac <mbedtls_mpi_div_mpi+0x5c>
/media/wen/My_Passport/Raspbian/raspbian-tee/raspbian-tee/optee_os/lib/libmbedtls/mbedtls/library/bignum.c:1419
    39f4:	4649      	mov	r1, r9
    39f6:	4630      	mov	r0, r6
    39f8:	f7ff fabc 	bl	2f74 <mbedtls_mpi_copy>
    39fc:	4604      	mov	r4, r0
    39fe:	2800      	cmp	r0, #0
    3a00:	d1e0      	bne.n	39c4 <mbedtls_mpi_div_mpi+0x74>
/media/wen/My_Passport/Raspbian/raspbian-tee/raspbian-tee/optee_os/lib/libmbedtls/mbedtls/library/bignum.c:1420
    3a02:	9906      	ldr	r1, [sp, #24]
    3a04:	4628      	mov	r0, r5
    3a06:	f7ff fab5 	bl	2f74 <mbedtls_mpi_copy>
    3a0a:	4604      	mov	r4, r0
    3a0c:	2800      	cmp	r0, #0
    3a0e:	d1d9      	bne.n	39c4 <mbedtls_mpi_div_mpi+0x74>
/media/wen/My_Passport/Raspbian/raspbian-tee/raspbian-tee/optee_os/lib/libmbedtls/mbedtls/library/bignum.c:1423
    3a10:	f8b9 1004 	ldrh.w	r1, [r9, #4]
/media/wen/My_Passport/Raspbian/raspbian-tee/raspbian-tee/optee_os/lib/libmbedtls/mbedtls/library/bignum.c:1421
    3a14:	2301      	movs	r3, #1
/media/wen/My_Passport/Raspbian/raspbian-tee/raspbian-tee/optee_os/lib/libmbedtls/mbedtls/library/bignum.c:1423
    3a16:	4638      	mov	r0, r7
/media/wen/My_Passport/Raspbian/raspbian-tee/raspbian-tee/optee_os/lib/libmbedtls/mbedtls/library/bignum.c:1421
    3a18:	f88d 3040 	strb.w	r3, [sp, #64]	; 0x40
/media/wen/My_Passport/Raspbian/raspbian-tee/raspbian-tee/optee_os/lib/libmbedtls/mbedtls/library/bignum.c:1423
    3a1c:	3102      	adds	r1, #2
/media/wen/My_Passport/Raspbian/raspbian-tee/raspbian-tee/optee_os/lib/libmbedtls/mbedtls/library/bignum.c:1421
    3a1e:	f88d 3034 	strb.w	r3, [sp, #52]	; 0x34
/media/wen/My_Passport/Raspbian/raspbian-tee/raspbian-tee/optee_os/lib/libmbedtls/mbedtls/library/bignum.c:1423
    3a22:	f7ff f9eb 	bl	2dfc <mbedtls_mpi_grow>
    3a26:	4604      	mov	r4, r0
    3a28:	2800      	cmp	r0, #0
    3a2a:	d1cb      	bne.n	39c4 <mbedtls_mpi_div_mpi+0x74>
/media/wen/My_Passport/Raspbian/raspbian-tee/raspbian-tee/optee_os/lib/libmbedtls/mbedtls/library/bignum.c:1424
    3a2c:	4601      	mov	r1, r0
    3a2e:	4638      	mov	r0, r7
    3a30:	f7ff fb5b 	bl	30ea <mbedtls_mpi_lset>
    3a34:	4604      	mov	r4, r0
    3a36:	2800      	cmp	r0, #0
    3a38:	d1c4      	bne.n	39c4 <mbedtls_mpi_div_mpi+0x74>
/media/wen/My_Passport/Raspbian/raspbian-tee/raspbian-tee/optee_os/lib/libmbedtls/mbedtls/library/bignum.c:1425
    3a3a:	2102      	movs	r1, #2
    3a3c:	4650      	mov	r0, sl
    3a3e:	f7ff f9dd 	bl	2dfc <mbedtls_mpi_grow>
    3a42:	4604      	mov	r4, r0
    3a44:	2800      	cmp	r0, #0
    3a46:	d1bd      	bne.n	39c4 <mbedtls_mpi_div_mpi+0x74>
/media/wen/My_Passport/Raspbian/raspbian-tee/raspbian-tee/optee_os/lib/libmbedtls/mbedtls/library/bignum.c:1426
    3a48:	2103      	movs	r1, #3
    3a4a:	4640      	mov	r0, r8
    3a4c:	f7ff f9d6 	bl	2dfc <mbedtls_mpi_grow>
    3a50:	4604      	mov	r4, r0
    3a52:	2800      	cmp	r0, #0
    3a54:	d1b6      	bne.n	39c4 <mbedtls_mpi_div_mpi+0x74>
/media/wen/My_Passport/Raspbian/raspbian-tee/raspbian-tee/optee_os/lib/libmbedtls/mbedtls/library/bignum.c:1428
    3a56:	4628      	mov	r0, r5
    3a58:	f7ff fbb2 	bl	31c0 <mbedtls_mpi_bitlen>
    3a5c:	f000 001f 	and.w	r0, r0, #31
/media/wen/My_Passport/Raspbian/raspbian-tee/raspbian-tee/optee_os/lib/libmbedtls/mbedtls/library/bignum.c:1429
    3a60:	281f      	cmp	r0, #31
    3a62:	d07f      	beq.n	3b64 <mbedtls_mpi_div_mpi+0x214>
/media/wen/My_Passport/Raspbian/raspbian-tee/raspbian-tee/optee_os/lib/libmbedtls/mbedtls/library/bignum.c:1431
    3a64:	f1c0 031f 	rsb	r3, r0, #31
/media/wen/My_Passport/Raspbian/raspbian-tee/raspbian-tee/optee_os/lib/libmbedtls/mbedtls/library/bignum.c:1432
    3a68:	4630      	mov	r0, r6
    3a6a:	4619      	mov	r1, r3
/media/wen/My_Passport/Raspbian/raspbian-tee/raspbian-tee/optee_os/lib/libmbedtls/mbedtls/library/bignum.c:1431
    3a6c:	9304      	str	r3, [sp, #16]
/media/wen/My_Passport/Raspbian/raspbian-tee/raspbian-tee/optee_os/lib/libmbedtls/mbedtls/library/bignum.c:1432
    3a6e:	f7ff fc25 	bl	32bc <mbedtls_mpi_shift_l>
    3a72:	4604      	mov	r4, r0
    3a74:	2800      	cmp	r0, #0
    3a76:	d1a5      	bne.n	39c4 <mbedtls_mpi_div_mpi+0x74>
/media/wen/My_Passport/Raspbian/raspbian-tee/raspbian-tee/optee_os/lib/libmbedtls/mbedtls/library/bignum.c:1433
    3a78:	9904      	ldr	r1, [sp, #16]
    3a7a:	4628      	mov	r0, r5
    3a7c:	f7ff fc1e 	bl	32bc <mbedtls_mpi_shift_l>
    3a80:	4604      	mov	r4, r0
    3a82:	2800      	cmp	r0, #0
    3a84:	d19e      	bne.n	39c4 <mbedtls_mpi_div_mpi+0x74>
/media/wen/My_Passport/Raspbian/raspbian-tee/raspbian-tee/optee_os/lib/libmbedtls/mbedtls/library/bignum.c:1437
    3a86:	f8bd 6038 	ldrh.w	r6, [sp, #56]	; 0x38
/media/wen/My_Passport/Raspbian/raspbian-tee/raspbian-tee/optee_os/lib/libmbedtls/mbedtls/library/bignum.c:1439
    3a8a:	4628      	mov	r0, r5
/media/wen/My_Passport/Raspbian/raspbian-tee/raspbian-tee/optee_os/lib/libmbedtls/mbedtls/library/bignum.c:1438
    3a8c:	f8bd 7044 	ldrh.w	r7, [sp, #68]	; 0x44
/media/wen/My_Passport/Raspbian/raspbian-tee/raspbian-tee/optee_os/lib/libmbedtls/mbedtls/library/bignum.c:1437
    3a90:	f106 38ff 	add.w	r8, r6, #4294967295
/media/wen/My_Passport/Raspbian/raspbian-tee/raspbian-tee/optee_os/lib/libmbedtls/mbedtls/library/bignum.c:1438
    3a94:	1e7b      	subs	r3, r7, #1
/media/wen/My_Passport/Raspbian/raspbian-tee/raspbian-tee/optee_os/lib/libmbedtls/mbedtls/library/bignum.c:1439
    3a96:	eba8 0b03 	sub.w	fp, r8, r3
/media/wen/My_Passport/Raspbian/raspbian-tee/raspbian-tee/optee_os/lib/libmbedtls/mbedtls/library/bignum.c:1438
    3a9a:	9302      	str	r3, [sp, #8]
/media/wen/My_Passport/Raspbian/raspbian-tee/raspbian-tee/optee_os/lib/libmbedtls/mbedtls/library/bignum.c:1439
    3a9c:	ea4f 134b 	mov.w	r3, fp, lsl #5
    3aa0:	4619      	mov	r1, r3
    3aa2:	9305      	str	r3, [sp, #20]
    3aa4:	f7ff fc0a 	bl	32bc <mbedtls_mpi_shift_l>
    3aa8:	4604      	mov	r4, r0
    3aaa:	2800      	cmp	r0, #0
    3aac:	d18a      	bne.n	39c4 <mbedtls_mpi_div_mpi+0x74>
/media/wen/My_Passport/Raspbian/raspbian-tee/raspbian-tee/optee_os/lib/libmbedtls/mbedtls/library/bignum.c:1443
    3aae:	ea4f 0b8b 	mov.w	fp, fp, lsl #2
/media/wen/My_Passport/Raspbian/raspbian-tee/raspbian-tee/optee_os/lib/libmbedtls/mbedtls/library/bignum.c:1441
    3ab2:	f10d 0a34 	add.w	sl, sp, #52	; 0x34
    3ab6:	4629      	mov	r1, r5
    3ab8:	4650      	mov	r0, sl
    3aba:	f7ff fcbe 	bl	343a <mbedtls_mpi_cmp_mpi>
    3abe:	2800      	cmp	r0, #0
    3ac0:	da52      	bge.n	3b68 <mbedtls_mpi_div_mpi+0x218>
/media/wen/My_Passport/Raspbian/raspbian-tee/raspbian-tee/optee_os/lib/libmbedtls/mbedtls/library/bignum.c:1446
    3ac2:	9905      	ldr	r1, [sp, #20]
    3ac4:	4628      	mov	r0, r5
    3ac6:	f7ff fc45 	bl	3354 <mbedtls_mpi_shift_r>
    3aca:	4604      	mov	r4, r0
    3acc:	2800      	cmp	r0, #0
    3ace:	f47f af79 	bne.w	39c4 <mbedtls_mpi_div_mpi+0x74>
/media/wen/My_Passport/Raspbian/raspbian-tee/raspbian-tee/optee_os/lib/libmbedtls/mbedtls/library/bignum.c:1450
    3ad2:	9b02      	ldr	r3, [sp, #8]
    3ad4:	f106 4580 	add.w	r5, r6, #1073741824	; 0x40000000
    3ad8:	3d01      	subs	r5, #1
    3ada:	1bed      	subs	r5, r5, r7
    3adc:	009b      	lsls	r3, r3, #2
    3ade:	9307      	str	r3, [sp, #28]
/media/wen/My_Passport/Raspbian/raspbian-tee/raspbian-tee/optee_os/lib/libmbedtls/mbedtls/library/bignum.c:1464
    3ae0:	3b04      	subs	r3, #4
    3ae2:	930b      	str	r3, [sp, #44]	; 0x2c
    3ae4:	f106 6300 	add.w	r3, r6, #134217728	; 0x8000000
    3ae8:	3b01      	subs	r3, #1
    3aea:	f106 4680 	add.w	r6, r6, #1073741824	; 0x40000000
    3aee:	1bdf      	subs	r7, r3, r7
    3af0:	3e02      	subs	r6, #2
    3af2:	00ad      	lsls	r5, r5, #2
    3af4:	017b      	lsls	r3, r7, #5
    3af6:	00b6      	lsls	r6, r6, #2
    3af8:	9305      	str	r3, [sp, #20]
/media/wen/My_Passport/Raspbian/raspbian-tee/raspbian-tee/optee_os/lib/libmbedtls/mbedtls/library/bignum.c:1468
    3afa:	ab19      	add	r3, sp, #100	; 0x64
    3afc:	930a      	str	r3, [sp, #40]	; 0x28
/media/wen/My_Passport/Raspbian/raspbian-tee/raspbian-tee/optee_os/lib/libmbedtls/mbedtls/library/bignum.c:1448 (discriminator 1)
    3afe:	9b02      	ldr	r3, [sp, #8]
    3b00:	4598      	cmp	r8, r3
    3b02:	d840      	bhi.n	3b86 <mbedtls_mpi_div_mpi+0x236>
/media/wen/My_Passport/Raspbian/raspbian-tee/raspbian-tee/optee_os/lib/libmbedtls/mbedtls/library/bignum.c:1488
    3b04:	9b03      	ldr	r3, [sp, #12]
    3b06:	b163      	cbz	r3, 3b22 <mbedtls_mpi_div_mpi+0x1d2>
/media/wen/My_Passport/Raspbian/raspbian-tee/raspbian-tee/optee_os/lib/libmbedtls/mbedtls/library/bignum.c:1490
    3b08:	a913      	add	r1, sp, #76	; 0x4c
    3b0a:	4618      	mov	r0, r3
    3b0c:	f7ff fa32 	bl	2f74 <mbedtls_mpi_copy>
    3b10:	bb30      	cbnz	r0, 3b60 <mbedtls_mpi_div_mpi+0x210>
/media/wen/My_Passport/Raspbian/raspbian-tee/raspbian-tee/optee_os/lib/libmbedtls/mbedtls/library/bignum.c:1491
    3b12:	9a06      	ldr	r2, [sp, #24]
    3b14:	f899 3000 	ldrb.w	r3, [r9]
    3b18:	7812      	ldrb	r2, [r2, #0]
    3b1a:	fb13 f302 	smulbb	r3, r3, r2
    3b1e:	9a03      	ldr	r2, [sp, #12]
    3b20:	7013      	strb	r3, [r2, #0]
/media/wen/My_Passport/Raspbian/raspbian-tee/raspbian-tee/optee_os/lib/libmbedtls/mbedtls/library/bignum.c:1494
    3b22:	9b01      	ldr	r3, [sp, #4]
    3b24:	2b00      	cmp	r3, #0
    3b26:	f43f af4d 	beq.w	39c4 <mbedtls_mpi_div_mpi+0x74>
/media/wen/My_Passport/Raspbian/raspbian-tee/raspbian-tee/optee_os/lib/libmbedtls/mbedtls/library/bignum.c:1496
    3b2a:	ad0d      	add	r5, sp, #52	; 0x34
    3b2c:	9904      	ldr	r1, [sp, #16]
    3b2e:	4628      	mov	r0, r5
    3b30:	f7ff fc10 	bl	3354 <mbedtls_mpi_shift_r>
    3b34:	b9a0      	cbnz	r0, 3b60 <mbedtls_mpi_div_mpi+0x210>
/media/wen/My_Passport/Raspbian/raspbian-tee/raspbian-tee/optee_os/lib/libmbedtls/mbedtls/library/bignum.c:1497
    3b36:	f899 3000 	ldrb.w	r3, [r9]
/media/wen/My_Passport/Raspbian/raspbian-tee/raspbian-tee/optee_os/lib/libmbedtls/mbedtls/library/bignum.c:1498
    3b3a:	4629      	mov	r1, r5
    3b3c:	9801      	ldr	r0, [sp, #4]
/media/wen/My_Passport/Raspbian/raspbian-tee/raspbian-tee/optee_os/lib/libmbedtls/mbedtls/library/bignum.c:1497
    3b3e:	f88d 3034 	strb.w	r3, [sp, #52]	; 0x34
/media/wen/My_Passport/Raspbian/raspbian-tee/raspbian-tee/optee_os/lib/libmbedtls/mbedtls/library/bignum.c:1498
    3b42:	f7ff fa17 	bl	2f74 <mbedtls_mpi_copy>
    3b46:	4601      	mov	r1, r0
    3b48:	2800      	cmp	r0, #0
    3b4a:	f040 80cd 	bne.w	3ce8 <mbedtls_mpi_div_mpi+0x398>
/media/wen/My_Passport/Raspbian/raspbian-tee/raspbian-tee/optee_os/lib/libmbedtls/mbedtls/library/bignum.c:1500
    3b4e:	9801      	ldr	r0, [sp, #4]
    3b50:	f7ff fcbe 	bl	34d0 <mbedtls_mpi_cmp_int>
    3b54:	2800      	cmp	r0, #0
    3b56:	f47f af35 	bne.w	39c4 <mbedtls_mpi_div_mpi+0x74>
/media/wen/My_Passport/Raspbian/raspbian-tee/raspbian-tee/optee_os/lib/libmbedtls/mbedtls/library/bignum.c:1501
    3b5a:	9a01      	ldr	r2, [sp, #4]
    3b5c:	2301      	movs	r3, #1
    3b5e:	7013      	strb	r3, [r2, #0]
    3b60:	4604      	mov	r4, r0
    3b62:	e72f      	b.n	39c4 <mbedtls_mpi_div_mpi+0x74>
/media/wen/My_Passport/Raspbian/raspbian-tee/raspbian-tee/optee_os/lib/libmbedtls/mbedtls/library/bignum.c:1435
    3b64:	9404      	str	r4, [sp, #16]
    3b66:	e78e      	b.n	3a86 <mbedtls_mpi_div_mpi+0x136>
/media/wen/My_Passport/Raspbian/raspbian-tee/raspbian-tee/optee_os/lib/libmbedtls/mbedtls/library/bignum.c:1443
    3b68:	9915      	ldr	r1, [sp, #84]	; 0x54
/media/wen/My_Passport/Raspbian/raspbian-tee/raspbian-tee/optee_os/lib/libmbedtls/mbedtls/library/bignum.c:1444
    3b6a:	4650      	mov	r0, sl
/media/wen/My_Passport/Raspbian/raspbian-tee/raspbian-tee/optee_os/lib/libmbedtls/mbedtls/library/bignum.c:1443
    3b6c:	f851 200b 	ldr.w	r2, [r1, fp]
    3b70:	3201      	adds	r2, #1
    3b72:	f841 200b 	str.w	r2, [r1, fp]
/media/wen/My_Passport/Raspbian/raspbian-tee/raspbian-tee/optee_os/lib/libmbedtls/mbedtls/library/bignum.c:1444
    3b76:	462a      	mov	r2, r5
    3b78:	4651      	mov	r1, sl
    3b7a:	f7ff fd80 	bl	367e <mbedtls_mpi_sub_mpi>
    3b7e:	4604      	mov	r4, r0
    3b80:	2800      	cmp	r0, #0
    3b82:	d098      	beq.n	3ab6 <mbedtls_mpi_div_mpi+0x166>
    3b84:	e71e      	b.n	39c4 <mbedtls_mpi_div_mpi+0x74>
/media/wen/My_Passport/Raspbian/raspbian-tee/raspbian-tee/optee_os/lib/libmbedtls/mbedtls/library/bignum.c:1450
    3b86:	990f      	ldr	r1, [sp, #60]	; 0x3c
    3b88:	f106 0a04 	add.w	sl, r6, #4
    3b8c:	9a12      	ldr	r2, [sp, #72]	; 0x48
    3b8e:	9807      	ldr	r0, [sp, #28]
    3b90:	9f15      	ldr	r7, [sp, #84]	; 0x54
    3b92:	f851 300a 	ldr.w	r3, [r1, sl]
    3b96:	5812      	ldr	r2, [r2, r0]
    3b98:	4293      	cmp	r3, r2
    3b9a:	f0c0 8086 	bcc.w	3caa <mbedtls_mpi_div_mpi+0x35a>
/media/wen/My_Passport/Raspbian/raspbian-tee/raspbian-tee/optee_os/lib/libmbedtls/mbedtls/library/bignum.c:1451
    3b9e:	f04f 33ff 	mov.w	r3, #4294967295
    3ba2:	517b      	str	r3, [r7, r5]
/media/wen/My_Passport/Raspbian/raspbian-tee/raspbian-tee/optee_os/lib/libmbedtls/mbedtls/library/bignum.c:1458
    3ba4:	9a15      	ldr	r2, [sp, #84]	; 0x54
/media/wen/My_Passport/Raspbian/raspbian-tee/raspbian-tee/optee_os/lib/libmbedtls/mbedtls/library/bignum.c:1469
    3ba6:	f1a6 0b04 	sub.w	fp, r6, #4
/media/wen/My_Passport/Raspbian/raspbian-tee/raspbian-tee/optee_os/lib/libmbedtls/mbedtls/library/bignum.c:1463
    3baa:	af16      	add	r7, sp, #88	; 0x58
/media/wen/My_Passport/Raspbian/raspbian-tee/raspbian-tee/optee_os/lib/libmbedtls/mbedtls/library/bignum.c:1458
    3bac:	5953      	ldr	r3, [r2, r5]
    3bae:	3301      	adds	r3, #1
    3bb0:	5153      	str	r3, [r2, r5]
/media/wen/My_Passport/Raspbian/raspbian-tee/raspbian-tee/optee_os/lib/libmbedtls/mbedtls/library/bignum.c:1461
    3bb2:	9a15      	ldr	r2, [sp, #84]	; 0x54
/media/wen/My_Passport/Raspbian/raspbian-tee/raspbian-tee/optee_os/lib/libmbedtls/mbedtls/library/bignum.c:1463
    3bb4:	2100      	movs	r1, #0
    3bb6:	4638      	mov	r0, r7
/media/wen/My_Passport/Raspbian/raspbian-tee/raspbian-tee/optee_os/lib/libmbedtls/mbedtls/library/bignum.c:1461
    3bb8:	5953      	ldr	r3, [r2, r5]
    3bba:	3b01      	subs	r3, #1
    3bbc:	5153      	str	r3, [r2, r5]
/media/wen/My_Passport/Raspbian/raspbian-tee/raspbian-tee/optee_os/lib/libmbedtls/mbedtls/library/bignum.c:1463
    3bbe:	f7ff fa94 	bl	30ea <mbedtls_mpi_lset>
    3bc2:	2800      	cmp	r0, #0
    3bc4:	d1cc      	bne.n	3b60 <mbedtls_mpi_div_mpi+0x210>
/media/wen/My_Passport/Raspbian/raspbian-tee/raspbian-tee/optee_os/lib/libmbedtls/mbedtls/library/bignum.c:1464
    3bc6:	9902      	ldr	r1, [sp, #8]
    3bc8:	9b18      	ldr	r3, [sp, #96]	; 0x60
    3bca:	9a12      	ldr	r2, [sp, #72]	; 0x48
    3bcc:	2900      	cmp	r1, #0
    3bce:	f000 8087 	beq.w	3ce0 <mbedtls_mpi_div_mpi+0x390>
/media/wen/My_Passport/Raspbian/raspbian-tee/raspbian-tee/optee_os/lib/libmbedtls/mbedtls/library/bignum.c:1464 (discriminator 1)
    3bd2:	990b      	ldr	r1, [sp, #44]	; 0x2c
    3bd4:	5851      	ldr	r1, [r2, r1]
/media/wen/My_Passport/Raspbian/raspbian-tee/raspbian-tee/optee_os/lib/libmbedtls/mbedtls/library/bignum.c:1464 (discriminator 4)
    3bd6:	6019      	str	r1, [r3, #0]
/media/wen/My_Passport/Raspbian/raspbian-tee/raspbian-tee/optee_os/lib/libmbedtls/mbedtls/library/bignum.c:1466 (discriminator 4)
    3bd8:	4638      	mov	r0, r7
/media/wen/My_Passport/Raspbian/raspbian-tee/raspbian-tee/optee_os/lib/libmbedtls/mbedtls/library/bignum.c:1465 (discriminator 4)
    3bda:	9907      	ldr	r1, [sp, #28]
    3bdc:	5852      	ldr	r2, [r2, r1]
/media/wen/My_Passport/Raspbian/raspbian-tee/raspbian-tee/optee_os/lib/libmbedtls/mbedtls/library/bignum.c:1466 (discriminator 4)
    3bde:	4639      	mov	r1, r7
/media/wen/My_Passport/Raspbian/raspbian-tee/raspbian-tee/optee_os/lib/libmbedtls/mbedtls/library/bignum.c:1465 (discriminator 4)
    3be0:	605a      	str	r2, [r3, #4]
/media/wen/My_Passport/Raspbian/raspbian-tee/raspbian-tee/optee_os/lib/libmbedtls/mbedtls/library/bignum.c:1466 (discriminator 4)
    3be2:	9b15      	ldr	r3, [sp, #84]	; 0x54
    3be4:	595a      	ldr	r2, [r3, r5]
    3be6:	f7ff fe0e 	bl	3806 <mbedtls_mpi_mul_int>
    3bea:	4601      	mov	r1, r0
    3bec:	2800      	cmp	r0, #0
    3bee:	d17b      	bne.n	3ce8 <mbedtls_mpi_div_mpi+0x398>
/media/wen/My_Passport/Raspbian/raspbian-tee/raspbian-tee/optee_os/lib/libmbedtls/mbedtls/library/bignum.c:1468
    3bf0:	980a      	ldr	r0, [sp, #40]	; 0x28
    3bf2:	f7ff fa7a 	bl	30ea <mbedtls_mpi_lset>
    3bf6:	2800      	cmp	r0, #0
    3bf8:	d1b2      	bne.n	3b60 <mbedtls_mpi_div_mpi+0x210>
/media/wen/My_Passport/Raspbian/raspbian-tee/raspbian-tee/optee_os/lib/libmbedtls/mbedtls/library/bignum.c:1469
    3bfa:	f1b8 0f01 	cmp.w	r8, #1
    3bfe:	9b1b      	ldr	r3, [sp, #108]	; 0x6c
    3c00:	d902      	bls.n	3c08 <mbedtls_mpi_div_mpi+0x2b8>
/media/wen/My_Passport/Raspbian/raspbian-tee/raspbian-tee/optee_os/lib/libmbedtls/mbedtls/library/bignum.c:1469 (discriminator 1)
    3c02:	9a0f      	ldr	r2, [sp, #60]	; 0x3c
    3c04:	f852 000b 	ldr.w	r0, [r2, fp]
/media/wen/My_Passport/Raspbian/raspbian-tee/raspbian-tee/optee_os/lib/libmbedtls/mbedtls/library/bignum.c:1469 (discriminator 4)
    3c08:	6018      	str	r0, [r3, #0]
    3c0a:	9a0f      	ldr	r2, [sp, #60]	; 0x3c
/media/wen/My_Passport/Raspbian/raspbian-tee/raspbian-tee/optee_os/lib/libmbedtls/mbedtls/library/bignum.c:1470 (discriminator 4)
    3c0c:	f1b8 0f00 	cmp.w	r8, #0
    3c10:	d068      	beq.n	3ce4 <mbedtls_mpi_div_mpi+0x394>
/media/wen/My_Passport/Raspbian/raspbian-tee/raspbian-tee/optee_os/lib/libmbedtls/mbedtls/library/bignum.c:1470 (discriminator 1)
    3c12:	5991      	ldr	r1, [r2, r6]
/media/wen/My_Passport/Raspbian/raspbian-tee/raspbian-tee/optee_os/lib/libmbedtls/mbedtls/library/bignum.c:1470 (discriminator 4)
    3c14:	6059      	str	r1, [r3, #4]
/media/wen/My_Passport/Raspbian/raspbian-tee/raspbian-tee/optee_os/lib/libmbedtls/mbedtls/library/bignum.c:1473 (discriminator 4)
    3c16:	4638      	mov	r0, r7
    3c18:	990a      	ldr	r1, [sp, #40]	; 0x28
/media/wen/My_Passport/Raspbian/raspbian-tee/raspbian-tee/optee_os/lib/libmbedtls/mbedtls/library/bignum.c:1471 (discriminator 4)
    3c1a:	f852 200a 	ldr.w	r2, [r2, sl]
    3c1e:	609a      	str	r2, [r3, #8]
/media/wen/My_Passport/Raspbian/raspbian-tee/raspbian-tee/optee_os/lib/libmbedtls/mbedtls/library/bignum.c:1473 (discriminator 4)
    3c20:	f7ff fc0b 	bl	343a <mbedtls_mpi_cmp_mpi>
    3c24:	2800      	cmp	r0, #0
    3c26:	dcc4      	bgt.n	3bb2 <mbedtls_mpi_div_mpi+0x262>
/media/wen/My_Passport/Raspbian/raspbian-tee/raspbian-tee/optee_os/lib/libmbedtls/mbedtls/library/bignum.c:1475
    3c28:	9b15      	ldr	r3, [sp, #84]	; 0x54
    3c2a:	f10d 0b40 	add.w	fp, sp, #64	; 0x40
    3c2e:	4659      	mov	r1, fp
    3c30:	4638      	mov	r0, r7
    3c32:	595a      	ldr	r2, [r3, r5]
    3c34:	f7ff fde7 	bl	3806 <mbedtls_mpi_mul_int>
    3c38:	2800      	cmp	r0, #0
    3c3a:	d191      	bne.n	3b60 <mbedtls_mpi_div_mpi+0x210>
/media/wen/My_Passport/Raspbian/raspbian-tee/raspbian-tee/optee_os/lib/libmbedtls/mbedtls/library/bignum.c:1476
    3c3c:	9905      	ldr	r1, [sp, #20]
    3c3e:	4638      	mov	r0, r7
    3c40:	f7ff fb3c 	bl	32bc <mbedtls_mpi_shift_l>
    3c44:	2800      	cmp	r0, #0
    3c46:	d18b      	bne.n	3b60 <mbedtls_mpi_div_mpi+0x210>
/media/wen/My_Passport/Raspbian/raspbian-tee/raspbian-tee/optee_os/lib/libmbedtls/mbedtls/library/bignum.c:1477
    3c48:	f10d 0a34 	add.w	sl, sp, #52	; 0x34
    3c4c:	463a      	mov	r2, r7
    3c4e:	4651      	mov	r1, sl
    3c50:	4650      	mov	r0, sl
    3c52:	f7ff fd14 	bl	367e <mbedtls_mpi_sub_mpi>
    3c56:	4601      	mov	r1, r0
    3c58:	2800      	cmp	r0, #0
    3c5a:	d145      	bne.n	3ce8 <mbedtls_mpi_div_mpi+0x398>
/media/wen/My_Passport/Raspbian/raspbian-tee/raspbian-tee/optee_os/lib/libmbedtls/mbedtls/library/bignum.c:1479
    3c5c:	4650      	mov	r0, sl
    3c5e:	f7ff fc37 	bl	34d0 <mbedtls_mpi_cmp_int>
    3c62:	2800      	cmp	r0, #0
    3c64:	da19      	bge.n	3c9a <mbedtls_mpi_div_mpi+0x34a>
/media/wen/My_Passport/Raspbian/raspbian-tee/raspbian-tee/optee_os/lib/libmbedtls/mbedtls/library/bignum.c:1481
    3c66:	4659      	mov	r1, fp
    3c68:	4638      	mov	r0, r7
    3c6a:	f7ff f983 	bl	2f74 <mbedtls_mpi_copy>
    3c6e:	2800      	cmp	r0, #0
    3c70:	f47f af76 	bne.w	3b60 <mbedtls_mpi_div_mpi+0x210>
/media/wen/My_Passport/Raspbian/raspbian-tee/raspbian-tee/optee_os/lib/libmbedtls/mbedtls/library/bignum.c:1482
    3c74:	9905      	ldr	r1, [sp, #20]
    3c76:	4638      	mov	r0, r7
    3c78:	f7ff fb20 	bl	32bc <mbedtls_mpi_shift_l>
    3c7c:	2800      	cmp	r0, #0
    3c7e:	f47f af6f 	bne.w	3b60 <mbedtls_mpi_div_mpi+0x210>
/media/wen/My_Passport/Raspbian/raspbian-tee/raspbian-tee/optee_os/lib/libmbedtls/mbedtls/library/bignum.c:1483
    3c82:	463a      	mov	r2, r7
    3c84:	4651      	mov	r1, sl
    3c86:	4650      	mov	r0, sl
    3c88:	f7ff fcd5 	bl	3636 <mbedtls_mpi_add_mpi>
    3c8c:	2800      	cmp	r0, #0
    3c8e:	f47f af67 	bne.w	3b60 <mbedtls_mpi_div_mpi+0x210>
/media/wen/My_Passport/Raspbian/raspbian-tee/raspbian-tee/optee_os/lib/libmbedtls/mbedtls/library/bignum.c:1484
    3c92:	9a15      	ldr	r2, [sp, #84]	; 0x54
    3c94:	5953      	ldr	r3, [r2, r5]
    3c96:	3b01      	subs	r3, #1
    3c98:	5153      	str	r3, [r2, r5]
    3c9a:	9b05      	ldr	r3, [sp, #20]
/media/wen/My_Passport/Raspbian/raspbian-tee/raspbian-tee/optee_os/lib/libmbedtls/mbedtls/library/bignum.c:1448 (discriminator 2)
    3c9c:	f108 38ff 	add.w	r8, r8, #4294967295
    3ca0:	3d04      	subs	r5, #4
    3ca2:	3e04      	subs	r6, #4
    3ca4:	3b20      	subs	r3, #32
    3ca6:	9305      	str	r3, [sp, #20]
    3ca8:	e729      	b.n	3afe <mbedtls_mpi_div_mpi+0x1ae>
/media/wen/My_Passport/Raspbian/raspbian-tee/raspbian-tee/optee_os/lib/libmbedtls/mbedtls/library/bignum.c:1454
    3caa:	442f      	add	r7, r5
    3cac:	5988      	ldr	r0, [r1, r6]
mbedtls_int_div_int():
/media/wen/My_Passport/Raspbian/raspbian-tee/raspbian-tee/optee_os/lib/libmbedtls/mbedtls/library/bignum.c:1320
    3cae:	b1a2      	cbz	r2, 3cda <mbedtls_mpi_div_mpi+0x38a>
/media/wen/My_Passport/Raspbian/raspbian-tee/raspbian-tee/optee_os/lib/libmbedtls/mbedtls/library/bignum.c:1328
    3cb0:	9309      	str	r3, [sp, #36]	; 0x24
    3cb2:	2300      	movs	r3, #0
    3cb4:	9308      	str	r3, [sp, #32]
/media/wen/My_Passport/Raspbian/raspbian-tee/raspbian-tee/optee_os/lib/libmbedtls/mbedtls/library/bignum.c:1330
    3cb6:	e9dd bc08 	ldrd	fp, ip, [sp, #32]
    3cba:	ea4b 0b00 	orr.w	fp, fp, r0
    3cbe:	4658      	mov	r0, fp
    3cc0:	4661      	mov	r1, ip
    3cc2:	f7fd e8d0 	blx	e64 <__aeabi_uldivmod>
    3cc6:	2300      	movs	r3, #0
    3cc8:	f04f 32ff 	mov.w	r2, #4294967295
    3ccc:	428b      	cmp	r3, r1
    3cce:	bf08      	it	eq
    3cd0:	4282      	cmpeq	r2, r0
    3cd2:	d200      	bcs.n	3cd6 <mbedtls_mpi_div_mpi+0x386>
    3cd4:	4610      	mov	r0, r2
mbedtls_mpi_div_mpi():
/media/wen/My_Passport/Raspbian/raspbian-tee/raspbian-tee/optee_os/lib/libmbedtls/mbedtls/library/bignum.c:1454
    3cd6:	6038      	str	r0, [r7, #0]
    3cd8:	e764      	b.n	3ba4 <mbedtls_mpi_div_mpi+0x254>
mbedtls_int_div_int():
/media/wen/My_Passport/Raspbian/raspbian-tee/raspbian-tee/optee_os/lib/libmbedtls/mbedtls/library/bignum.c:1320
    3cda:	f04f 30ff 	mov.w	r0, #4294967295
    3cde:	e7fa      	b.n	3cd6 <mbedtls_mpi_div_mpi+0x386>
mbedtls_mpi_div_mpi():
/media/wen/My_Passport/Raspbian/raspbian-tee/raspbian-tee/optee_os/lib/libmbedtls/mbedtls/library/bignum.c:1464
    3ce0:	9902      	ldr	r1, [sp, #8]
    3ce2:	e778      	b.n	3bd6 <mbedtls_mpi_div_mpi+0x286>
/media/wen/My_Passport/Raspbian/raspbian-tee/raspbian-tee/optee_os/lib/libmbedtls/mbedtls/library/bignum.c:1470
    3ce4:	4641      	mov	r1, r8
    3ce6:	e795      	b.n	3c14 <mbedtls_mpi_div_mpi+0x2c4>
    3ce8:	460c      	mov	r4, r1
    3cea:	e66b      	b.n	39c4 <mbedtls_mpi_div_mpi+0x74>
/media/wen/My_Passport/Raspbian/raspbian-tee/raspbian-tee/optee_os/lib/libmbedtls/mbedtls/library/bignum.c:1406
    3cec:	f06f 040b 	mvn.w	r4, #11
    3cf0:	e65d      	b.n	39ae <mbedtls_mpi_div_mpi+0x5e>

00003cf2 <mbedtls_mpi_div_int>:
mbedtls_mpi_div_int():
/media/wen/My_Passport/Raspbian/raspbian-tee/raspbian-tee/optee_os/lib/libmbedtls/mbedtls/library/bignum.c:1516
    3cf2:	b51f      	push	{r0, r1, r2, r3, r4, lr}
/media/wen/My_Passport/Raspbian/raspbian-tee/raspbian-tee/optee_os/lib/libmbedtls/mbedtls/library/bignum.c:1520
    3cf4:	ea83 74e3 	eor.w	r4, r3, r3, asr #31
/media/wen/My_Passport/Raspbian/raspbian-tee/raspbian-tee/optee_os/lib/libmbedtls/mbedtls/library/bignum.c:1521
    3cf8:	2b00      	cmp	r3, #0
/media/wen/My_Passport/Raspbian/raspbian-tee/raspbian-tee/optee_os/lib/libmbedtls/mbedtls/library/bignum.c:1520
    3cfa:	eba4 74e3 	sub.w	r4, r4, r3, asr #31
/media/wen/My_Passport/Raspbian/raspbian-tee/raspbian-tee/optee_os/lib/libmbedtls/mbedtls/library/bignum.c:1521
    3cfe:	f04f 33ff 	mov.w	r3, #4294967295
    3d02:	bfa8      	it	ge
    3d04:	2301      	movge	r3, #1
/media/wen/My_Passport/Raspbian/raspbian-tee/raspbian-tee/optee_os/lib/libmbedtls/mbedtls/library/bignum.c:1520
    3d06:	9400      	str	r4, [sp, #0]
/media/wen/My_Passport/Raspbian/raspbian-tee/raspbian-tee/optee_os/lib/libmbedtls/mbedtls/library/bignum.c:1521
    3d08:	f88d 3004 	strb.w	r3, [sp, #4]
/media/wen/My_Passport/Raspbian/raspbian-tee/raspbian-tee/optee_os/lib/libmbedtls/mbedtls/library/bignum.c:1522
    3d0c:	2301      	movs	r3, #1
    3d0e:	f8ad 3008 	strh.w	r3, [sp, #8]
/media/wen/My_Passport/Raspbian/raspbian-tee/raspbian-tee/optee_os/lib/libmbedtls/mbedtls/library/bignum.c:1525
    3d12:	ab01      	add	r3, sp, #4
/media/wen/My_Passport/Raspbian/raspbian-tee/raspbian-tee/optee_os/lib/libmbedtls/mbedtls/library/bignum.c:1523
    3d14:	f8cd d00c 	str.w	sp, [sp, #12]
/media/wen/My_Passport/Raspbian/raspbian-tee/raspbian-tee/optee_os/lib/libmbedtls/mbedtls/library/bignum.c:1525
    3d18:	f7ff fe1a 	bl	3950 <mbedtls_mpi_div_mpi>
/media/wen/My_Passport/Raspbian/raspbian-tee/raspbian-tee/optee_os/lib/libmbedtls/mbedtls/library/bignum.c:1526
    3d1c:	b004      	add	sp, #16
    3d1e:	bd10      	pop	{r4, pc}

00003d20 <mbedtls_mpi_mod_mpi>:
mbedtls_mpi_mod_mpi():
/media/wen/My_Passport/Raspbian/raspbian-tee/raspbian-tee/optee_os/lib/libmbedtls/mbedtls/library/bignum.c:1532
    3d20:	b570      	push	{r4, r5, r6, lr}
    3d22:	4604      	mov	r4, r0
    3d24:	460d      	mov	r5, r1
/media/wen/My_Passport/Raspbian/raspbian-tee/raspbian-tee/optee_os/lib/libmbedtls/mbedtls/library/bignum.c:1535
    3d26:	4610      	mov	r0, r2
    3d28:	2100      	movs	r1, #0
/media/wen/My_Passport/Raspbian/raspbian-tee/raspbian-tee/optee_os/lib/libmbedtls/mbedtls/library/bignum.c:1532
    3d2a:	4616      	mov	r6, r2
/media/wen/My_Passport/Raspbian/raspbian-tee/raspbian-tee/optee_os/lib/libmbedtls/mbedtls/library/bignum.c:1535
    3d2c:	f7ff fbd0 	bl	34d0 <mbedtls_mpi_cmp_int>
    3d30:	2800      	cmp	r0, #0
    3d32:	db24      	blt.n	3d7e <mbedtls_mpi_mod_mpi+0x5e>
/media/wen/My_Passport/Raspbian/raspbian-tee/raspbian-tee/optee_os/lib/libmbedtls/mbedtls/library/bignum.c:1538
    3d34:	462a      	mov	r2, r5
    3d36:	4633      	mov	r3, r6
    3d38:	4621      	mov	r1, r4
    3d3a:	2000      	movs	r0, #0
    3d3c:	f7ff fe08 	bl	3950 <mbedtls_mpi_div_mpi>
    3d40:	4605      	mov	r5, r0
    3d42:	b138      	cbz	r0, 3d54 <mbedtls_mpi_mod_mpi+0x34>
/media/wen/My_Passport/Raspbian/raspbian-tee/raspbian-tee/optee_os/lib/libmbedtls/mbedtls/library/bignum.c:1549
    3d44:	4628      	mov	r0, r5
    3d46:	bd70      	pop	{r4, r5, r6, pc}
/media/wen/My_Passport/Raspbian/raspbian-tee/raspbian-tee/optee_os/lib/libmbedtls/mbedtls/library/bignum.c:1541
    3d48:	4632      	mov	r2, r6
    3d4a:	4621      	mov	r1, r4
    3d4c:	4620      	mov	r0, r4
    3d4e:	f7ff fc72 	bl	3636 <mbedtls_mpi_add_mpi>
    3d52:	b990      	cbnz	r0, 3d7a <mbedtls_mpi_mod_mpi+0x5a>
/media/wen/My_Passport/Raspbian/raspbian-tee/raspbian-tee/optee_os/lib/libmbedtls/mbedtls/library/bignum.c:1540
    3d54:	2100      	movs	r1, #0
    3d56:	4620      	mov	r0, r4
    3d58:	f7ff fbba 	bl	34d0 <mbedtls_mpi_cmp_int>
    3d5c:	2800      	cmp	r0, #0
    3d5e:	dbf3      	blt.n	3d48 <mbedtls_mpi_mod_mpi+0x28>
/media/wen/My_Passport/Raspbian/raspbian-tee/raspbian-tee/optee_os/lib/libmbedtls/mbedtls/library/bignum.c:1543
    3d60:	4631      	mov	r1, r6
    3d62:	4620      	mov	r0, r4
    3d64:	f7ff fb69 	bl	343a <mbedtls_mpi_cmp_mpi>
    3d68:	2800      	cmp	r0, #0
    3d6a:	dbeb      	blt.n	3d44 <mbedtls_mpi_mod_mpi+0x24>
/media/wen/My_Passport/Raspbian/raspbian-tee/raspbian-tee/optee_os/lib/libmbedtls/mbedtls/library/bignum.c:1544
    3d6c:	4632      	mov	r2, r6
    3d6e:	4621      	mov	r1, r4
    3d70:	4620      	mov	r0, r4
    3d72:	f7ff fc84 	bl	367e <mbedtls_mpi_sub_mpi>
    3d76:	2800      	cmp	r0, #0
    3d78:	d0f2      	beq.n	3d60 <mbedtls_mpi_mod_mpi+0x40>
    3d7a:	4605      	mov	r5, r0
    3d7c:	e7e2      	b.n	3d44 <mbedtls_mpi_mod_mpi+0x24>
/media/wen/My_Passport/Raspbian/raspbian-tee/raspbian-tee/optee_os/lib/libmbedtls/mbedtls/library/bignum.c:1536
    3d7e:	f06f 0509 	mvn.w	r5, #9
    3d82:	e7df      	b.n	3d44 <mbedtls_mpi_mod_mpi+0x24>

00003d84 <mbedtls_mpi_mod_int>:
mbedtls_mpi_mod_int():
/media/wen/My_Passport/Raspbian/raspbian-tee/raspbian-tee/optee_os/lib/libmbedtls/mbedtls/library/bignum.c:1559
    3d84:	1e13      	subs	r3, r2, #0
/media/wen/My_Passport/Raspbian/raspbian-tee/raspbian-tee/optee_os/lib/libmbedtls/mbedtls/library/bignum.c:1555
    3d86:	b430      	push	{r4, r5}
    3d88:	4604      	mov	r4, r0
/media/wen/My_Passport/Raspbian/raspbian-tee/raspbian-tee/optee_os/lib/libmbedtls/mbedtls/library/bignum.c:1559
    3d8a:	d012      	beq.n	3db2 <mbedtls_mpi_mod_int+0x2e>
/media/wen/My_Passport/Raspbian/raspbian-tee/raspbian-tee/optee_os/lib/libmbedtls/mbedtls/library/bignum.c:1562
    3d8c:	db14      	blt.n	3db8 <mbedtls_mpi_mod_int+0x34>
/media/wen/My_Passport/Raspbian/raspbian-tee/raspbian-tee/optee_os/lib/libmbedtls/mbedtls/library/bignum.c:1568
    3d8e:	2b01      	cmp	r3, #1
    3d90:	d103      	bne.n	3d9a <mbedtls_mpi_mod_int+0x16>
/media/wen/My_Passport/Raspbian/raspbian-tee/raspbian-tee/optee_os/lib/libmbedtls/mbedtls/library/bignum.c:1570
    3d92:	2000      	movs	r0, #0
    3d94:	6020      	str	r0, [r4, #0]
/media/wen/My_Passport/Raspbian/raspbian-tee/raspbian-tee/optee_os/lib/libmbedtls/mbedtls/library/bignum.c:1606
    3d96:	bc30      	pop	{r4, r5}
    3d98:	4770      	bx	lr
/media/wen/My_Passport/Raspbian/raspbian-tee/raspbian-tee/optee_os/lib/libmbedtls/mbedtls/library/bignum.c:1574
    3d9a:	2b02      	cmp	r3, #2
    3d9c:	d106      	bne.n	3dac <mbedtls_mpi_mod_int+0x28>
/media/wen/My_Passport/Raspbian/raspbian-tee/raspbian-tee/optee_os/lib/libmbedtls/mbedtls/library/bignum.c:1576
    3d9e:	688b      	ldr	r3, [r1, #8]
    3da0:	681b      	ldr	r3, [r3, #0]
    3da2:	f003 0301 	and.w	r3, r3, #1
    3da6:	6003      	str	r3, [r0, #0]
/media/wen/My_Passport/Raspbian/raspbian-tee/raspbian-tee/optee_os/lib/libmbedtls/mbedtls/library/bignum.c:1577
    3da8:	2000      	movs	r0, #0
    3daa:	e7f4      	b.n	3d96 <mbedtls_mpi_mod_int+0x12>
/media/wen/My_Passport/Raspbian/raspbian-tee/raspbian-tee/optee_os/lib/libmbedtls/mbedtls/library/bignum.c:1606
    3dac:	bc30      	pop	{r4, r5}
    3dae:	f7fe bfb6 	b.w	2d1e <mbedtls_mpi_mod_int.part.1>
/media/wen/My_Passport/Raspbian/raspbian-tee/raspbian-tee/optee_os/lib/libmbedtls/mbedtls/library/bignum.c:1560
    3db2:	f06f 000b 	mvn.w	r0, #11
    3db6:	e7ee      	b.n	3d96 <mbedtls_mpi_mod_int+0x12>
/media/wen/My_Passport/Raspbian/raspbian-tee/raspbian-tee/optee_os/lib/libmbedtls/mbedtls/library/bignum.c:1563
    3db8:	f06f 0009 	mvn.w	r0, #9
    3dbc:	e7eb      	b.n	3d96 <mbedtls_mpi_mod_int+0x12>

00003dbe <mpi_write_hlp>:
mpi_write_hlp():
/media/wen/My_Passport/Raspbian/raspbian-tee/raspbian-tee/optee_os/lib/libmbedtls/mbedtls/library/bignum.c:578
    3dbe:	1e8b      	subs	r3, r1, #2
/media/wen/My_Passport/Raspbian/raspbian-tee/raspbian-tee/optee_os/lib/libmbedtls/mbedtls/library/bignum.c:574
    3dc0:	b5f7      	push	{r0, r1, r2, r4, r5, r6, r7, lr}
/media/wen/My_Passport/Raspbian/raspbian-tee/raspbian-tee/optee_os/lib/libmbedtls/mbedtls/library/bignum.c:578
    3dc2:	2b0e      	cmp	r3, #14
/media/wen/My_Passport/Raspbian/raspbian-tee/raspbian-tee/optee_os/lib/libmbedtls/mbedtls/library/bignum.c:574
    3dc4:	4605      	mov	r5, r0
    3dc6:	460f      	mov	r7, r1
    3dc8:	4616      	mov	r6, r2
/media/wen/My_Passport/Raspbian/raspbian-tee/raspbian-tee/optee_os/lib/libmbedtls/mbedtls/library/bignum.c:578
    3dca:	d82b      	bhi.n	3e24 <mpi_write_hlp+0x66>
/media/wen/My_Passport/Raspbian/raspbian-tee/raspbian-tee/optee_os/lib/libmbedtls/mbedtls/library/bignum.c:581
    3dcc:	460a      	mov	r2, r1
    3dce:	4601      	mov	r1, r0
    3dd0:	a801      	add	r0, sp, #4
    3dd2:	f7ff ffd7 	bl	3d84 <mbedtls_mpi_mod_int>
    3dd6:	4604      	mov	r4, r0
    3dd8:	b9a0      	cbnz	r0, 3e04 <mpi_write_hlp+0x46>
/media/wen/My_Passport/Raspbian/raspbian-tee/raspbian-tee/optee_os/lib/libmbedtls/mbedtls/library/bignum.c:582
    3dda:	4601      	mov	r1, r0
    3ddc:	463b      	mov	r3, r7
    3dde:	462a      	mov	r2, r5
    3de0:	4628      	mov	r0, r5
    3de2:	f7ff ff86 	bl	3cf2 <mbedtls_mpi_div_int>
    3de6:	4604      	mov	r4, r0
    3de8:	b960      	cbnz	r0, 3e04 <mpi_write_hlp+0x46>
/media/wen/My_Passport/Raspbian/raspbian-tee/raspbian-tee/optee_os/lib/libmbedtls/mbedtls/library/bignum.c:584
    3dea:	4601      	mov	r1, r0
    3dec:	4628      	mov	r0, r5
    3dee:	f7ff fb6f 	bl	34d0 <mbedtls_mpi_cmp_int>
    3df2:	b950      	cbnz	r0, 3e0a <mpi_write_hlp+0x4c>
/media/wen/My_Passport/Raspbian/raspbian-tee/raspbian-tee/optee_os/lib/libmbedtls/mbedtls/library/bignum.c:587
    3df4:	9b01      	ldr	r3, [sp, #4]
    3df6:	6832      	ldr	r2, [r6, #0]
    3df8:	2b09      	cmp	r3, #9
    3dfa:	d80f      	bhi.n	3e1c <mpi_write_hlp+0x5e>
/media/wen/My_Passport/Raspbian/raspbian-tee/raspbian-tee/optee_os/lib/libmbedtls/mbedtls/library/bignum.c:588
    3dfc:	1c51      	adds	r1, r2, #1
    3dfe:	3330      	adds	r3, #48	; 0x30
    3e00:	6031      	str	r1, [r6, #0]
/media/wen/My_Passport/Raspbian/raspbian-tee/raspbian-tee/optee_os/lib/libmbedtls/mbedtls/library/bignum.c:590
    3e02:	7013      	strb	r3, [r2, #0]
/media/wen/My_Passport/Raspbian/raspbian-tee/raspbian-tee/optee_os/lib/libmbedtls/mbedtls/library/bignum.c:595
    3e04:	4620      	mov	r0, r4
    3e06:	b003      	add	sp, #12
    3e08:	bdf0      	pop	{r4, r5, r6, r7, pc}
/media/wen/My_Passport/Raspbian/raspbian-tee/raspbian-tee/optee_os/lib/libmbedtls/mbedtls/library/bignum.c:585
    3e0a:	4632      	mov	r2, r6
    3e0c:	4639      	mov	r1, r7
    3e0e:	4628      	mov	r0, r5
    3e10:	f7ff ffd5 	bl	3dbe <mpi_write_hlp>
    3e14:	2800      	cmp	r0, #0
    3e16:	d0ed      	beq.n	3df4 <mpi_write_hlp+0x36>
    3e18:	4604      	mov	r4, r0
    3e1a:	e7f3      	b.n	3e04 <mpi_write_hlp+0x46>
/media/wen/My_Passport/Raspbian/raspbian-tee/raspbian-tee/optee_os/lib/libmbedtls/mbedtls/library/bignum.c:590
    3e1c:	1c51      	adds	r1, r2, #1
    3e1e:	3337      	adds	r3, #55	; 0x37
    3e20:	6031      	str	r1, [r6, #0]
    3e22:	e7ee      	b.n	3e02 <mpi_write_hlp+0x44>
/media/wen/My_Passport/Raspbian/raspbian-tee/raspbian-tee/optee_os/lib/libmbedtls/mbedtls/library/bignum.c:579
    3e24:	f06f 0403 	mvn.w	r4, #3
    3e28:	e7ec      	b.n	3e04 <mpi_write_hlp+0x46>

00003e2a <mbedtls_mpi_write_string>:
mbedtls_mpi_write_string():
/media/wen/My_Passport/Raspbian/raspbian-tee/raspbian-tee/optee_os/lib/libmbedtls/mbedtls/library/bignum.c:602
    3e2a:	e92d 47ff 	stmdb	sp!, {r0, r1, r2, r3, r4, r5, r6, r7, r8, r9, sl, lr}
    3e2e:	461f      	mov	r7, r3
/media/wen/My_Passport/Raspbian/raspbian-tee/raspbian-tee/optee_os/lib/libmbedtls/mbedtls/library/bignum.c:608
    3e30:	1e8b      	subs	r3, r1, #2
    3e32:	2b0e      	cmp	r3, #14
/media/wen/My_Passport/Raspbian/raspbian-tee/raspbian-tee/optee_os/lib/libmbedtls/mbedtls/library/bignum.c:602
    3e34:	4604      	mov	r4, r0
    3e36:	4688      	mov	r8, r1
    3e38:	4615      	mov	r5, r2
    3e3a:	9e0c      	ldr	r6, [sp, #48]	; 0x30
/media/wen/My_Passport/Raspbian/raspbian-tee/raspbian-tee/optee_os/lib/libmbedtls/mbedtls/library/bignum.c:608
    3e3c:	f200 808c 	bhi.w	3f58 <mbedtls_mpi_write_string+0x12e>
/media/wen/My_Passport/Raspbian/raspbian-tee/raspbian-tee/optee_os/lib/libmbedtls/mbedtls/library/bignum.c:611
    3e40:	f7ff f9be 	bl	31c0 <mbedtls_mpi_bitlen>
/media/wen/My_Passport/Raspbian/raspbian-tee/raspbian-tee/optee_os/lib/libmbedtls/mbedtls/library/bignum.c:612
    3e44:	f1b8 0f03 	cmp.w	r8, #3
    3e48:	dd05      	ble.n	3e56 <mbedtls_mpi_write_string+0x2c>
/media/wen/My_Passport/Raspbian/raspbian-tee/raspbian-tee/optee_os/lib/libmbedtls/mbedtls/library/bignum.c:613 (discriminator 1)
    3e4a:	f1b8 0f10 	cmp.w	r8, #16
/media/wen/My_Passport/Raspbian/raspbian-tee/raspbian-tee/optee_os/lib/libmbedtls/mbedtls/library/bignum.c:612 (discriminator 1)
    3e4e:	bf18      	it	ne
    3e50:	0840      	lsrne	r0, r0, #1
/media/wen/My_Passport/Raspbian/raspbian-tee/raspbian-tee/optee_os/lib/libmbedtls/mbedtls/library/bignum.c:613 (discriminator 1)
    3e52:	bf08      	it	eq
    3e54:	0880      	lsreq	r0, r0, #2
/media/wen/My_Passport/Raspbian/raspbian-tee/raspbian-tee/optee_os/lib/libmbedtls/mbedtls/library/bignum.c:619
    3e56:	1c42      	adds	r2, r0, #1
    3e58:	3003      	adds	r0, #3
    3e5a:	f002 0201 	and.w	r2, r2, #1
    3e5e:	4410      	add	r0, r2
/media/wen/My_Passport/Raspbian/raspbian-tee/raspbian-tee/optee_os/lib/libmbedtls/mbedtls/library/bignum.c:621
    3e60:	42b8      	cmp	r0, r7
    3e62:	d906      	bls.n	3e72 <mbedtls_mpi_write_string+0x48>
/media/wen/My_Passport/Raspbian/raspbian-tee/raspbian-tee/optee_os/lib/libmbedtls/mbedtls/library/bignum.c:624
    3e64:	f06f 0407 	mvn.w	r4, #7
/media/wen/My_Passport/Raspbian/raspbian-tee/raspbian-tee/optee_os/lib/libmbedtls/mbedtls/library/bignum.c:623
    3e68:	6030      	str	r0, [r6, #0]
/media/wen/My_Passport/Raspbian/raspbian-tee/raspbian-tee/optee_os/lib/libmbedtls/mbedtls/library/bignum.c:671
    3e6a:	4620      	mov	r0, r4
    3e6c:	b004      	add	sp, #16
    3e6e:	e8bd 87f0 	ldmia.w	sp!, {r4, r5, r6, r7, r8, r9, sl, pc}
/media/wen/My_Passport/Raspbian/raspbian-tee/raspbian-tee/optee_os/lib/libmbedtls/mbedtls/library/bignum.c:628
    3e72:	af01      	add	r7, sp, #4
/media/wen/My_Passport/Raspbian/raspbian-tee/raspbian-tee/optee_os/lib/libmbedtls/mbedtls/library/bignum.c:627
    3e74:	9500      	str	r5, [sp, #0]
/media/wen/My_Passport/Raspbian/raspbian-tee/raspbian-tee/optee_os/lib/libmbedtls/mbedtls/library/bignum.c:628
    3e76:	4638      	mov	r0, r7
    3e78:	f7fe ff7e 	bl	2d78 <mbedtls_mpi_init_mempool>
/media/wen/My_Passport/Raspbian/raspbian-tee/raspbian-tee/optee_os/lib/libmbedtls/mbedtls/library/bignum.c:630
    3e7c:	f994 3000 	ldrsb.w	r3, [r4]
    3e80:	3301      	adds	r3, #1
    3e82:	d104      	bne.n	3e8e <mbedtls_mpi_write_string+0x64>
/media/wen/My_Passport/Raspbian/raspbian-tee/raspbian-tee/optee_os/lib/libmbedtls/mbedtls/library/bignum.c:631
    3e84:	9b00      	ldr	r3, [sp, #0]
    3e86:	1c5a      	adds	r2, r3, #1
    3e88:	9200      	str	r2, [sp, #0]
    3e8a:	222d      	movs	r2, #45	; 0x2d
    3e8c:	701a      	strb	r2, [r3, #0]
/media/wen/My_Passport/Raspbian/raspbian-tee/raspbian-tee/optee_os/lib/libmbedtls/mbedtls/library/bignum.c:633
    3e8e:	f1b8 0f10 	cmp.w	r8, #16
    3e92:	d14a      	bne.n	3f2a <mbedtls_mpi_write_string+0x100>
/media/wen/My_Passport/Raspbian/raspbian-tee/raspbian-tee/optee_os/lib/libmbedtls/mbedtls/library/bignum.c:638
    3e94:	f8b4 c004 	ldrh.w	ip, [r4, #4]
    3e98:	f04f 0900 	mov.w	r9, #0
/media/wen/My_Passport/Raspbian/raspbian-tee/raspbian-tee/optee_os/lib/libmbedtls/mbedtls/library/bignum.c:647
    3e9c:	f8df 80c0 	ldr.w	r8, [pc, #192]	; 3f60 <mbedtls_mpi_write_string+0x136>
    3ea0:	f10c 4380 	add.w	r3, ip, #1073741824	; 0x40000000
    3ea4:	3b01      	subs	r3, #1
    3ea6:	44f8      	add	r8, pc
    3ea8:	009b      	lsls	r3, r3, #2
/media/wen/My_Passport/Raspbian/raspbian-tee/raspbian-tee/optee_os/lib/libmbedtls/mbedtls/library/bignum.c:638 (discriminator 1)
    3eaa:	f1bc 0f00 	cmp.w	ip, #0
    3eae:	d10b      	bne.n	3ec8 <mbedtls_mpi_write_string+0x9e>
/media/wen/My_Passport/Raspbian/raspbian-tee/raspbian-tee/optee_os/lib/libmbedtls/mbedtls/library/bignum.c:663
    3eb0:	9b00      	ldr	r3, [sp, #0]
    3eb2:	2400      	movs	r4, #0
    3eb4:	1c5a      	adds	r2, r3, #1
    3eb6:	9200      	str	r2, [sp, #0]
    3eb8:	701c      	strb	r4, [r3, #0]
/media/wen/My_Passport/Raspbian/raspbian-tee/raspbian-tee/optee_os/lib/libmbedtls/mbedtls/library/bignum.c:664
    3eba:	9b00      	ldr	r3, [sp, #0]
    3ebc:	1b5d      	subs	r5, r3, r5
    3ebe:	6035      	str	r5, [r6, #0]
/media/wen/My_Passport/Raspbian/raspbian-tee/raspbian-tee/optee_os/lib/libmbedtls/mbedtls/library/bignum.c:668
    3ec0:	4638      	mov	r0, r7
    3ec2:	f7fe ff74 	bl	2dae <mbedtls_mpi_free>
/media/wen/My_Passport/Raspbian/raspbian-tee/raspbian-tee/optee_os/lib/libmbedtls/mbedtls/library/bignum.c:670
    3ec6:	e7d0      	b.n	3e6a <mbedtls_mpi_write_string+0x40>
    3ec8:	f10c 0004 	add.w	r0, ip, #4
/media/wen/My_Passport/Raspbian/raspbian-tee/raspbian-tee/optee_os/lib/libmbedtls/mbedtls/library/bignum.c:638
    3ecc:	2118      	movs	r1, #24
/media/wen/My_Passport/Raspbian/raspbian-tee/raspbian-tee/optee_os/lib/libmbedtls/mbedtls/library/bignum.c:642
    3ece:	68a2      	ldr	r2, [r4, #8]
    3ed0:	58d2      	ldr	r2, [r2, r3]
    3ed2:	40ca      	lsrs	r2, r1
/media/wen/My_Passport/Raspbian/raspbian-tee/raspbian-tee/optee_os/lib/libmbedtls/mbedtls/library/bignum.c:644
    3ed4:	f012 0eff 	ands.w	lr, r2, #255	; 0xff
    3ed8:	d104      	bne.n	3ee4 <mbedtls_mpi_write_string+0xba>
/media/wen/My_Passport/Raspbian/raspbian-tee/raspbian-tee/optee_os/lib/libmbedtls/mbedtls/library/bignum.c:644 (discriminator 1)
    3eda:	f1b9 0f00 	cmp.w	r9, #0
    3ede:	d101      	bne.n	3ee4 <mbedtls_mpi_write_string+0xba>
/media/wen/My_Passport/Raspbian/raspbian-tee/raspbian-tee/optee_os/lib/libmbedtls/mbedtls/library/bignum.c:644 (discriminator 2)
    3ee0:	2802      	cmp	r0, #2
    3ee2:	d119      	bne.n	3f18 <mbedtls_mpi_write_string+0xee>
/media/wen/My_Passport/Raspbian/raspbian-tee/raspbian-tee/optee_os/lib/libmbedtls/mbedtls/library/bignum.c:647
    3ee4:	ea4f 1e2e 	mov.w	lr, lr, asr #4
    3ee8:	f8dd 9000 	ldr.w	r9, [sp]
/media/wen/My_Passport/Raspbian/raspbian-tee/raspbian-tee/optee_os/lib/libmbedtls/mbedtls/library/bignum.c:648
    3eec:	f002 020f 	and.w	r2, r2, #15
/media/wen/My_Passport/Raspbian/raspbian-tee/raspbian-tee/optee_os/lib/libmbedtls/mbedtls/library/bignum.c:647
    3ef0:	f109 0a01 	add.w	sl, r9, #1
    3ef4:	f818 e00e 	ldrb.w	lr, [r8, lr]
    3ef8:	f8cd a000 	str.w	sl, [sp]
    3efc:	f889 e000 	strb.w	lr, [r9]
/media/wen/My_Passport/Raspbian/raspbian-tee/raspbian-tee/optee_os/lib/libmbedtls/mbedtls/library/bignum.c:648
    3f00:	f8dd e000 	ldr.w	lr, [sp]
    3f04:	f818 2002 	ldrb.w	r2, [r8, r2]
    3f08:	f10e 0901 	add.w	r9, lr, #1
    3f0c:	f8cd 9000 	str.w	r9, [sp]
/media/wen/My_Passport/Raspbian/raspbian-tee/raspbian-tee/optee_os/lib/libmbedtls/mbedtls/library/bignum.c:649
    3f10:	f04f 0901 	mov.w	r9, #1
/media/wen/My_Passport/Raspbian/raspbian-tee/raspbian-tee/optee_os/lib/libmbedtls/mbedtls/library/bignum.c:648
    3f14:	f88e 2000 	strb.w	r2, [lr]
    3f18:	3908      	subs	r1, #8
    3f1a:	3801      	subs	r0, #1
/media/wen/My_Passport/Raspbian/raspbian-tee/raspbian-tee/optee_os/lib/libmbedtls/mbedtls/library/bignum.c:640 (discriminator 1)
    3f1c:	f111 0f08 	cmn.w	r1, #8
    3f20:	d1d5      	bne.n	3ece <mbedtls_mpi_write_string+0xa4>
/media/wen/My_Passport/Raspbian/raspbian-tee/raspbian-tee/optee_os/lib/libmbedtls/mbedtls/library/bignum.c:638 (discriminator 2)
    3f22:	f10c 3cff 	add.w	ip, ip, #4294967295
    3f26:	3b04      	subs	r3, #4
    3f28:	e7bf      	b.n	3eaa <mbedtls_mpi_write_string+0x80>
/media/wen/My_Passport/Raspbian/raspbian-tee/raspbian-tee/optee_os/lib/libmbedtls/mbedtls/library/bignum.c:655
    3f2a:	4621      	mov	r1, r4
    3f2c:	4638      	mov	r0, r7
    3f2e:	f7ff f821 	bl	2f74 <mbedtls_mpi_copy>
    3f32:	4604      	mov	r4, r0
    3f34:	2800      	cmp	r0, #0
    3f36:	d1c3      	bne.n	3ec0 <mbedtls_mpi_write_string+0x96>
/media/wen/My_Passport/Raspbian/raspbian-tee/raspbian-tee/optee_os/lib/libmbedtls/mbedtls/library/bignum.c:657
    3f38:	f99d 3004 	ldrsb.w	r3, [sp, #4]
    3f3c:	3301      	adds	r3, #1
    3f3e:	d102      	bne.n	3f46 <mbedtls_mpi_write_string+0x11c>
/media/wen/My_Passport/Raspbian/raspbian-tee/raspbian-tee/optee_os/lib/libmbedtls/mbedtls/library/bignum.c:658
    3f40:	2301      	movs	r3, #1
    3f42:	f88d 3004 	strb.w	r3, [sp, #4]
/media/wen/My_Passport/Raspbian/raspbian-tee/raspbian-tee/optee_os/lib/libmbedtls/mbedtls/library/bignum.c:660
    3f46:	466a      	mov	r2, sp
    3f48:	4641      	mov	r1, r8
    3f4a:	4638      	mov	r0, r7
    3f4c:	f7ff ff37 	bl	3dbe <mpi_write_hlp>
    3f50:	4604      	mov	r4, r0
    3f52:	2800      	cmp	r0, #0
    3f54:	d0ac      	beq.n	3eb0 <mbedtls_mpi_write_string+0x86>
    3f56:	e7b3      	b.n	3ec0 <mbedtls_mpi_write_string+0x96>
/media/wen/My_Passport/Raspbian/raspbian-tee/raspbian-tee/optee_os/lib/libmbedtls/mbedtls/library/bignum.c:609
    3f58:	f06f 0403 	mvn.w	r4, #3
    3f5c:	e785      	b.n	3e6a <mbedtls_mpi_write_string+0x40>
    3f5e:	bf00      	nop
    3f60:	00002763 	.word	0x00002763

00003f64 <mpi_check_small_factors>:
mpi_check_small_factors():
/media/wen/My_Passport/Raspbian/raspbian-tee/raspbian-tee/optee_os/lib/libmbedtls/mbedtls/library/bignum.c:2108
    3f64:	6883      	ldr	r3, [r0, #8]
/media/wen/My_Passport/Raspbian/raspbian-tee/raspbian-tee/optee_os/lib/libmbedtls/mbedtls/library/bignum.c:2103
    3f66:	b5f7      	push	{r0, r1, r2, r4, r5, r6, r7, lr}
    3f68:	4606      	mov	r6, r0
/media/wen/My_Passport/Raspbian/raspbian-tee/raspbian-tee/optee_os/lib/libmbedtls/mbedtls/library/bignum.c:2108
    3f6a:	681b      	ldr	r3, [r3, #0]
    3f6c:	07db      	lsls	r3, r3, #31
    3f6e:	d518      	bpl.n	3fa2 <mpi_check_small_factors+0x3e>
    3f70:	4c0f      	ldr	r4, [pc, #60]	; (3fb0 <mpi_check_small_factors+0x4c>)
/media/wen/My_Passport/Raspbian/raspbian-tee/raspbian-tee/optee_os/lib/libmbedtls/mbedtls/library/bignum.c:2116
    3f72:	af01      	add	r7, sp, #4
    3f74:	447c      	add	r4, pc
    3f76:	3c04      	subs	r4, #4
/media/wen/My_Passport/Raspbian/raspbian-tee/raspbian-tee/optee_os/lib/libmbedtls/mbedtls/library/bignum.c:2111 (discriminator 1)
    3f78:	f854 5f04 	ldr.w	r5, [r4, #4]!
    3f7c:	2d00      	cmp	r5, #0
    3f7e:	dc01      	bgt.n	3f84 <mpi_check_small_factors+0x20>
    3f80:	2000      	movs	r0, #0
    3f82:	e010      	b.n	3fa6 <mpi_check_small_factors+0x42>
/media/wen/My_Passport/Raspbian/raspbian-tee/raspbian-tee/optee_os/lib/libmbedtls/mbedtls/library/bignum.c:2113
    3f84:	4629      	mov	r1, r5
    3f86:	4630      	mov	r0, r6
    3f88:	f7ff faa2 	bl	34d0 <mbedtls_mpi_cmp_int>
    3f8c:	2800      	cmp	r0, #0
    3f8e:	dd0c      	ble.n	3faa <mpi_check_small_factors+0x46>
/media/wen/My_Passport/Raspbian/raspbian-tee/raspbian-tee/optee_os/lib/libmbedtls/mbedtls/library/bignum.c:2116
    3f90:	462a      	mov	r2, r5
    3f92:	4631      	mov	r1, r6
    3f94:	4638      	mov	r0, r7
    3f96:	f7ff fef5 	bl	3d84 <mbedtls_mpi_mod_int>
    3f9a:	b920      	cbnz	r0, 3fa6 <mpi_check_small_factors+0x42>
/media/wen/My_Passport/Raspbian/raspbian-tee/raspbian-tee/optee_os/lib/libmbedtls/mbedtls/library/bignum.c:2118
    3f9c:	9b01      	ldr	r3, [sp, #4]
    3f9e:	2b00      	cmp	r3, #0
    3fa0:	d1ea      	bne.n	3f78 <mpi_check_small_factors+0x14>
/media/wen/My_Passport/Raspbian/raspbian-tee/raspbian-tee/optee_os/lib/libmbedtls/mbedtls/library/bignum.c:2109
    3fa2:	f06f 000d 	mvn.w	r0, #13
/media/wen/My_Passport/Raspbian/raspbian-tee/raspbian-tee/optee_os/lib/libmbedtls/mbedtls/library/bignum.c:2124
    3fa6:	b003      	add	sp, #12
    3fa8:	bdf0      	pop	{r4, r5, r6, r7, pc}
/media/wen/My_Passport/Raspbian/raspbian-tee/raspbian-tee/optee_os/lib/libmbedtls/mbedtls/library/bignum.c:2114
    3faa:	2001      	movs	r0, #1
    3fac:	e7fb      	b.n	3fa6 <mpi_check_small_factors+0x42>
    3fae:	bf00      	nop
    3fb0:	00002074 	.word	0x00002074

00003fb4 <mbedtls_mpi_montg_init>:
mbedtls_mpi_montg_init():
/media/wen/My_Passport/Raspbian/raspbian-tee/raspbian-tee/optee_os/lib/libmbedtls/mbedtls/library/bignum.c:1613
    3fb4:	688b      	ldr	r3, [r1, #8]
/media/wen/My_Passport/Raspbian/raspbian-tee/raspbian-tee/optee_os/lib/libmbedtls/mbedtls/library/bignum.c:1617
    3fb6:	2203      	movs	r2, #3
/media/wen/My_Passport/Raspbian/raspbian-tee/raspbian-tee/optee_os/lib/libmbedtls/mbedtls/library/bignum.c:1612
    3fb8:	b510      	push	{r4, lr}
/media/wen/My_Passport/Raspbian/raspbian-tee/raspbian-tee/optee_os/lib/libmbedtls/mbedtls/library/bignum.c:1613
    3fba:	681c      	ldr	r4, [r3, #0]
/media/wen/My_Passport/Raspbian/raspbian-tee/raspbian-tee/optee_os/lib/libmbedtls/mbedtls/library/bignum.c:1617
    3fbc:	1ca3      	adds	r3, r4, #2
    3fbe:	005b      	lsls	r3, r3, #1
    3fc0:	f003 0308 	and.w	r3, r3, #8
    3fc4:	4423      	add	r3, r4
/media/wen/My_Passport/Raspbian/raspbian-tee/raspbian-tee/optee_os/lib/libmbedtls/mbedtls/library/bignum.c:1620 (discriminator 3)
    3fc6:	fb03 f104 	mul.w	r1, r3, r4
/media/wen/My_Passport/Raspbian/raspbian-tee/raspbian-tee/optee_os/lib/libmbedtls/mbedtls/library/bignum.c:1619 (discriminator 3)
    3fca:	3a01      	subs	r2, #1
/media/wen/My_Passport/Raspbian/raspbian-tee/raspbian-tee/optee_os/lib/libmbedtls/mbedtls/library/bignum.c:1620 (discriminator 3)
    3fcc:	f1c1 0102 	rsb	r1, r1, #2
    3fd0:	fb01 f303 	mul.w	r3, r1, r3
/media/wen/My_Passport/Raspbian/raspbian-tee/raspbian-tee/optee_os/lib/libmbedtls/mbedtls/library/bignum.c:1619 (discriminator 3)
    3fd4:	d1f7      	bne.n	3fc6 <mbedtls_mpi_montg_init+0x12>
/media/wen/My_Passport/Raspbian/raspbian-tee/raspbian-tee/optee_os/lib/libmbedtls/mbedtls/library/bignum.c:1622
    3fd6:	425b      	negs	r3, r3
    3fd8:	6003      	str	r3, [r0, #0]
    3fda:	bd10      	pop	{r4, pc}

00003fdc <mbedtls_mpi_montmul>:
mbedtls_mpi_montmul():
/media/wen/My_Passport/Raspbian/raspbian-tee/raspbian-tee/optee_os/lib/libmbedtls/mbedtls/library/bignum.c:1631
    3fdc:	e92d 4ff0 	stmdb	sp!, {r4, r5, r6, r7, r8, r9, sl, fp, lr}
    3fe0:	4616      	mov	r6, r2
    3fe2:	4681      	mov	r9, r0
    3fe4:	b085      	sub	sp, #20
    3fe6:	468b      	mov	fp, r1
    3fe8:	9303      	str	r3, [sp, #12]
/media/wen/My_Passport/Raspbian/raspbian-tee/raspbian-tee/optee_os/lib/libmbedtls/mbedtls/library/bignum.c:1635
    3fea:	9b0e      	ldr	r3, [sp, #56]	; 0x38
    3fec:	889a      	ldrh	r2, [r3, #4]
    3fee:	88b3      	ldrh	r3, [r6, #4]
    3ff0:	4293      	cmp	r3, r2
    3ff2:	da52      	bge.n	409a <mbedtls_mpi_montmul+0xbe>
/media/wen/My_Passport/Raspbian/raspbian-tee/raspbian-tee/optee_os/lib/libmbedtls/mbedtls/library/bignum.c:1635 (discriminator 1)
    3ff4:	9b0e      	ldr	r3, [sp, #56]	; 0x38
    3ff6:	6898      	ldr	r0, [r3, #8]
    3ff8:	2800      	cmp	r0, #0
    3ffa:	d04e      	beq.n	409a <mbedtls_mpi_montmul+0xbe>
/media/wen/My_Passport/Raspbian/raspbian-tee/raspbian-tee/optee_os/lib/libmbedtls/mbedtls/library/bignum.c:1638
    3ffc:	0092      	lsls	r2, r2, #2
    3ffe:	2100      	movs	r1, #0
    4000:	f001 fe7f 	bl	5d02 <memset>
/media/wen/My_Passport/Raspbian/raspbian-tee/raspbian-tee/optee_os/lib/libmbedtls/mbedtls/library/bignum.c:1640
    4004:	9b0e      	ldr	r3, [sp, #56]	; 0x38
/media/wen/My_Passport/Raspbian/raspbian-tee/raspbian-tee/optee_os/lib/libmbedtls/mbedtls/library/bignum.c:1641
    4006:	88b4      	ldrh	r4, [r6, #4]
/media/wen/My_Passport/Raspbian/raspbian-tee/raspbian-tee/optee_os/lib/libmbedtls/mbedtls/library/bignum.c:1644
    4008:	2700      	movs	r7, #0
/media/wen/My_Passport/Raspbian/raspbian-tee/raspbian-tee/optee_os/lib/libmbedtls/mbedtls/library/bignum.c:1640
    400a:	689b      	ldr	r3, [r3, #8]
    400c:	9300      	str	r3, [sp, #0]
/media/wen/My_Passport/Raspbian/raspbian-tee/raspbian-tee/optee_os/lib/libmbedtls/mbedtls/library/bignum.c:1642
    400e:	f8bb 3004 	ldrh.w	r3, [fp, #4]
/media/wen/My_Passport/Raspbian/raspbian-tee/raspbian-tee/optee_os/lib/libmbedtls/mbedtls/library/bignum.c:1640
    4012:	9d00      	ldr	r5, [sp, #0]
/media/wen/My_Passport/Raspbian/raspbian-tee/raspbian-tee/optee_os/lib/libmbedtls/mbedtls/library/bignum.c:1642
    4014:	42a3      	cmp	r3, r4
    4016:	bf28      	it	cs
    4018:	4623      	movcs	r3, r4
    401a:	9301      	str	r3, [sp, #4]
/media/wen/My_Passport/Raspbian/raspbian-tee/raspbian-tee/optee_os/lib/libmbedtls/mbedtls/library/bignum.c:1655
    401c:	1c63      	adds	r3, r4, #1
    401e:	ea4f 0883 	mov.w	r8, r3, lsl #2
/media/wen/My_Passport/Raspbian/raspbian-tee/raspbian-tee/optee_os/lib/libmbedtls/mbedtls/library/bignum.c:1644 (discriminator 1)
    4022:	42a7      	cmp	r7, r4
    4024:	f8d9 0008 	ldr.w	r0, [r9, #8]
    4028:	d315      	bcc.n	4056 <mbedtls_mpi_montmul+0x7a>
/media/wen/My_Passport/Raspbian/raspbian-tee/raspbian-tee/optee_os/lib/libmbedtls/mbedtls/library/bignum.c:1658
    402a:	9b00      	ldr	r3, [sp, #0]
    402c:	4642      	mov	r2, r8
    402e:	eb03 0184 	add.w	r1, r3, r4, lsl #2
    4032:	f001 fe5b 	bl	5cec <memcpy>
/media/wen/My_Passport/Raspbian/raspbian-tee/raspbian-tee/optee_os/lib/libmbedtls/mbedtls/library/bignum.c:1660
    4036:	4631      	mov	r1, r6
    4038:	4648      	mov	r0, r9
    403a:	f7ff f9c7 	bl	33cc <mbedtls_mpi_cmp_abs>
    403e:	2800      	cmp	r0, #0
    4040:	db26      	blt.n	4090 <mbedtls_mpi_montmul+0xb4>
/media/wen/My_Passport/Raspbian/raspbian-tee/raspbian-tee/optee_os/lib/libmbedtls/mbedtls/library/bignum.c:1661
    4042:	f8d9 2008 	ldr.w	r2, [r9, #8]
    4046:	68b1      	ldr	r1, [r6, #8]
/media/wen/My_Passport/Raspbian/raspbian-tee/raspbian-tee/optee_os/lib/libmbedtls/mbedtls/library/bignum.c:1664
    4048:	4620      	mov	r0, r4
    404a:	f7fe fc79 	bl	2940 <mpi_sub_hlp>
/media/wen/My_Passport/Raspbian/raspbian-tee/raspbian-tee/optee_os/lib/libmbedtls/mbedtls/library/bignum.c:1666
    404e:	2000      	movs	r0, #0
/media/wen/My_Passport/Raspbian/raspbian-tee/raspbian-tee/optee_os/lib/libmbedtls/mbedtls/library/bignum.c:1667
    4050:	b005      	add	sp, #20
    4052:	e8bd 8ff0 	ldmia.w	sp!, {r4, r5, r6, r7, r8, r9, sl, fp, pc}
/media/wen/My_Passport/Raspbian/raspbian-tee/raspbian-tee/optee_os/lib/libmbedtls/mbedtls/library/bignum.c:1650 (discriminator 3)
    4056:	f8db 1008 	ldr.w	r1, [fp, #8]
/media/wen/My_Passport/Raspbian/raspbian-tee/raspbian-tee/optee_os/lib/libmbedtls/mbedtls/library/bignum.c:1649 (discriminator 3)
    405a:	f850 a027 	ldr.w	sl, [r0, r7, lsl #2]
/media/wen/My_Passport/Raspbian/raspbian-tee/raspbian-tee/optee_os/lib/libmbedtls/mbedtls/library/bignum.c:1644 (discriminator 3)
    405e:	3701      	adds	r7, #1
/media/wen/My_Passport/Raspbian/raspbian-tee/raspbian-tee/optee_os/lib/libmbedtls/mbedtls/library/bignum.c:1650 (discriminator 3)
    4060:	682a      	ldr	r2, [r5, #0]
/media/wen/My_Passport/Raspbian/raspbian-tee/raspbian-tee/optee_os/lib/libmbedtls/mbedtls/library/bignum.c:1652 (discriminator 3)
    4062:	9801      	ldr	r0, [sp, #4]
/media/wen/My_Passport/Raspbian/raspbian-tee/raspbian-tee/optee_os/lib/libmbedtls/mbedtls/library/bignum.c:1650 (discriminator 3)
    4064:	680b      	ldr	r3, [r1, #0]
    4066:	fb03 230a 	mla	r3, r3, sl, r2
    406a:	9a03      	ldr	r2, [sp, #12]
    406c:	4353      	muls	r3, r2
/media/wen/My_Passport/Raspbian/raspbian-tee/raspbian-tee/optee_os/lib/libmbedtls/mbedtls/library/bignum.c:1652 (discriminator 3)
    406e:	462a      	mov	r2, r5
/media/wen/My_Passport/Raspbian/raspbian-tee/raspbian-tee/optee_os/lib/libmbedtls/mbedtls/library/bignum.c:1650 (discriminator 3)
    4070:	9302      	str	r3, [sp, #8]
/media/wen/My_Passport/Raspbian/raspbian-tee/raspbian-tee/optee_os/lib/libmbedtls/mbedtls/library/bignum.c:1652 (discriminator 3)
    4072:	4653      	mov	r3, sl
    4074:	f7fe fc91 	bl	299a <mpi_mul_hlp>
/media/wen/My_Passport/Raspbian/raspbian-tee/raspbian-tee/optee_os/lib/libmbedtls/mbedtls/library/bignum.c:1653 (discriminator 3)
    4078:	9b02      	ldr	r3, [sp, #8]
    407a:	462a      	mov	r2, r5
    407c:	68b1      	ldr	r1, [r6, #8]
    407e:	4620      	mov	r0, r4
    4080:	f7fe fc8b 	bl	299a <mpi_mul_hlp>
/media/wen/My_Passport/Raspbian/raspbian-tee/raspbian-tee/optee_os/lib/libmbedtls/mbedtls/library/bignum.c:1655 (discriminator 3)
    4084:	f845 ab04 	str.w	sl, [r5], #4
    4088:	2300      	movs	r3, #0
    408a:	f845 3008 	str.w	r3, [r5, r8]
    408e:	e7c8      	b.n	4022 <mbedtls_mpi_montmul+0x46>
/media/wen/My_Passport/Raspbian/raspbian-tee/raspbian-tee/optee_os/lib/libmbedtls/mbedtls/library/bignum.c:1664
    4090:	9b0e      	ldr	r3, [sp, #56]	; 0x38
    4092:	f8d9 1008 	ldr.w	r1, [r9, #8]
    4096:	689a      	ldr	r2, [r3, #8]
    4098:	e7d6      	b.n	4048 <mbedtls_mpi_montmul+0x6c>
/media/wen/My_Passport/Raspbian/raspbian-tee/raspbian-tee/optee_os/lib/libmbedtls/mbedtls/library/bignum.c:1636
    409a:	f06f 0003 	mvn.w	r0, #3
    409e:	e7d7      	b.n	4050 <mbedtls_mpi_montmul+0x74>

000040a0 <mbedtls_mpi_montred>:
mbedtls_mpi_montred():
/media/wen/My_Passport/Raspbian/raspbian-tee/raspbian-tee/optee_os/lib/libmbedtls/mbedtls/library/bignum.c:1674
    40a0:	b510      	push	{r4, lr}
/media/wen/My_Passport/Raspbian/raspbian-tee/raspbian-tee/optee_os/lib/libmbedtls/mbedtls/library/bignum.c:1675
    40a2:	2401      	movs	r4, #1
/media/wen/My_Passport/Raspbian/raspbian-tee/raspbian-tee/optee_os/lib/libmbedtls/mbedtls/library/bignum.c:1674
    40a4:	b086      	sub	sp, #24
/media/wen/My_Passport/Raspbian/raspbian-tee/raspbian-tee/optee_os/lib/libmbedtls/mbedtls/library/bignum.c:1675
    40a6:	9402      	str	r4, [sp, #8]
/media/wen/My_Passport/Raspbian/raspbian-tee/raspbian-tee/optee_os/lib/libmbedtls/mbedtls/library/bignum.c:1678
    40a8:	f88d 400c 	strb.w	r4, [sp, #12]
    40ac:	f8ad 4010 	strh.w	r4, [sp, #16]
/media/wen/My_Passport/Raspbian/raspbian-tee/raspbian-tee/optee_os/lib/libmbedtls/mbedtls/library/bignum.c:1679
    40b0:	ac02      	add	r4, sp, #8
/media/wen/My_Passport/Raspbian/raspbian-tee/raspbian-tee/optee_os/lib/libmbedtls/mbedtls/library/bignum.c:1681
    40b2:	9300      	str	r3, [sp, #0]
    40b4:	4613      	mov	r3, r2
    40b6:	460a      	mov	r2, r1
    40b8:	a903      	add	r1, sp, #12
/media/wen/My_Passport/Raspbian/raspbian-tee/raspbian-tee/optee_os/lib/libmbedtls/mbedtls/library/bignum.c:1679
    40ba:	9405      	str	r4, [sp, #20]
/media/wen/My_Passport/Raspbian/raspbian-tee/raspbian-tee/optee_os/lib/libmbedtls/mbedtls/library/bignum.c:1681
    40bc:	f7ff ff8e 	bl	3fdc <mbedtls_mpi_montmul>
/media/wen/My_Passport/Raspbian/raspbian-tee/raspbian-tee/optee_os/lib/libmbedtls/mbedtls/library/bignum.c:1682
    40c0:	b006      	add	sp, #24
    40c2:	bd10      	pop	{r4, pc}

000040c4 <mbedtls_mpi_exp_mod>:
mbedtls_mpi_exp_mod():
/media/wen/My_Passport/Raspbian/raspbian-tee/raspbian-tee/optee_os/lib/libmbedtls/mbedtls/library/bignum.c:1688
    40c4:	e92d 4ff0 	stmdb	sp!, {r4, r5, r6, r7, r8, r9, sl, fp, lr}
    40c8:	4683      	mov	fp, r0
    40ca:	460e      	mov	r6, r1
    40cc:	f2ad 6d4c 	subw	sp, sp, #1612	; 0x64c
/media/wen/My_Passport/Raspbian/raspbian-tee/raspbian-tee/optee_os/lib/libmbedtls/mbedtls/library/bignum.c:1697
    40d0:	2100      	movs	r1, #0
    40d2:	4618      	mov	r0, r3
/media/wen/My_Passport/Raspbian/raspbian-tee/raspbian-tee/optee_os/lib/libmbedtls/mbedtls/library/bignum.c:1688
    40d4:	461c      	mov	r4, r3
    40d6:	9203      	str	r2, [sp, #12]
/media/wen/My_Passport/Raspbian/raspbian-tee/raspbian-tee/optee_os/lib/libmbedtls/mbedtls/library/bignum.c:1697
    40d8:	f7ff f9fa 	bl	34d0 <mbedtls_mpi_cmp_int>
    40dc:	2800      	cmp	r0, #0
    40de:	f2c0 8211 	blt.w	4504 <mbedtls_mpi_exp_mod+0x440>
/media/wen/My_Passport/Raspbian/raspbian-tee/raspbian-tee/optee_os/lib/libmbedtls/mbedtls/library/bignum.c:1697 (discriminator 1)
    40e2:	68a3      	ldr	r3, [r4, #8]
    40e4:	681b      	ldr	r3, [r3, #0]
    40e6:	07d9      	lsls	r1, r3, #31
    40e8:	f140 820c 	bpl.w	4504 <mbedtls_mpi_exp_mod+0x440>
/media/wen/My_Passport/Raspbian/raspbian-tee/raspbian-tee/optee_os/lib/libmbedtls/mbedtls/library/bignum.c:1700
    40ec:	2100      	movs	r1, #0
    40ee:	9803      	ldr	r0, [sp, #12]
    40f0:	f7ff f9ee 	bl	34d0 <mbedtls_mpi_cmp_int>
    40f4:	2800      	cmp	r0, #0
    40f6:	f2c0 8205 	blt.w	4504 <mbedtls_mpi_exp_mod+0x440>
/media/wen/My_Passport/Raspbian/raspbian-tee/raspbian-tee/optee_os/lib/libmbedtls/mbedtls/library/bignum.c:1706
    40fa:	f10d 0920 	add.w	r9, sp, #32
    40fe:	4621      	mov	r1, r4
    4100:	4648      	mov	r0, r9
/media/wen/My_Passport/Raspbian/raspbian-tee/raspbian-tee/optee_os/lib/libmbedtls/mbedtls/library/bignum.c:1707
    4102:	ad09      	add	r5, sp, #36	; 0x24
/media/wen/My_Passport/Raspbian/raspbian-tee/raspbian-tee/optee_os/lib/libmbedtls/mbedtls/library/bignum.c:1706
    4104:	f7ff ff56 	bl	3fb4 <mbedtls_mpi_montg_init>
/media/wen/My_Passport/Raspbian/raspbian-tee/raspbian-tee/optee_os/lib/libmbedtls/mbedtls/library/bignum.c:1707
    4108:	4628      	mov	r0, r5
    410a:	f7fe fe35 	bl	2d78 <mbedtls_mpi_init_mempool>
    410e:	ab0c      	add	r3, sp, #48	; 0x30
    4110:	4618      	mov	r0, r3
/media/wen/My_Passport/Raspbian/raspbian-tee/raspbian-tee/optee_os/lib/libmbedtls/mbedtls/library/bignum.c:1708
    4112:	f10d 083c 	add.w	r8, sp, #60	; 0x3c
/media/wen/My_Passport/Raspbian/raspbian-tee/raspbian-tee/optee_os/lib/libmbedtls/mbedtls/library/bignum.c:1707
    4116:	9304      	str	r3, [sp, #16]
    4118:	f7fe fe2e 	bl	2d78 <mbedtls_mpi_init_mempool>
/media/wen/My_Passport/Raspbian/raspbian-tee/raspbian-tee/optee_os/lib/libmbedtls/mbedtls/library/bignum.c:1708
    411c:	4640      	mov	r0, r8
    411e:	f7fe fe2b 	bl	2d78 <mbedtls_mpi_init_mempool>
/media/wen/My_Passport/Raspbian/raspbian-tee/raspbian-tee/optee_os/lib/libmbedtls/mbedtls/library/bignum.c:1709
    4122:	ab12      	add	r3, sp, #72	; 0x48
    4124:	f44f 62c0 	mov.w	r2, #1536	; 0x600
    4128:	2100      	movs	r1, #0
    412a:	4618      	mov	r0, r3
    412c:	9306      	str	r3, [sp, #24]
    412e:	f001 fde8 	bl	5d02 <memset>
/media/wen/My_Passport/Raspbian/raspbian-tee/raspbian-tee/optee_os/lib/libmbedtls/mbedtls/library/bignum.c:1711
    4132:	9803      	ldr	r0, [sp, #12]
    4134:	f7ff f844 	bl	31c0 <mbedtls_mpi_bitlen>
/media/wen/My_Passport/Raspbian/raspbian-tee/raspbian-tee/optee_os/lib/libmbedtls/mbedtls/library/bignum.c:1713
    4138:	f5b0 7f28 	cmp.w	r0, #672	; 0x2a0
    413c:	f080 80db 	bcs.w	42f6 <mbedtls_mpi_exp_mod+0x232>
/media/wen/My_Passport/Raspbian/raspbian-tee/raspbian-tee/optee_os/lib/libmbedtls/mbedtls/library/bignum.c:1713 (discriminator 1)
    4140:	28ef      	cmp	r0, #239	; 0xef
    4142:	f200 80da 	bhi.w	42fa <mbedtls_mpi_exp_mod+0x236>
/media/wen/My_Passport/Raspbian/raspbian-tee/raspbian-tee/optee_os/lib/libmbedtls/mbedtls/library/bignum.c:1713 (discriminator 3)
    4146:	284f      	cmp	r0, #79	; 0x4f
    4148:	f200 80d9 	bhi.w	42fe <mbedtls_mpi_exp_mod+0x23a>
/media/wen/My_Passport/Raspbian/raspbian-tee/raspbian-tee/optee_os/lib/libmbedtls/mbedtls/library/bignum.c:1713 (discriminator 5)
    414c:	2817      	cmp	r0, #23
    414e:	f04f 0303 	mov.w	r3, #3
    4152:	bf98      	it	ls
    4154:	2301      	movls	r3, #1
/media/wen/My_Passport/Raspbian/raspbian-tee/raspbian-tee/optee_os/lib/libmbedtls/mbedtls/library/bignum.c:1719
    4156:	88a2      	ldrh	r2, [r4, #4]
/media/wen/My_Passport/Raspbian/raspbian-tee/raspbian-tee/optee_os/lib/libmbedtls/mbedtls/library/bignum.c:1720
    4158:	4658      	mov	r0, fp
/media/wen/My_Passport/Raspbian/raspbian-tee/raspbian-tee/optee_os/lib/libmbedtls/mbedtls/library/bignum.c:1713
    415a:	9302      	str	r3, [sp, #8]
/media/wen/My_Passport/Raspbian/raspbian-tee/raspbian-tee/optee_os/lib/libmbedtls/mbedtls/library/bignum.c:1719
    415c:	1c57      	adds	r7, r2, #1
/media/wen/My_Passport/Raspbian/raspbian-tee/raspbian-tee/optee_os/lib/libmbedtls/mbedtls/library/bignum.c:1720
    415e:	4639      	mov	r1, r7
    4160:	f7fe fe4c 	bl	2dfc <mbedtls_mpi_grow>
    4164:	4603      	mov	r3, r0
    4166:	2800      	cmp	r0, #0
    4168:	f040 819f 	bne.w	44aa <mbedtls_mpi_exp_mod+0x3e6>
/media/wen/My_Passport/Raspbian/raspbian-tee/raspbian-tee/optee_os/lib/libmbedtls/mbedtls/library/bignum.c:1721
    416c:	f10d 0a54 	add.w	sl, sp, #84	; 0x54
    4170:	4639      	mov	r1, r7
    4172:	4650      	mov	r0, sl
    4174:	f7fe fe42 	bl	2dfc <mbedtls_mpi_grow>
    4178:	4603      	mov	r3, r0
    417a:	2800      	cmp	r0, #0
    417c:	f040 8195 	bne.w	44aa <mbedtls_mpi_exp_mod+0x3e6>
/media/wen/My_Passport/Raspbian/raspbian-tee/raspbian-tee/optee_os/lib/libmbedtls/mbedtls/library/bignum.c:1722
    4180:	0079      	lsls	r1, r7, #1
    4182:	9804      	ldr	r0, [sp, #16]
    4184:	f7fe fe3a 	bl	2dfc <mbedtls_mpi_grow>
    4188:	4603      	mov	r3, r0
    418a:	2800      	cmp	r0, #0
    418c:	f040 818d 	bne.w	44aa <mbedtls_mpi_exp_mod+0x3e6>
/media/wen/My_Passport/Raspbian/raspbian-tee/raspbian-tee/optee_os/lib/libmbedtls/mbedtls/library/bignum.c:1727
    4190:	f996 3000 	ldrsb.w	r3, [r6]
    4194:	9305      	str	r3, [sp, #20]
/media/wen/My_Passport/Raspbian/raspbian-tee/raspbian-tee/optee_os/lib/libmbedtls/mbedtls/library/bignum.c:1728
    4196:	3301      	adds	r3, #1
    4198:	d10b      	bne.n	41b2 <mbedtls_mpi_exp_mod+0xee>
/media/wen/My_Passport/Raspbian/raspbian-tee/raspbian-tee/optee_os/lib/libmbedtls/mbedtls/library/bignum.c:1730
    419a:	4631      	mov	r1, r6
    419c:	4640      	mov	r0, r8
    419e:	f7fe fee9 	bl	2f74 <mbedtls_mpi_copy>
    41a2:	4603      	mov	r3, r0
    41a4:	2800      	cmp	r0, #0
    41a6:	f040 8180 	bne.w	44aa <mbedtls_mpi_exp_mod+0x3e6>
/media/wen/My_Passport/Raspbian/raspbian-tee/raspbian-tee/optee_os/lib/libmbedtls/mbedtls/library/bignum.c:1731
    41aa:	2301      	movs	r3, #1
/media/wen/My_Passport/Raspbian/raspbian-tee/raspbian-tee/optee_os/lib/libmbedtls/mbedtls/library/bignum.c:1732
    41ac:	4646      	mov	r6, r8
/media/wen/My_Passport/Raspbian/raspbian-tee/raspbian-tee/optee_os/lib/libmbedtls/mbedtls/library/bignum.c:1731
    41ae:	f888 3000 	strb.w	r3, [r8]
/media/wen/My_Passport/Raspbian/raspbian-tee/raspbian-tee/optee_os/lib/libmbedtls/mbedtls/library/bignum.c:1738
    41b2:	f8dd 3670 	ldr.w	r3, [sp, #1648]	; 0x670
    41b6:	b11b      	cbz	r3, 41c0 <mbedtls_mpi_exp_mod+0xfc>
/media/wen/My_Passport/Raspbian/raspbian-tee/raspbian-tee/optee_os/lib/libmbedtls/mbedtls/library/bignum.c:1738 (discriminator 1)
    41b8:	689b      	ldr	r3, [r3, #8]
    41ba:	2b00      	cmp	r3, #0
    41bc:	f040 80a1 	bne.w	4302 <mbedtls_mpi_exp_mod+0x23e>
/media/wen/My_Passport/Raspbian/raspbian-tee/raspbian-tee/optee_os/lib/libmbedtls/mbedtls/library/bignum.c:1740
    41c0:	2101      	movs	r1, #1
    41c2:	4628      	mov	r0, r5
    41c4:	f7fe ff91 	bl	30ea <mbedtls_mpi_lset>
    41c8:	4603      	mov	r3, r0
    41ca:	2800      	cmp	r0, #0
    41cc:	f040 816d 	bne.w	44aa <mbedtls_mpi_exp_mod+0x3e6>
/media/wen/My_Passport/Raspbian/raspbian-tee/raspbian-tee/optee_os/lib/libmbedtls/mbedtls/library/bignum.c:1741
    41d0:	88a1      	ldrh	r1, [r4, #4]
    41d2:	4628      	mov	r0, r5
    41d4:	0189      	lsls	r1, r1, #6
    41d6:	f7ff f871 	bl	32bc <mbedtls_mpi_shift_l>
    41da:	4603      	mov	r3, r0
    41dc:	2800      	cmp	r0, #0
    41de:	f040 8164 	bne.w	44aa <mbedtls_mpi_exp_mod+0x3e6>
/media/wen/My_Passport/Raspbian/raspbian-tee/raspbian-tee/optee_os/lib/libmbedtls/mbedtls/library/bignum.c:1742
    41e2:	4622      	mov	r2, r4
    41e4:	4629      	mov	r1, r5
    41e6:	4628      	mov	r0, r5
    41e8:	f7ff fd9a 	bl	3d20 <mbedtls_mpi_mod_mpi>
    41ec:	4603      	mov	r3, r0
    41ee:	2800      	cmp	r0, #0
    41f0:	f040 815b 	bne.w	44aa <mbedtls_mpi_exp_mod+0x3e6>
/media/wen/My_Passport/Raspbian/raspbian-tee/raspbian-tee/optee_os/lib/libmbedtls/mbedtls/library/bignum.c:1744
    41f4:	f8dd 3670 	ldr.w	r3, [sp, #1648]	; 0x670
    41f8:	b123      	cbz	r3, 4204 <mbedtls_mpi_exp_mod+0x140>
/media/wen/My_Passport/Raspbian/raspbian-tee/raspbian-tee/optee_os/lib/libmbedtls/mbedtls/library/bignum.c:1745
    41fa:	220c      	movs	r2, #12
    41fc:	4629      	mov	r1, r5
    41fe:	4618      	mov	r0, r3
/media/wen/My_Passport/Raspbian/raspbian-tee/raspbian-tee/optee_os/lib/libmbedtls/mbedtls/library/bignum.c:1748
    4200:	f001 fd74 	bl	5cec <memcpy>
/media/wen/My_Passport/Raspbian/raspbian-tee/raspbian-tee/optee_os/lib/libmbedtls/mbedtls/library/bignum.c:1753
    4204:	4621      	mov	r1, r4
    4206:	4630      	mov	r0, r6
    4208:	f7ff f917 	bl	343a <mbedtls_mpi_cmp_mpi>
    420c:	2800      	cmp	r0, #0
    420e:	db7d      	blt.n	430c <mbedtls_mpi_exp_mod+0x248>
/media/wen/My_Passport/Raspbian/raspbian-tee/raspbian-tee/optee_os/lib/libmbedtls/mbedtls/library/bignum.c:1754
    4210:	4622      	mov	r2, r4
    4212:	4631      	mov	r1, r6
    4214:	4650      	mov	r0, sl
    4216:	f7ff fd83 	bl	3d20 <mbedtls_mpi_mod_mpi>
    421a:	4603      	mov	r3, r0
    421c:	2800      	cmp	r0, #0
    421e:	f040 8144 	bne.w	44aa <mbedtls_mpi_exp_mod+0x3e6>
/media/wen/My_Passport/Raspbian/raspbian-tee/raspbian-tee/optee_os/lib/libmbedtls/mbedtls/library/bignum.c:1758
    4222:	ab0c      	add	r3, sp, #48	; 0x30
    4224:	f10d 0854 	add.w	r8, sp, #84	; 0x54
    4228:	9300      	str	r3, [sp, #0]
    422a:	4622      	mov	r2, r4
    422c:	9304      	str	r3, [sp, #16]
    422e:	4629      	mov	r1, r5
    4230:	f8d9 3000 	ldr.w	r3, [r9]
    4234:	4640      	mov	r0, r8
    4236:	f7ff fed1 	bl	3fdc <mbedtls_mpi_montmul>
    423a:	4603      	mov	r3, r0
    423c:	2800      	cmp	r0, #0
    423e:	f040 8134 	bne.w	44aa <mbedtls_mpi_exp_mod+0x3e6>
/media/wen/My_Passport/Raspbian/raspbian-tee/raspbian-tee/optee_os/lib/libmbedtls/mbedtls/library/bignum.c:1763
    4242:	4629      	mov	r1, r5
    4244:	4658      	mov	r0, fp
    4246:	f7fe fe95 	bl	2f74 <mbedtls_mpi_copy>
    424a:	4603      	mov	r3, r0
    424c:	2800      	cmp	r0, #0
    424e:	f040 812c 	bne.w	44aa <mbedtls_mpi_exp_mod+0x3e6>
/media/wen/My_Passport/Raspbian/raspbian-tee/raspbian-tee/optee_os/lib/libmbedtls/mbedtls/library/bignum.c:1764
    4252:	9b04      	ldr	r3, [sp, #16]
    4254:	4621      	mov	r1, r4
    4256:	f8d9 2000 	ldr.w	r2, [r9]
    425a:	4658      	mov	r0, fp
    425c:	f7ff ff20 	bl	40a0 <mbedtls_mpi_montred>
    4260:	4603      	mov	r3, r0
    4262:	2800      	cmp	r0, #0
    4264:	f040 8121 	bne.w	44aa <mbedtls_mpi_exp_mod+0x3e6>
/media/wen/My_Passport/Raspbian/raspbian-tee/raspbian-tee/optee_os/lib/libmbedtls/mbedtls/library/bignum.c:1766
    4268:	9b02      	ldr	r3, [sp, #8]
    426a:	2b01      	cmp	r3, #1
    426c:	d153      	bne.n	4316 <mbedtls_mpi_exp_mod+0x252>
/media/wen/My_Passport/Raspbian/raspbian-tee/raspbian-tee/optee_os/lib/libmbedtls/mbedtls/library/bignum.c:1791
    426e:	9b03      	ldr	r3, [sp, #12]
/media/wen/My_Passport/Raspbian/raspbian-tee/raspbian-tee/optee_os/lib/libmbedtls/mbedtls/library/bignum.c:1795
    4270:	2600      	movs	r6, #0
/media/wen/My_Passport/Raspbian/raspbian-tee/raspbian-tee/optee_os/lib/libmbedtls/mbedtls/library/bignum.c:1793
    4272:	46b2      	mov	sl, r6
/media/wen/My_Passport/Raspbian/raspbian-tee/raspbian-tee/optee_os/lib/libmbedtls/mbedtls/library/bignum.c:1792
    4274:	4637      	mov	r7, r6
/media/wen/My_Passport/Raspbian/raspbian-tee/raspbian-tee/optee_os/lib/libmbedtls/mbedtls/library/bignum.c:1794
    4276:	4635      	mov	r5, r6
/media/wen/My_Passport/Raspbian/raspbian-tee/raspbian-tee/optee_os/lib/libmbedtls/mbedtls/library/bignum.c:1842
    4278:	f10d 0920 	add.w	r9, sp, #32
/media/wen/My_Passport/Raspbian/raspbian-tee/raspbian-tee/optee_os/lib/libmbedtls/mbedtls/library/bignum.c:1791
    427c:	f8b3 8004 	ldrh.w	r8, [r3, #4]
/media/wen/My_Passport/Raspbian/raspbian-tee/raspbian-tee/optee_os/lib/libmbedtls/mbedtls/library/bignum.c:1842
    4280:	ab0c      	add	r3, sp, #48	; 0x30
    4282:	9306      	str	r3, [sp, #24]
/media/wen/My_Passport/Raspbian/raspbian-tee/raspbian-tee/optee_os/lib/libmbedtls/mbedtls/library/bignum.c:1847
    4284:	ab12      	add	r3, sp, #72	; 0x48
    4286:	9307      	str	r3, [sp, #28]
/media/wen/My_Passport/Raspbian/raspbian-tee/raspbian-tee/optee_os/lib/libmbedtls/mbedtls/library/bignum.c:1799
    4288:	2f00      	cmp	r7, #0
    428a:	f040 80ac 	bne.w	43e6 <mbedtls_mpi_exp_mod+0x322>
/media/wen/My_Passport/Raspbian/raspbian-tee/raspbian-tee/optee_os/lib/libmbedtls/mbedtls/library/bignum.c:1801
    428e:	f1b8 0f00 	cmp.w	r8, #0
    4292:	f040 80a5 	bne.w	43e0 <mbedtls_mpi_exp_mod+0x31c>
/media/wen/My_Passport/Raspbian/raspbian-tee/raspbian-tee/optee_os/lib/libmbedtls/mbedtls/library/bignum.c:1864
    4296:	2701      	movs	r7, #1
    4298:	9b02      	ldr	r3, [sp, #8]
    429a:	ae08      	add	r6, sp, #32
/media/wen/My_Passport/Raspbian/raspbian-tee/raspbian-tee/optee_os/lib/libmbedtls/mbedtls/library/bignum.c:1865
    429c:	f10d 0954 	add.w	r9, sp, #84	; 0x54
/media/wen/My_Passport/Raspbian/raspbian-tee/raspbian-tee/optee_os/lib/libmbedtls/mbedtls/library/bignum.c:1864
    42a0:	fa07 f303 	lsl.w	r3, r7, r3
/media/wen/My_Passport/Raspbian/raspbian-tee/raspbian-tee/optee_os/lib/libmbedtls/mbedtls/library/bignum.c:1860
    42a4:	af0c      	add	r7, sp, #48	; 0x30
/media/wen/My_Passport/Raspbian/raspbian-tee/raspbian-tee/optee_os/lib/libmbedtls/mbedtls/library/bignum.c:1864
    42a6:	9306      	str	r3, [sp, #24]
/media/wen/My_Passport/Raspbian/raspbian-tee/raspbian-tee/optee_os/lib/libmbedtls/mbedtls/library/bignum.c:1858 (discriminator 1)
    42a8:	45d0      	cmp	r8, sl
    42aa:	f040 80e4 	bne.w	4476 <mbedtls_mpi_exp_mod+0x3b2>
/media/wen/My_Passport/Raspbian/raspbian-tee/raspbian-tee/optee_os/lib/libmbedtls/mbedtls/library/bignum.c:1871
    42ae:	9b04      	ldr	r3, [sp, #16]
    42b0:	4621      	mov	r1, r4
    42b2:	6832      	ldr	r2, [r6, #0]
    42b4:	4658      	mov	r0, fp
    42b6:	f7ff fef3 	bl	40a0 <mbedtls_mpi_montred>
    42ba:	4603      	mov	r3, r0
    42bc:	2800      	cmp	r0, #0
    42be:	f040 80f4 	bne.w	44aa <mbedtls_mpi_exp_mod+0x3e6>
/media/wen/My_Passport/Raspbian/raspbian-tee/raspbian-tee/optee_os/lib/libmbedtls/mbedtls/library/bignum.c:1873
    42c2:	9a05      	ldr	r2, [sp, #20]
    42c4:	3201      	adds	r2, #1
    42c6:	f040 80f0 	bne.w	44aa <mbedtls_mpi_exp_mod+0x3e6>
/media/wen/My_Passport/Raspbian/raspbian-tee/raspbian-tee/optee_os/lib/libmbedtls/mbedtls/library/bignum.c:1873 (discriminator 1)
    42ca:	9a03      	ldr	r2, [sp, #12]
    42cc:	8892      	ldrh	r2, [r2, #4]
    42ce:	2a00      	cmp	r2, #0
    42d0:	f000 80eb 	beq.w	44aa <mbedtls_mpi_exp_mod+0x3e6>
/media/wen/My_Passport/Raspbian/raspbian-tee/raspbian-tee/optee_os/lib/libmbedtls/mbedtls/library/bignum.c:1873 (discriminator 2)
    42d4:	9a03      	ldr	r2, [sp, #12]
    42d6:	6892      	ldr	r2, [r2, #8]
    42d8:	6812      	ldr	r2, [r2, #0]
    42da:	07d2      	lsls	r2, r2, #31
    42dc:	f140 80e5 	bpl.w	44aa <mbedtls_mpi_exp_mod+0x3e6>
/media/wen/My_Passport/Raspbian/raspbian-tee/raspbian-tee/optee_os/lib/libmbedtls/mbedtls/library/bignum.c:1875
    42e0:	f89d 3014 	ldrb.w	r3, [sp, #20]
/media/wen/My_Passport/Raspbian/raspbian-tee/raspbian-tee/optee_os/lib/libmbedtls/mbedtls/library/bignum.c:1876
    42e4:	465a      	mov	r2, fp
    42e6:	4621      	mov	r1, r4
    42e8:	4658      	mov	r0, fp
/media/wen/My_Passport/Raspbian/raspbian-tee/raspbian-tee/optee_os/lib/libmbedtls/mbedtls/library/bignum.c:1875
    42ea:	f88b 3000 	strb.w	r3, [fp]
/media/wen/My_Passport/Raspbian/raspbian-tee/raspbian-tee/optee_os/lib/libmbedtls/mbedtls/library/bignum.c:1876
    42ee:	f7ff f9a2 	bl	3636 <mbedtls_mpi_add_mpi>
    42f2:	4603      	mov	r3, r0
    42f4:	e0d9      	b.n	44aa <mbedtls_mpi_exp_mod+0x3e6>
/media/wen/My_Passport/Raspbian/raspbian-tee/raspbian-tee/optee_os/lib/libmbedtls/mbedtls/library/bignum.c:1713
    42f6:	2306      	movs	r3, #6
    42f8:	e72d      	b.n	4156 <mbedtls_mpi_exp_mod+0x92>
    42fa:	2305      	movs	r3, #5
    42fc:	e72b      	b.n	4156 <mbedtls_mpi_exp_mod+0x92>
    42fe:	2304      	movs	r3, #4
    4300:	e729      	b.n	4156 <mbedtls_mpi_exp_mod+0x92>
/media/wen/My_Passport/Raspbian/raspbian-tee/raspbian-tee/optee_os/lib/libmbedtls/mbedtls/library/bignum.c:1748
    4302:	220c      	movs	r2, #12
    4304:	f8dd 1670 	ldr.w	r1, [sp, #1648]	; 0x670
    4308:	4628      	mov	r0, r5
    430a:	e779      	b.n	4200 <mbedtls_mpi_exp_mod+0x13c>
/media/wen/My_Passport/Raspbian/raspbian-tee/raspbian-tee/optee_os/lib/libmbedtls/mbedtls/library/bignum.c:1756
    430c:	4631      	mov	r1, r6
    430e:	4650      	mov	r0, sl
    4310:	f7fe fe30 	bl	2f74 <mbedtls_mpi_copy>
    4314:	e781      	b.n	421a <mbedtls_mpi_exp_mod+0x156>
/media/wen/My_Passport/Raspbian/raspbian-tee/raspbian-tee/optee_os/lib/libmbedtls/mbedtls/library/bignum.c:1771
    4316:	9b02      	ldr	r3, [sp, #8]
    4318:	250c      	movs	r5, #12
/media/wen/My_Passport/Raspbian/raspbian-tee/raspbian-tee/optee_os/lib/libmbedtls/mbedtls/library/bignum.c:1773
    431a:	88a1      	ldrh	r1, [r4, #4]
/media/wen/My_Passport/Raspbian/raspbian-tee/raspbian-tee/optee_os/lib/libmbedtls/mbedtls/library/bignum.c:1771
    431c:	2601      	movs	r6, #1
    431e:	f103 39ff 	add.w	r9, r3, #4294967295
/media/wen/My_Passport/Raspbian/raspbian-tee/raspbian-tee/optee_os/lib/libmbedtls/mbedtls/library/bignum.c:1773
    4322:	9b06      	ldr	r3, [sp, #24]
    4324:	3101      	adds	r1, #1
    4326:	fa05 f509 	lsl.w	r5, r5, r9
    432a:	442b      	add	r3, r5
/media/wen/My_Passport/Raspbian/raspbian-tee/raspbian-tee/optee_os/lib/libmbedtls/mbedtls/library/bignum.c:1771
    432c:	fa06 f609 	lsl.w	r6, r6, r9
/media/wen/My_Passport/Raspbian/raspbian-tee/raspbian-tee/optee_os/lib/libmbedtls/mbedtls/library/bignum.c:1773
    4330:	4618      	mov	r0, r3
    4332:	461f      	mov	r7, r3
    4334:	f7fe fd62 	bl	2dfc <mbedtls_mpi_grow>
    4338:	4603      	mov	r3, r0
    433a:	2800      	cmp	r0, #0
    433c:	f040 80b5 	bne.w	44aa <mbedtls_mpi_exp_mod+0x3e6>
/media/wen/My_Passport/Raspbian/raspbian-tee/raspbian-tee/optee_os/lib/libmbedtls/mbedtls/library/bignum.c:1774
    4340:	4641      	mov	r1, r8
    4342:	4638      	mov	r0, r7
    4344:	f7fe fe16 	bl	2f74 <mbedtls_mpi_copy>
    4348:	4603      	mov	r3, r0
    434a:	2800      	cmp	r0, #0
    434c:	f040 80ad 	bne.w	44aa <mbedtls_mpi_exp_mod+0x3e6>
/media/wen/My_Passport/Raspbian/raspbian-tee/raspbian-tee/optee_os/lib/libmbedtls/mbedtls/library/bignum.c:1777
    4350:	9b04      	ldr	r3, [sp, #16]
    4352:	4680      	mov	r8, r0
    4354:	f10d 0a20 	add.w	sl, sp, #32
    4358:	9306      	str	r3, [sp, #24]
    435a:	9b06      	ldr	r3, [sp, #24]
    435c:	4622      	mov	r2, r4
    435e:	4639      	mov	r1, r7
    4360:	4638      	mov	r0, r7
    4362:	9300      	str	r3, [sp, #0]
    4364:	f8da 3000 	ldr.w	r3, [sl]
    4368:	f7ff fe38 	bl	3fdc <mbedtls_mpi_montmul>
    436c:	4603      	mov	r3, r0
    436e:	2800      	cmp	r0, #0
    4370:	f040 809b 	bne.w	44aa <mbedtls_mpi_exp_mod+0x3e6>
/media/wen/My_Passport/Raspbian/raspbian-tee/raspbian-tee/optee_os/lib/libmbedtls/mbedtls/library/bignum.c:1776 (discriminator 2)
    4374:	f108 0801 	add.w	r8, r8, #1
    4378:	45c1      	cmp	r9, r8
    437a:	d8ee      	bhi.n	435a <mbedtls_mpi_exp_mod+0x296>
/media/wen/My_Passport/Raspbian/raspbian-tee/raspbian-tee/optee_os/lib/libmbedtls/mbedtls/library/bignum.c:1782
    437c:	9b02      	ldr	r3, [sp, #8]
    437e:	2701      	movs	r7, #1
    4380:	3601      	adds	r6, #1
/media/wen/My_Passport/Raspbian/raspbian-tee/raspbian-tee/optee_os/lib/libmbedtls/mbedtls/library/bignum.c:1787
    4382:	f10d 0820 	add.w	r8, sp, #32
    4386:	f10d 0954 	add.w	r9, sp, #84	; 0x54
/media/wen/My_Passport/Raspbian/raspbian-tee/raspbian-tee/optee_os/lib/libmbedtls/mbedtls/library/bignum.c:1782
    438a:	409f      	lsls	r7, r3
    438c:	f50d 63c9 	add.w	r3, sp, #1608	; 0x648
    4390:	441d      	add	r5, r3
    4392:	f2a5 55f4 	subw	r5, r5, #1524	; 0x5f4
/media/wen/My_Passport/Raspbian/raspbian-tee/raspbian-tee/optee_os/lib/libmbedtls/mbedtls/library/bignum.c:1782 (discriminator 1)
    4396:	42be      	cmp	r6, r7
    4398:	f4bf af69 	bcs.w	426e <mbedtls_mpi_exp_mod+0x1aa>
/media/wen/My_Passport/Raspbian/raspbian-tee/raspbian-tee/optee_os/lib/libmbedtls/mbedtls/library/bignum.c:1784
    439c:	88a1      	ldrh	r1, [r4, #4]
    439e:	4628      	mov	r0, r5
    43a0:	3101      	adds	r1, #1
    43a2:	f7fe fd2b 	bl	2dfc <mbedtls_mpi_grow>
    43a6:	4603      	mov	r3, r0
    43a8:	2800      	cmp	r0, #0
    43aa:	d17e      	bne.n	44aa <mbedtls_mpi_exp_mod+0x3e6>
/media/wen/My_Passport/Raspbian/raspbian-tee/raspbian-tee/optee_os/lib/libmbedtls/mbedtls/library/bignum.c:1785
    43ac:	f1a5 010c 	sub.w	r1, r5, #12
    43b0:	4628      	mov	r0, r5
    43b2:	f7fe fddf 	bl	2f74 <mbedtls_mpi_copy>
    43b6:	4603      	mov	r3, r0
    43b8:	2800      	cmp	r0, #0
    43ba:	d176      	bne.n	44aa <mbedtls_mpi_exp_mod+0x3e6>
/media/wen/My_Passport/Raspbian/raspbian-tee/raspbian-tee/optee_os/lib/libmbedtls/mbedtls/library/bignum.c:1787
    43bc:	9b04      	ldr	r3, [sp, #16]
    43be:	4628      	mov	r0, r5
    43c0:	4622      	mov	r2, r4
    43c2:	4649      	mov	r1, r9
    43c4:	9300      	str	r3, [sp, #0]
    43c6:	350c      	adds	r5, #12
    43c8:	f8d8 3000 	ldr.w	r3, [r8]
    43cc:	f7ff fe06 	bl	3fdc <mbedtls_mpi_montmul>
    43d0:	4603      	mov	r3, r0
    43d2:	2800      	cmp	r0, #0
    43d4:	d169      	bne.n	44aa <mbedtls_mpi_exp_mod+0x3e6>
/media/wen/My_Passport/Raspbian/raspbian-tee/raspbian-tee/optee_os/lib/libmbedtls/mbedtls/library/bignum.c:1782 (discriminator 2)
    43d6:	3601      	adds	r6, #1
    43d8:	e7dd      	b.n	4396 <mbedtls_mpi_exp_mod+0x2d2>
/media/wen/My_Passport/Raspbian/raspbian-tee/raspbian-tee/optee_os/lib/libmbedtls/mbedtls/library/bignum.c:1831
    43da:	2202      	movs	r2, #2
/media/wen/My_Passport/Raspbian/raspbian-tee/raspbian-tee/optee_os/lib/libmbedtls/mbedtls/library/bignum.c:1851
    43dc:	4616      	mov	r6, r2
    43de:	e753      	b.n	4288 <mbedtls_mpi_exp_mod+0x1c4>
/media/wen/My_Passport/Raspbian/raspbian-tee/raspbian-tee/optee_os/lib/libmbedtls/mbedtls/library/bignum.c:1804
    43e0:	f108 38ff 	add.w	r8, r8, #4294967295
/media/wen/My_Passport/Raspbian/raspbian-tee/raspbian-tee/optee_os/lib/libmbedtls/mbedtls/library/bignum.c:1806
    43e4:	2720      	movs	r7, #32
/media/wen/My_Passport/Raspbian/raspbian-tee/raspbian-tee/optee_os/lib/libmbedtls/mbedtls/library/bignum.c:1811
    43e6:	9b03      	ldr	r3, [sp, #12]
/media/wen/My_Passport/Raspbian/raspbian-tee/raspbian-tee/optee_os/lib/libmbedtls/mbedtls/library/bignum.c:1809
    43e8:	3f01      	subs	r7, #1
/media/wen/My_Passport/Raspbian/raspbian-tee/raspbian-tee/optee_os/lib/libmbedtls/mbedtls/library/bignum.c:1811
    43ea:	689b      	ldr	r3, [r3, #8]
    43ec:	f853 3028 	ldr.w	r3, [r3, r8, lsl #2]
    43f0:	40fb      	lsrs	r3, r7
    43f2:	f003 0301 	and.w	r3, r3, #1
/media/wen/My_Passport/Raspbian/raspbian-tee/raspbian-tee/optee_os/lib/libmbedtls/mbedtls/library/bignum.c:1816
    43f6:	ea56 0203 	orrs.w	r2, r6, r3
    43fa:	d0ef      	beq.n	43dc <mbedtls_mpi_exp_mod+0x318>
/media/wen/My_Passport/Raspbian/raspbian-tee/raspbian-tee/optee_os/lib/libmbedtls/mbedtls/library/bignum.c:1819
    43fc:	b97b      	cbnz	r3, 441e <mbedtls_mpi_exp_mod+0x35a>
/media/wen/My_Passport/Raspbian/raspbian-tee/raspbian-tee/optee_os/lib/libmbedtls/mbedtls/library/bignum.c:1819 (discriminator 1)
    43fe:	2e01      	cmp	r6, #1
    4400:	d10d      	bne.n	441e <mbedtls_mpi_exp_mod+0x35a>
/media/wen/My_Passport/Raspbian/raspbian-tee/raspbian-tee/optee_os/lib/libmbedtls/mbedtls/library/bignum.c:1824
    4402:	9b06      	ldr	r3, [sp, #24]
    4404:	4622      	mov	r2, r4
    4406:	4659      	mov	r1, fp
    4408:	4658      	mov	r0, fp
    440a:	9300      	str	r3, [sp, #0]
    440c:	f8d9 3000 	ldr.w	r3, [r9]
    4410:	f7ff fde4 	bl	3fdc <mbedtls_mpi_montmul>
    4414:	4603      	mov	r3, r0
    4416:	2800      	cmp	r0, #0
    4418:	d147      	bne.n	44aa <mbedtls_mpi_exp_mod+0x3e6>
    441a:	4632      	mov	r2, r6
    441c:	e7de      	b.n	43dc <mbedtls_mpi_exp_mod+0x318>
/media/wen/My_Passport/Raspbian/raspbian-tee/raspbian-tee/optee_os/lib/libmbedtls/mbedtls/library/bignum.c:1834
    441e:	9a02      	ldr	r2, [sp, #8]
/media/wen/My_Passport/Raspbian/raspbian-tee/raspbian-tee/optee_os/lib/libmbedtls/mbedtls/library/bignum.c:1833
    4420:	f10a 0a01 	add.w	sl, sl, #1
/media/wen/My_Passport/Raspbian/raspbian-tee/raspbian-tee/optee_os/lib/libmbedtls/mbedtls/library/bignum.c:1834
    4424:	eba2 020a 	sub.w	r2, r2, sl
    4428:	4093      	lsls	r3, r2
    442a:	431d      	orrs	r5, r3
/media/wen/My_Passport/Raspbian/raspbian-tee/raspbian-tee/optee_os/lib/libmbedtls/mbedtls/library/bignum.c:1836
    442c:	9b02      	ldr	r3, [sp, #8]
    442e:	4553      	cmp	r3, sl
    4430:	d1d3      	bne.n	43da <mbedtls_mpi_exp_mod+0x316>
    4432:	2600      	movs	r6, #0
/media/wen/My_Passport/Raspbian/raspbian-tee/raspbian-tee/optee_os/lib/libmbedtls/mbedtls/library/bignum.c:1842
    4434:	9b06      	ldr	r3, [sp, #24]
    4436:	4622      	mov	r2, r4
    4438:	4659      	mov	r1, fp
    443a:	4658      	mov	r0, fp
    443c:	9300      	str	r3, [sp, #0]
    443e:	f8d9 3000 	ldr.w	r3, [r9]
    4442:	f7ff fdcb 	bl	3fdc <mbedtls_mpi_montmul>
    4446:	4603      	mov	r3, r0
    4448:	bb78      	cbnz	r0, 44aa <mbedtls_mpi_exp_mod+0x3e6>
/media/wen/My_Passport/Raspbian/raspbian-tee/raspbian-tee/optee_os/lib/libmbedtls/mbedtls/library/bignum.c:1841 (discriminator 2)
    444a:	9b02      	ldr	r3, [sp, #8]
    444c:	3601      	adds	r6, #1
    444e:	42b3      	cmp	r3, r6
    4450:	d8f0      	bhi.n	4434 <mbedtls_mpi_exp_mod+0x370>
/media/wen/My_Passport/Raspbian/raspbian-tee/raspbian-tee/optee_os/lib/libmbedtls/mbedtls/library/bignum.c:1847
    4452:	9b06      	ldr	r3, [sp, #24]
    4454:	210c      	movs	r1, #12
    4456:	9807      	ldr	r0, [sp, #28]
    4458:	4622      	mov	r2, r4
    445a:	9300      	str	r3, [sp, #0]
    445c:	fb01 0105 	mla	r1, r1, r5, r0
    4460:	4658      	mov	r0, fp
    4462:	f8d9 3000 	ldr.w	r3, [r9]
    4466:	f7ff fdb9 	bl	3fdc <mbedtls_mpi_montmul>
    446a:	4603      	mov	r3, r0
    446c:	b9e8      	cbnz	r0, 44aa <mbedtls_mpi_exp_mod+0x3e6>
/media/wen/My_Passport/Raspbian/raspbian-tee/raspbian-tee/optee_os/lib/libmbedtls/mbedtls/library/bignum.c:1849
    446e:	2201      	movs	r2, #1
/media/wen/My_Passport/Raspbian/raspbian-tee/raspbian-tee/optee_os/lib/libmbedtls/mbedtls/library/bignum.c:1850
    4470:	4605      	mov	r5, r0
/media/wen/My_Passport/Raspbian/raspbian-tee/raspbian-tee/optee_os/lib/libmbedtls/mbedtls/library/bignum.c:1851
    4472:	4682      	mov	sl, r0
    4474:	e7b2      	b.n	43dc <mbedtls_mpi_exp_mod+0x318>
/media/wen/My_Passport/Raspbian/raspbian-tee/raspbian-tee/optee_os/lib/libmbedtls/mbedtls/library/bignum.c:1860
    4476:	9700      	str	r7, [sp, #0]
    4478:	4622      	mov	r2, r4
    447a:	4659      	mov	r1, fp
    447c:	4658      	mov	r0, fp
    447e:	6833      	ldr	r3, [r6, #0]
    4480:	f7ff fdac 	bl	3fdc <mbedtls_mpi_montmul>
    4484:	4603      	mov	r3, r0
    4486:	b980      	cbnz	r0, 44aa <mbedtls_mpi_exp_mod+0x3e6>
/media/wen/My_Passport/Raspbian/raspbian-tee/raspbian-tee/optee_os/lib/libmbedtls/mbedtls/library/bignum.c:1864
    4488:	9b06      	ldr	r3, [sp, #24]
/media/wen/My_Passport/Raspbian/raspbian-tee/raspbian-tee/optee_os/lib/libmbedtls/mbedtls/library/bignum.c:1862
    448a:	006d      	lsls	r5, r5, #1
/media/wen/My_Passport/Raspbian/raspbian-tee/raspbian-tee/optee_os/lib/libmbedtls/mbedtls/library/bignum.c:1864
    448c:	421d      	tst	r5, r3
    448e:	d102      	bne.n	4496 <mbedtls_mpi_exp_mod+0x3d2>
/media/wen/My_Passport/Raspbian/raspbian-tee/raspbian-tee/optee_os/lib/libmbedtls/mbedtls/library/bignum.c:1858
    4490:	f108 0801 	add.w	r8, r8, #1
    4494:	e708      	b.n	42a8 <mbedtls_mpi_exp_mod+0x1e4>
/media/wen/My_Passport/Raspbian/raspbian-tee/raspbian-tee/optee_os/lib/libmbedtls/mbedtls/library/bignum.c:1865
    4496:	9700      	str	r7, [sp, #0]
    4498:	4622      	mov	r2, r4
    449a:	4649      	mov	r1, r9
    449c:	4658      	mov	r0, fp
    449e:	6833      	ldr	r3, [r6, #0]
    44a0:	f7ff fd9c 	bl	3fdc <mbedtls_mpi_montmul>
    44a4:	4603      	mov	r3, r0
    44a6:	2800      	cmp	r0, #0
    44a8:	d0f2      	beq.n	4490 <mbedtls_mpi_exp_mod+0x3cc>
/media/wen/My_Passport/Raspbian/raspbian-tee/raspbian-tee/optee_os/lib/libmbedtls/mbedtls/library/bignum.c:1881
    44aa:	9a02      	ldr	r2, [sp, #8]
/media/wen/My_Passport/Raspbian/raspbian-tee/raspbian-tee/optee_os/lib/libmbedtls/mbedtls/library/bignum.c:1882
    44ac:	ae12      	add	r6, sp, #72	; 0x48
/media/wen/My_Passport/Raspbian/raspbian-tee/raspbian-tee/optee_os/lib/libmbedtls/mbedtls/library/bignum.c:1881
    44ae:	9902      	ldr	r1, [sp, #8]
/media/wen/My_Passport/Raspbian/raspbian-tee/raspbian-tee/optee_os/lib/libmbedtls/mbedtls/library/bignum.c:1882
    44b0:	270c      	movs	r7, #12
/media/wen/My_Passport/Raspbian/raspbian-tee/raspbian-tee/optee_os/lib/libmbedtls/mbedtls/library/bignum.c:1881
    44b2:	1e54      	subs	r4, r2, #1
    44b4:	2201      	movs	r2, #1
    44b6:	fa02 f404 	lsl.w	r4, r2, r4
    44ba:	fa02 f501 	lsl.w	r5, r2, r1
/media/wen/My_Passport/Raspbian/raspbian-tee/raspbian-tee/optee_os/lib/libmbedtls/mbedtls/library/bignum.c:1881 (discriminator 1)
    44be:	42ac      	cmp	r4, r5
    44c0:	9302      	str	r3, [sp, #8]
    44c2:	d318      	bcc.n	44f6 <mbedtls_mpi_exp_mod+0x432>
/media/wen/My_Passport/Raspbian/raspbian-tee/raspbian-tee/optee_os/lib/libmbedtls/mbedtls/library/bignum.c:1884
    44c4:	a815      	add	r0, sp, #84	; 0x54
    44c6:	f7fe fc72 	bl	2dae <mbedtls_mpi_free>
    44ca:	a80c      	add	r0, sp, #48	; 0x30
    44cc:	f7fe fc6f 	bl	2dae <mbedtls_mpi_free>
    44d0:	a80f      	add	r0, sp, #60	; 0x3c
    44d2:	f7fe fc6c 	bl	2dae <mbedtls_mpi_free>
/media/wen/My_Passport/Raspbian/raspbian-tee/raspbian-tee/optee_os/lib/libmbedtls/mbedtls/library/bignum.c:1886
    44d6:	f8dd 2670 	ldr.w	r2, [sp, #1648]	; 0x670
    44da:	9b02      	ldr	r3, [sp, #8]
    44dc:	b10a      	cbz	r2, 44e2 <mbedtls_mpi_exp_mod+0x41e>
/media/wen/My_Passport/Raspbian/raspbian-tee/raspbian-tee/optee_os/lib/libmbedtls/mbedtls/library/bignum.c:1886 (discriminator 1)
    44de:	6892      	ldr	r2, [r2, #8]
    44e0:	b922      	cbnz	r2, 44ec <mbedtls_mpi_exp_mod+0x428>
/media/wen/My_Passport/Raspbian/raspbian-tee/raspbian-tee/optee_os/lib/libmbedtls/mbedtls/library/bignum.c:1887
    44e2:	a809      	add	r0, sp, #36	; 0x24
    44e4:	9302      	str	r3, [sp, #8]
    44e6:	f7fe fc62 	bl	2dae <mbedtls_mpi_free>
    44ea:	9b02      	ldr	r3, [sp, #8]
/media/wen/My_Passport/Raspbian/raspbian-tee/raspbian-tee/optee_os/lib/libmbedtls/mbedtls/library/bignum.c:1890
    44ec:	4618      	mov	r0, r3
    44ee:	f20d 6d4c 	addw	sp, sp, #1612	; 0x64c
    44f2:	e8bd 8ff0 	ldmia.w	sp!, {r4, r5, r6, r7, r8, r9, sl, fp, pc}
/media/wen/My_Passport/Raspbian/raspbian-tee/raspbian-tee/optee_os/lib/libmbedtls/mbedtls/library/bignum.c:1882 (discriminator 3)
    44f6:	fb07 6004 	mla	r0, r7, r4, r6
/media/wen/My_Passport/Raspbian/raspbian-tee/raspbian-tee/optee_os/lib/libmbedtls/mbedtls/library/bignum.c:1881 (discriminator 3)
    44fa:	3401      	adds	r4, #1
/media/wen/My_Passport/Raspbian/raspbian-tee/raspbian-tee/optee_os/lib/libmbedtls/mbedtls/library/bignum.c:1882 (discriminator 3)
    44fc:	f7fe fc57 	bl	2dae <mbedtls_mpi_free>
/media/wen/My_Passport/Raspbian/raspbian-tee/raspbian-tee/optee_os/lib/libmbedtls/mbedtls/library/bignum.c:1881 (discriminator 3)
    4500:	9b02      	ldr	r3, [sp, #8]
    4502:	e7dc      	b.n	44be <mbedtls_mpi_exp_mod+0x3fa>
/media/wen/My_Passport/Raspbian/raspbian-tee/raspbian-tee/optee_os/lib/libmbedtls/mbedtls/library/bignum.c:1698
    4504:	f06f 0303 	mvn.w	r3, #3
    4508:	e7f0      	b.n	44ec <mbedtls_mpi_exp_mod+0x428>

0000450a <mbedtls_mpi_gcd>:
mbedtls_mpi_gcd():
/media/wen/My_Passport/Raspbian/raspbian-tee/raspbian-tee/optee_os/lib/libmbedtls/mbedtls/library/bignum.c:1896
    450a:	e92d 43f0 	stmdb	sp!, {r4, r5, r6, r7, r8, r9, lr}
    450e:	4681      	mov	r9, r0
    4510:	4617      	mov	r7, r2
    4512:	b08b      	sub	sp, #44	; 0x2c
/media/wen/My_Passport/Raspbian/raspbian-tee/raspbian-tee/optee_os/lib/libmbedtls/mbedtls/library/bignum.c:1901
    4514:	f10d 0804 	add.w	r8, sp, #4
    4518:	ae04      	add	r6, sp, #16
    451a:	4640      	mov	r0, r8
/media/wen/My_Passport/Raspbian/raspbian-tee/raspbian-tee/optee_os/lib/libmbedtls/mbedtls/library/bignum.c:1902
    451c:	ad07      	add	r5, sp, #28
/media/wen/My_Passport/Raspbian/raspbian-tee/raspbian-tee/optee_os/lib/libmbedtls/mbedtls/library/bignum.c:1901
    451e:	f7fe fc2b 	bl	2d78 <mbedtls_mpi_init_mempool>
    4522:	4630      	mov	r0, r6
    4524:	f7fe fc28 	bl	2d78 <mbedtls_mpi_init_mempool>
/media/wen/My_Passport/Raspbian/raspbian-tee/raspbian-tee/optee_os/lib/libmbedtls/mbedtls/library/bignum.c:1902
    4528:	4628      	mov	r0, r5
    452a:	f7fe fc25 	bl	2d78 <mbedtls_mpi_init_mempool>
/media/wen/My_Passport/Raspbian/raspbian-tee/raspbian-tee/optee_os/lib/libmbedtls/mbedtls/library/bignum.c:1904
    452e:	4630      	mov	r0, r6
    4530:	f7fe fd20 	bl	2f74 <mbedtls_mpi_copy>
    4534:	4604      	mov	r4, r0
    4536:	2800      	cmp	r0, #0
    4538:	d159      	bne.n	45ee <mbedtls_mpi_gcd+0xe4>
/media/wen/My_Passport/Raspbian/raspbian-tee/raspbian-tee/optee_os/lib/libmbedtls/mbedtls/library/bignum.c:1905
    453a:	4639      	mov	r1, r7
    453c:	4628      	mov	r0, r5
    453e:	f7fe fd19 	bl	2f74 <mbedtls_mpi_copy>
    4542:	4604      	mov	r4, r0
    4544:	2800      	cmp	r0, #0
    4546:	d152      	bne.n	45ee <mbedtls_mpi_gcd+0xe4>
/media/wen/My_Passport/Raspbian/raspbian-tee/raspbian-tee/optee_os/lib/libmbedtls/mbedtls/library/bignum.c:1907
    4548:	4630      	mov	r0, r6
    454a:	f7fe fe22 	bl	3192 <mbedtls_mpi_lsb>
    454e:	4607      	mov	r7, r0
/media/wen/My_Passport/Raspbian/raspbian-tee/raspbian-tee/optee_os/lib/libmbedtls/mbedtls/library/bignum.c:1908
    4550:	4628      	mov	r0, r5
    4552:	f7fe fe1e 	bl	3192 <mbedtls_mpi_lsb>
    4556:	4287      	cmp	r7, r0
    4558:	bf28      	it	cs
    455a:	4607      	movcs	r7, r0
/media/wen/My_Passport/Raspbian/raspbian-tee/raspbian-tee/optee_os/lib/libmbedtls/mbedtls/library/bignum.c:1913
    455c:	4630      	mov	r0, r6
    455e:	4639      	mov	r1, r7
    4560:	f7fe fef8 	bl	3354 <mbedtls_mpi_shift_r>
    4564:	4604      	mov	r4, r0
    4566:	2800      	cmp	r0, #0
    4568:	d141      	bne.n	45ee <mbedtls_mpi_gcd+0xe4>
/media/wen/My_Passport/Raspbian/raspbian-tee/raspbian-tee/optee_os/lib/libmbedtls/mbedtls/library/bignum.c:1914
    456a:	4639      	mov	r1, r7
    456c:	4628      	mov	r0, r5
    456e:	f7fe fef1 	bl	3354 <mbedtls_mpi_shift_r>
    4572:	4604      	mov	r4, r0
    4574:	bbd8      	cbnz	r0, 45ee <mbedtls_mpi_gcd+0xe4>
/media/wen/My_Passport/Raspbian/raspbian-tee/raspbian-tee/optee_os/lib/libmbedtls/mbedtls/library/bignum.c:1916
    4576:	2301      	movs	r3, #1
    4578:	f88d 301c 	strb.w	r3, [sp, #28]
    457c:	f88d 3010 	strb.w	r3, [sp, #16]
/media/wen/My_Passport/Raspbian/raspbian-tee/raspbian-tee/optee_os/lib/libmbedtls/mbedtls/library/bignum.c:1918
    4580:	2100      	movs	r1, #0
    4582:	4630      	mov	r0, r6
    4584:	f7fe ffa4 	bl	34d0 <mbedtls_mpi_cmp_int>
    4588:	b958      	cbnz	r0, 45a2 <mbedtls_mpi_gcd+0x98>
/media/wen/My_Passport/Raspbian/raspbian-tee/raspbian-tee/optee_os/lib/libmbedtls/mbedtls/library/bignum.c:1935
    458a:	4639      	mov	r1, r7
    458c:	4628      	mov	r0, r5
    458e:	f7fe fe95 	bl	32bc <mbedtls_mpi_shift_l>
    4592:	4604      	mov	r4, r0
    4594:	bb58      	cbnz	r0, 45ee <mbedtls_mpi_gcd+0xe4>
/media/wen/My_Passport/Raspbian/raspbian-tee/raspbian-tee/optee_os/lib/libmbedtls/mbedtls/library/bignum.c:1936
    4596:	4629      	mov	r1, r5
    4598:	4648      	mov	r0, r9
    459a:	f7fe fceb 	bl	2f74 <mbedtls_mpi_copy>
    459e:	4604      	mov	r4, r0
    45a0:	e025      	b.n	45ee <mbedtls_mpi_gcd+0xe4>
/media/wen/My_Passport/Raspbian/raspbian-tee/raspbian-tee/optee_os/lib/libmbedtls/mbedtls/library/bignum.c:1920
    45a2:	4630      	mov	r0, r6
    45a4:	f7fe fdf5 	bl	3192 <mbedtls_mpi_lsb>
    45a8:	4601      	mov	r1, r0
    45aa:	4630      	mov	r0, r6
    45ac:	f7fe fed2 	bl	3354 <mbedtls_mpi_shift_r>
    45b0:	4604      	mov	r4, r0
    45b2:	b9e0      	cbnz	r0, 45ee <mbedtls_mpi_gcd+0xe4>
/media/wen/My_Passport/Raspbian/raspbian-tee/raspbian-tee/optee_os/lib/libmbedtls/mbedtls/library/bignum.c:1921
    45b4:	4628      	mov	r0, r5
    45b6:	f7fe fdec 	bl	3192 <mbedtls_mpi_lsb>
    45ba:	4601      	mov	r1, r0
    45bc:	4628      	mov	r0, r5
    45be:	f7fe fec9 	bl	3354 <mbedtls_mpi_shift_r>
    45c2:	4604      	mov	r4, r0
    45c4:	b998      	cbnz	r0, 45ee <mbedtls_mpi_gcd+0xe4>
/media/wen/My_Passport/Raspbian/raspbian-tee/raspbian-tee/optee_os/lib/libmbedtls/mbedtls/library/bignum.c:1923
    45c6:	4629      	mov	r1, r5
    45c8:	4630      	mov	r0, r6
    45ca:	f7fe ff36 	bl	343a <mbedtls_mpi_cmp_mpi>
    45ce:	2800      	cmp	r0, #0
    45d0:	db1a      	blt.n	4608 <mbedtls_mpi_gcd+0xfe>
/media/wen/My_Passport/Raspbian/raspbian-tee/raspbian-tee/optee_os/lib/libmbedtls/mbedtls/library/bignum.c:1925
    45d2:	462a      	mov	r2, r5
    45d4:	4631      	mov	r1, r6
    45d6:	4630      	mov	r0, r6
    45d8:	f7fe ffed 	bl	35b6 <mbedtls_mpi_sub_abs>
    45dc:	4604      	mov	r4, r0
    45de:	b930      	cbnz	r0, 45ee <mbedtls_mpi_gcd+0xe4>
/media/wen/My_Passport/Raspbian/raspbian-tee/raspbian-tee/optee_os/lib/libmbedtls/mbedtls/library/bignum.c:1926
    45e0:	2101      	movs	r1, #1
    45e2:	4630      	mov	r0, r6
/media/wen/My_Passport/Raspbian/raspbian-tee/raspbian-tee/optee_os/lib/libmbedtls/mbedtls/library/bignum.c:1931
    45e4:	f7fe feb6 	bl	3354 <mbedtls_mpi_shift_r>
    45e8:	4604      	mov	r4, r0
    45ea:	2800      	cmp	r0, #0
    45ec:	d0c8      	beq.n	4580 <mbedtls_mpi_gcd+0x76>
/media/wen/My_Passport/Raspbian/raspbian-tee/raspbian-tee/optee_os/lib/libmbedtls/mbedtls/library/bignum.c:1940
    45ee:	4640      	mov	r0, r8
    45f0:	f7fe fbdd 	bl	2dae <mbedtls_mpi_free>
    45f4:	4630      	mov	r0, r6
    45f6:	f7fe fbda 	bl	2dae <mbedtls_mpi_free>
    45fa:	4628      	mov	r0, r5
    45fc:	f7fe fbd7 	bl	2dae <mbedtls_mpi_free>
/media/wen/My_Passport/Raspbian/raspbian-tee/raspbian-tee/optee_os/lib/libmbedtls/mbedtls/library/bignum.c:1943
    4600:	4620      	mov	r0, r4
    4602:	b00b      	add	sp, #44	; 0x2c
    4604:	e8bd 83f0 	ldmia.w	sp!, {r4, r5, r6, r7, r8, r9, pc}
/media/wen/My_Passport/Raspbian/raspbian-tee/raspbian-tee/optee_os/lib/libmbedtls/mbedtls/library/bignum.c:1930
    4608:	4632      	mov	r2, r6
    460a:	4629      	mov	r1, r5
    460c:	4628      	mov	r0, r5
    460e:	f7fe ffd2 	bl	35b6 <mbedtls_mpi_sub_abs>
    4612:	4604      	mov	r4, r0
    4614:	2800      	cmp	r0, #0
    4616:	d1ea      	bne.n	45ee <mbedtls_mpi_gcd+0xe4>
/media/wen/My_Passport/Raspbian/raspbian-tee/raspbian-tee/optee_os/lib/libmbedtls/mbedtls/library/bignum.c:1931
    4618:	2101      	movs	r1, #1
    461a:	4628      	mov	r0, r5
    461c:	e7e2      	b.n	45e4 <mbedtls_mpi_gcd+0xda>

0000461e <mbedtls_mpi_fill_random>:
mbedtls_mpi_fill_random():
/media/wen/My_Passport/Raspbian/raspbian-tee/raspbian-tee/optee_os/lib/libmbedtls/mbedtls/library/bignum.c:1959
    461e:	f5b1 6f80 	cmp.w	r1, #1024	; 0x400
/media/wen/My_Passport/Raspbian/raspbian-tee/raspbian-tee/optee_os/lib/libmbedtls/mbedtls/library/bignum.c:1955
    4622:	b5f0      	push	{r4, r5, r6, r7, lr}
    4624:	4606      	mov	r6, r0
    4626:	f2ad 4d04 	subw	sp, sp, #1028	; 0x404
    462a:	460c      	mov	r4, r1
    462c:	4617      	mov	r7, r2
/media/wen/My_Passport/Raspbian/raspbian-tee/raspbian-tee/optee_os/lib/libmbedtls/mbedtls/library/bignum.c:1959
    462e:	d80c      	bhi.n	464a <mbedtls_mpi_fill_random+0x2c>
/media/wen/My_Passport/Raspbian/raspbian-tee/raspbian-tee/optee_os/lib/libmbedtls/mbedtls/library/bignum.c:1962
    4630:	460a      	mov	r2, r1
    4632:	4618      	mov	r0, r3
    4634:	4669      	mov	r1, sp
    4636:	47b8      	blx	r7
    4638:	b920      	cbnz	r0, 4644 <mbedtls_mpi_fill_random+0x26>
/media/wen/My_Passport/Raspbian/raspbian-tee/raspbian-tee/optee_os/lib/libmbedtls/mbedtls/library/bignum.c:1963
    463a:	4622      	mov	r2, r4
    463c:	4669      	mov	r1, sp
    463e:	4630      	mov	r0, r6
    4640:	f7fe fde6 	bl	3210 <mbedtls_mpi_read_binary>
/media/wen/My_Passport/Raspbian/raspbian-tee/raspbian-tee/optee_os/lib/libmbedtls/mbedtls/library/bignum.c:1967
    4644:	f20d 4d04 	addw	sp, sp, #1028	; 0x404
    4648:	bdf0      	pop	{r4, r5, r6, r7, pc}
/media/wen/My_Passport/Raspbian/raspbian-tee/raspbian-tee/optee_os/lib/libmbedtls/mbedtls/library/bignum.c:1960
    464a:	f06f 0003 	mvn.w	r0, #3
    464e:	e7f9      	b.n	4644 <mbedtls_mpi_fill_random+0x26>

00004650 <mpi_miller_rabin>:
mpi_miller_rabin():
/media/wen/My_Passport/Raspbian/raspbian-tee/raspbian-tee/optee_os/lib/libmbedtls/mbedtls/library/bignum.c:2132
    4650:	e92d 4ff0 	stmdb	sp!, {r4, r5, r6, r7, r8, r9, sl, fp, lr}
    4654:	4607      	mov	r7, r0
    4656:	b097      	sub	sp, #92	; 0x5c
/media/wen/My_Passport/Raspbian/raspbian-tee/raspbian-tee/optee_os/lib/libmbedtls/mbedtls/library/bignum.c:2137
    4658:	ad07      	add	r5, sp, #28
    465a:	f10d 0828 	add.w	r8, sp, #40	; 0x28
    465e:	4628      	mov	r0, r5
/media/wen/My_Passport/Raspbian/raspbian-tee/raspbian-tee/optee_os/lib/libmbedtls/mbedtls/library/bignum.c:2132
    4660:	9103      	str	r1, [sp, #12]
    4662:	9204      	str	r2, [sp, #16]
/media/wen/My_Passport/Raspbian/raspbian-tee/raspbian-tee/optee_os/lib/libmbedtls/mbedtls/library/bignum.c:2137
    4664:	f7fe fb88 	bl	2d78 <mbedtls_mpi_init_mempool>
    4668:	4640      	mov	r0, r8
    466a:	f7fe fb85 	bl	2d78 <mbedtls_mpi_init_mempool>
/media/wen/My_Passport/Raspbian/raspbian-tee/raspbian-tee/optee_os/lib/libmbedtls/mbedtls/library/bignum.c:2138
    466e:	a80d      	add	r0, sp, #52	; 0x34
    4670:	f7fe fb82 	bl	2d78 <mbedtls_mpi_init_mempool>
    4674:	a810      	add	r0, sp, #64	; 0x40
    4676:	f7fe fb7f 	bl	2d78 <mbedtls_mpi_init_mempool>
/media/wen/My_Passport/Raspbian/raspbian-tee/raspbian-tee/optee_os/lib/libmbedtls/mbedtls/library/bignum.c:2139
    467a:	a813      	add	r0, sp, #76	; 0x4c
    467c:	f7fe fb7c 	bl	2d78 <mbedtls_mpi_init_mempool>
/media/wen/My_Passport/Raspbian/raspbian-tee/raspbian-tee/optee_os/lib/libmbedtls/mbedtls/library/bignum.c:2145
    4680:	2201      	movs	r2, #1
    4682:	4639      	mov	r1, r7
    4684:	4628      	mov	r0, r5
    4686:	f7ff f838 	bl	36fa <mbedtls_mpi_sub_int>
    468a:	4683      	mov	fp, r0
    468c:	2800      	cmp	r0, #0
    468e:	d178      	bne.n	4782 <mpi_miller_rabin+0x132>
/media/wen/My_Passport/Raspbian/raspbian-tee/raspbian-tee/optee_os/lib/libmbedtls/mbedtls/library/bignum.c:2146
    4690:	4628      	mov	r0, r5
    4692:	f7fe fd7e 	bl	3192 <mbedtls_mpi_lsb>
/media/wen/My_Passport/Raspbian/raspbian-tee/raspbian-tee/optee_os/lib/libmbedtls/mbedtls/library/bignum.c:2147
    4696:	4629      	mov	r1, r5
/media/wen/My_Passport/Raspbian/raspbian-tee/raspbian-tee/optee_os/lib/libmbedtls/mbedtls/library/bignum.c:2146
    4698:	9002      	str	r0, [sp, #8]
/media/wen/My_Passport/Raspbian/raspbian-tee/raspbian-tee/optee_os/lib/libmbedtls/mbedtls/library/bignum.c:2147
    469a:	4640      	mov	r0, r8
    469c:	f7fe fc6a 	bl	2f74 <mbedtls_mpi_copy>
    46a0:	4683      	mov	fp, r0
    46a2:	2800      	cmp	r0, #0
    46a4:	d16d      	bne.n	4782 <mpi_miller_rabin+0x132>
/media/wen/My_Passport/Raspbian/raspbian-tee/raspbian-tee/optee_os/lib/libmbedtls/mbedtls/library/bignum.c:2148
    46a6:	9902      	ldr	r1, [sp, #8]
    46a8:	4640      	mov	r0, r8
    46aa:	f7fe fe53 	bl	3354 <mbedtls_mpi_shift_r>
    46ae:	4683      	mov	fp, r0
    46b0:	2800      	cmp	r0, #0
    46b2:	d166      	bne.n	4782 <mpi_miller_rabin+0x132>
/media/wen/My_Passport/Raspbian/raspbian-tee/raspbian-tee/optee_os/lib/libmbedtls/mbedtls/library/bignum.c:2150
    46b4:	4638      	mov	r0, r7
    46b6:	f7fe fd83 	bl	31c0 <mbedtls_mpi_bitlen>
/media/wen/My_Passport/Raspbian/raspbian-tee/raspbian-tee/optee_os/lib/libmbedtls/mbedtls/library/bignum.c:2154
    46ba:	f240 5313 	movw	r3, #1299	; 0x513
    46be:	4298      	cmp	r0, r3
    46c0:	d845      	bhi.n	474e <mpi_miller_rabin+0xfe>
/media/wen/My_Passport/Raspbian/raspbian-tee/raspbian-tee/optee_os/lib/libmbedtls/mbedtls/library/bignum.c:2154 (discriminator 1)
    46c2:	f240 3351 	movw	r3, #849	; 0x351
    46c6:	4298      	cmp	r0, r3
    46c8:	d843      	bhi.n	4752 <mpi_miller_rabin+0x102>
/media/wen/My_Passport/Raspbian/raspbian-tee/raspbian-tee/optee_os/lib/libmbedtls/mbedtls/library/bignum.c:2154 (discriminator 3)
    46ca:	f240 2389 	movw	r3, #649	; 0x289
    46ce:	4298      	cmp	r0, r3
    46d0:	d841      	bhi.n	4756 <mpi_miller_rabin+0x106>
/media/wen/My_Passport/Raspbian/raspbian-tee/raspbian-tee/optee_os/lib/libmbedtls/mbedtls/library/bignum.c:2154 (discriminator 5)
    46d2:	f5b0 7faf 	cmp.w	r0, #350	; 0x15e
    46d6:	d240      	bcs.n	475a <mpi_miller_rabin+0x10a>
/media/wen/My_Passport/Raspbian/raspbian-tee/raspbian-tee/optee_os/lib/libmbedtls/mbedtls/library/bignum.c:2154 (discriminator 7)
    46d8:	28f9      	cmp	r0, #249	; 0xf9
    46da:	d840      	bhi.n	475e <mpi_miller_rabin+0x10e>
/media/wen/My_Passport/Raspbian/raspbian-tee/raspbian-tee/optee_os/lib/libmbedtls/mbedtls/library/bignum.c:2154 (discriminator 9)
    46dc:	2896      	cmp	r0, #150	; 0x96
    46de:	f04f 061b 	mov.w	r6, #27
    46e2:	bf28      	it	cs
    46e4:	2612      	movcs	r6, #18
/media/wen/My_Passport/Raspbian/raspbian-tee/raspbian-tee/optee_os/lib/libmbedtls/mbedtls/library/bignum.c:2205 (discriminator 24)
    46e6:	ab0d      	add	r3, sp, #52	; 0x34
/media/wen/My_Passport/Raspbian/raspbian-tee/raspbian-tee/optee_os/lib/libmbedtls/mbedtls/library/bignum.c:2158 (discriminator 24)
    46e8:	f04f 0900 	mov.w	r9, #0
/media/wen/My_Passport/Raspbian/raspbian-tee/raspbian-tee/optee_os/lib/libmbedtls/mbedtls/library/bignum.c:2163 (discriminator 24)
    46ec:	ac10      	add	r4, sp, #64	; 0x40
/media/wen/My_Passport/Raspbian/raspbian-tee/raspbian-tee/optee_os/lib/libmbedtls/mbedtls/library/bignum.c:2205 (discriminator 24)
    46ee:	9305      	str	r3, [sp, #20]
/media/wen/My_Passport/Raspbian/raspbian-tee/raspbian-tee/optee_os/lib/libmbedtls/mbedtls/library/bignum.c:2163
    46f0:	88b9      	ldrh	r1, [r7, #4]
    46f2:	4620      	mov	r0, r4
    46f4:	9b04      	ldr	r3, [sp, #16]
    46f6:	9a03      	ldr	r2, [sp, #12]
    46f8:	0089      	lsls	r1, r1, #2
    46fa:	f7ff ff90 	bl	461e <mbedtls_mpi_fill_random>
    46fe:	4683      	mov	fp, r0
    4700:	2800      	cmp	r0, #0
    4702:	d13e      	bne.n	4782 <mpi_miller_rabin+0x132>
/media/wen/My_Passport/Raspbian/raspbian-tee/raspbian-tee/optee_os/lib/libmbedtls/mbedtls/library/bignum.c:2165
    4704:	4629      	mov	r1, r5
    4706:	4620      	mov	r0, r4
    4708:	f7fe fe97 	bl	343a <mbedtls_mpi_cmp_mpi>
    470c:	2800      	cmp	r0, #0
    470e:	da28      	bge.n	4762 <mpi_miller_rabin+0x112>
/media/wen/My_Passport/Raspbian/raspbian-tee/raspbian-tee/optee_os/lib/libmbedtls/mbedtls/library/bignum.c:2170
    4710:	9a12      	ldr	r2, [sp, #72]	; 0x48
    4712:	f44f 7a97 	mov.w	sl, #302	; 0x12e
    4716:	6813      	ldr	r3, [r2, #0]
    4718:	f043 0303 	orr.w	r3, r3, #3
    471c:	6013      	str	r3, [r2, #0]
/media/wen/My_Passport/Raspbian/raspbian-tee/raspbian-tee/optee_os/lib/libmbedtls/mbedtls/library/bignum.c:2174
    471e:	88b9      	ldrh	r1, [r7, #4]
    4720:	4620      	mov	r0, r4
    4722:	9b04      	ldr	r3, [sp, #16]
    4724:	9a03      	ldr	r2, [sp, #12]
    4726:	0089      	lsls	r1, r1, #2
    4728:	f7ff ff79 	bl	461e <mbedtls_mpi_fill_random>
    472c:	4683      	mov	fp, r0
    472e:	bb40      	cbnz	r0, 4782 <mpi_miller_rabin+0x132>
/media/wen/My_Passport/Raspbian/raspbian-tee/raspbian-tee/optee_os/lib/libmbedtls/mbedtls/library/bignum.c:2176
    4730:	4620      	mov	r0, r4
    4732:	f7fe fd45 	bl	31c0 <mbedtls_mpi_bitlen>
    4736:	4683      	mov	fp, r0
/media/wen/My_Passport/Raspbian/raspbian-tee/raspbian-tee/optee_os/lib/libmbedtls/mbedtls/library/bignum.c:2177
    4738:	4628      	mov	r0, r5
    473a:	f7fe fd41 	bl	31c0 <mbedtls_mpi_bitlen>
/media/wen/My_Passport/Raspbian/raspbian-tee/raspbian-tee/optee_os/lib/libmbedtls/mbedtls/library/bignum.c:2178
    473e:	4583      	cmp	fp, r0
    4740:	d832      	bhi.n	47a8 <mpi_miller_rabin+0x158>
/media/wen/My_Passport/Raspbian/raspbian-tee/raspbian-tee/optee_os/lib/libmbedtls/mbedtls/library/bignum.c:2182
    4742:	f1ba 0a01 	subs.w	sl, sl, #1
    4746:	d138      	bne.n	47ba <mpi_miller_rabin+0x16a>
/media/wen/My_Passport/Raspbian/raspbian-tee/raspbian-tee/optee_os/lib/libmbedtls/mbedtls/library/bignum.c:2183
    4748:	f06f 0b0d 	mvn.w	fp, #13
    474c:	e019      	b.n	4782 <mpi_miller_rabin+0x132>
/media/wen/My_Passport/Raspbian/raspbian-tee/raspbian-tee/optee_os/lib/libmbedtls/mbedtls/library/bignum.c:2154
    474e:	2602      	movs	r6, #2
    4750:	e7c9      	b.n	46e6 <mpi_miller_rabin+0x96>
    4752:	2603      	movs	r6, #3
    4754:	e7c7      	b.n	46e6 <mpi_miller_rabin+0x96>
    4756:	2604      	movs	r6, #4
    4758:	e7c5      	b.n	46e6 <mpi_miller_rabin+0x96>
    475a:	2608      	movs	r6, #8
    475c:	e7c3      	b.n	46e6 <mpi_miller_rabin+0x96>
    475e:	260c      	movs	r6, #12
    4760:	e7c1      	b.n	46e6 <mpi_miller_rabin+0x96>
/media/wen/My_Passport/Raspbian/raspbian-tee/raspbian-tee/optee_os/lib/libmbedtls/mbedtls/library/bignum.c:2167
    4762:	4620      	mov	r0, r4
    4764:	f7fe fd2c 	bl	31c0 <mbedtls_mpi_bitlen>
    4768:	4682      	mov	sl, r0
    476a:	4628      	mov	r0, r5
    476c:	f7fe fd28 	bl	31c0 <mbedtls_mpi_bitlen>
/media/wen/My_Passport/Raspbian/raspbian-tee/raspbian-tee/optee_os/lib/libmbedtls/mbedtls/library/bignum.c:2168
    4770:	f10a 0101 	add.w	r1, sl, #1
    4774:	1a09      	subs	r1, r1, r0
    4776:	4620      	mov	r0, r4
    4778:	f7fe fdec 	bl	3354 <mbedtls_mpi_shift_r>
    477c:	4683      	mov	fp, r0
    477e:	2800      	cmp	r0, #0
    4780:	d0c6      	beq.n	4710 <mpi_miller_rabin+0xc0>
/media/wen/My_Passport/Raspbian/raspbian-tee/raspbian-tee/optee_os/lib/libmbedtls/mbedtls/library/bignum.c:2226
    4782:	4628      	mov	r0, r5
    4784:	f7fe fb13 	bl	2dae <mbedtls_mpi_free>
    4788:	4640      	mov	r0, r8
    478a:	f7fe fb10 	bl	2dae <mbedtls_mpi_free>
    478e:	a80d      	add	r0, sp, #52	; 0x34
    4790:	f7fe fb0d 	bl	2dae <mbedtls_mpi_free>
    4794:	a810      	add	r0, sp, #64	; 0x40
    4796:	f7fe fb0a 	bl	2dae <mbedtls_mpi_free>
/media/wen/My_Passport/Raspbian/raspbian-tee/raspbian-tee/optee_os/lib/libmbedtls/mbedtls/library/bignum.c:2227
    479a:	a813      	add	r0, sp, #76	; 0x4c
    479c:	f7fe fb07 	bl	2dae <mbedtls_mpi_free>
/media/wen/My_Passport/Raspbian/raspbian-tee/raspbian-tee/optee_os/lib/libmbedtls/mbedtls/library/bignum.c:2230
    47a0:	4658      	mov	r0, fp
    47a2:	b017      	add	sp, #92	; 0x5c
    47a4:	e8bd 8ff0 	ldmia.w	sp!, {r4, r5, r6, r7, r8, r9, sl, fp, pc}
/media/wen/My_Passport/Raspbian/raspbian-tee/raspbian-tee/optee_os/lib/libmbedtls/mbedtls/library/bignum.c:2179
    47a8:	ebab 0100 	sub.w	r1, fp, r0
    47ac:	4620      	mov	r0, r4
    47ae:	f7fe fdd1 	bl	3354 <mbedtls_mpi_shift_r>
    47b2:	4683      	mov	fp, r0
    47b4:	2800      	cmp	r0, #0
    47b6:	d0c4      	beq.n	4742 <mpi_miller_rabin+0xf2>
    47b8:	e7e3      	b.n	4782 <mpi_miller_rabin+0x132>
/media/wen/My_Passport/Raspbian/raspbian-tee/raspbian-tee/optee_os/lib/libmbedtls/mbedtls/library/bignum.c:2187
    47ba:	4629      	mov	r1, r5
    47bc:	4620      	mov	r0, r4
    47be:	f7fe fe3c 	bl	343a <mbedtls_mpi_cmp_mpi>
/media/wen/My_Passport/Raspbian/raspbian-tee/raspbian-tee/optee_os/lib/libmbedtls/mbedtls/library/bignum.c:2188
    47c2:	2800      	cmp	r0, #0
    47c4:	daab      	bge.n	471e <mpi_miller_rabin+0xce>
/media/wen/My_Passport/Raspbian/raspbian-tee/raspbian-tee/optee_os/lib/libmbedtls/mbedtls/library/bignum.c:2188 (discriminator 1)
    47c6:	2101      	movs	r1, #1
    47c8:	4620      	mov	r0, r4
    47ca:	f7fe fe81 	bl	34d0 <mbedtls_mpi_cmp_int>
/media/wen/My_Passport/Raspbian/raspbian-tee/raspbian-tee/optee_os/lib/libmbedtls/mbedtls/library/bignum.c:2187 (discriminator 1)
    47ce:	2800      	cmp	r0, #0
    47d0:	dda5      	ble.n	471e <mpi_miller_rabin+0xce>
/media/wen/My_Passport/Raspbian/raspbian-tee/raspbian-tee/optee_os/lib/libmbedtls/mbedtls/library/bignum.c:2193
    47d2:	ab13      	add	r3, sp, #76	; 0x4c
    47d4:	4642      	mov	r2, r8
    47d6:	9300      	str	r3, [sp, #0]
    47d8:	4621      	mov	r1, r4
    47da:	463b      	mov	r3, r7
    47dc:	4620      	mov	r0, r4
    47de:	f7ff fc71 	bl	40c4 <mbedtls_mpi_exp_mod>
    47e2:	4683      	mov	fp, r0
    47e4:	2800      	cmp	r0, #0
    47e6:	d1cc      	bne.n	4782 <mpi_miller_rabin+0x132>
/media/wen/My_Passport/Raspbian/raspbian-tee/raspbian-tee/optee_os/lib/libmbedtls/mbedtls/library/bignum.c:2195
    47e8:	4629      	mov	r1, r5
    47ea:	4620      	mov	r0, r4
    47ec:	f7fe fe25 	bl	343a <mbedtls_mpi_cmp_mpi>
    47f0:	b928      	cbnz	r0, 47fe <mpi_miller_rabin+0x1ae>
/media/wen/My_Passport/Raspbian/raspbian-tee/raspbian-tee/optee_os/lib/libmbedtls/mbedtls/library/bignum.c:2158
    47f2:	f109 0901 	add.w	r9, r9, #1
    47f6:	454e      	cmp	r6, r9
    47f8:	f47f af7a 	bne.w	46f0 <mpi_miller_rabin+0xa0>
    47fc:	e7c1      	b.n	4782 <mpi_miller_rabin+0x132>
/media/wen/My_Passport/Raspbian/raspbian-tee/raspbian-tee/optee_os/lib/libmbedtls/mbedtls/library/bignum.c:2196 (discriminator 1)
    47fe:	2101      	movs	r1, #1
    4800:	4620      	mov	r0, r4
    4802:	f7fe fe65 	bl	34d0 <mbedtls_mpi_cmp_int>
/media/wen/My_Passport/Raspbian/raspbian-tee/raspbian-tee/optee_os/lib/libmbedtls/mbedtls/library/bignum.c:2195 (discriminator 1)
    4806:	2800      	cmp	r0, #0
    4808:	d0f3      	beq.n	47f2 <mpi_miller_rabin+0x1a2>
    480a:	f04f 0a01 	mov.w	sl, #1
/media/wen/My_Passport/Raspbian/raspbian-tee/raspbian-tee/optee_os/lib/libmbedtls/mbedtls/library/bignum.c:2200
    480e:	9b02      	ldr	r3, [sp, #8]
    4810:	459a      	cmp	sl, r3
    4812:	d215      	bcs.n	4840 <mpi_miller_rabin+0x1f0>
/media/wen/My_Passport/Raspbian/raspbian-tee/raspbian-tee/optee_os/lib/libmbedtls/mbedtls/library/bignum.c:2200 (discriminator 1)
    4814:	4629      	mov	r1, r5
    4816:	4620      	mov	r0, r4
    4818:	f7fe fe0f 	bl	343a <mbedtls_mpi_cmp_mpi>
    481c:	b180      	cbz	r0, 4840 <mpi_miller_rabin+0x1f0>
/media/wen/My_Passport/Raspbian/raspbian-tee/raspbian-tee/optee_os/lib/libmbedtls/mbedtls/library/bignum.c:2205
    481e:	4622      	mov	r2, r4
    4820:	4621      	mov	r1, r4
    4822:	9805      	ldr	r0, [sp, #20]
    4824:	f7fe ff81 	bl	372a <mbedtls_mpi_mul_mpi>
    4828:	b9d8      	cbnz	r0, 4862 <mpi_miller_rabin+0x212>
/media/wen/My_Passport/Raspbian/raspbian-tee/raspbian-tee/optee_os/lib/libmbedtls/mbedtls/library/bignum.c:2206
    482a:	463a      	mov	r2, r7
    482c:	9905      	ldr	r1, [sp, #20]
    482e:	4620      	mov	r0, r4
    4830:	f7ff fa76 	bl	3d20 <mbedtls_mpi_mod_mpi>
    4834:	b9a8      	cbnz	r0, 4862 <mpi_miller_rabin+0x212>
/media/wen/My_Passport/Raspbian/raspbian-tee/raspbian-tee/optee_os/lib/libmbedtls/mbedtls/library/bignum.c:2208
    4836:	2101      	movs	r1, #1
    4838:	4620      	mov	r0, r4
    483a:	f7fe fe49 	bl	34d0 <mbedtls_mpi_cmp_int>
    483e:	b968      	cbnz	r0, 485c <mpi_miller_rabin+0x20c>
/media/wen/My_Passport/Raspbian/raspbian-tee/raspbian-tee/optee_os/lib/libmbedtls/mbedtls/library/bignum.c:2217
    4840:	4629      	mov	r1, r5
    4842:	4620      	mov	r0, r4
    4844:	f7fe fdf9 	bl	343a <mbedtls_mpi_cmp_mpi>
    4848:	2800      	cmp	r0, #0
    484a:	f47f af7d 	bne.w	4748 <mpi_miller_rabin+0xf8>
/media/wen/My_Passport/Raspbian/raspbian-tee/raspbian-tee/optee_os/lib/libmbedtls/mbedtls/library/bignum.c:2218 (discriminator 1)
    484e:	2101      	movs	r1, #1
    4850:	4620      	mov	r0, r4
    4852:	f7fe fe3d 	bl	34d0 <mbedtls_mpi_cmp_int>
/media/wen/My_Passport/Raspbian/raspbian-tee/raspbian-tee/optee_os/lib/libmbedtls/mbedtls/library/bignum.c:2217 (discriminator 1)
    4856:	2800      	cmp	r0, #0
    4858:	d1cb      	bne.n	47f2 <mpi_miller_rabin+0x1a2>
    485a:	e775      	b.n	4748 <mpi_miller_rabin+0xf8>
/media/wen/My_Passport/Raspbian/raspbian-tee/raspbian-tee/optee_os/lib/libmbedtls/mbedtls/library/bignum.c:2211
    485c:	f10a 0a01 	add.w	sl, sl, #1
    4860:	e7d5      	b.n	480e <mpi_miller_rabin+0x1be>
/media/wen/My_Passport/Raspbian/raspbian-tee/raspbian-tee/optee_os/lib/libmbedtls/mbedtls/library/bignum.c:2206
    4862:	4683      	mov	fp, r0
    4864:	e78d      	b.n	4782 <mpi_miller_rabin+0x132>

00004866 <mbedtls_mpi_inv_mod>:
mbedtls_mpi_inv_mod():
/media/wen/My_Passport/Raspbian/raspbian-tee/raspbian-tee/optee_os/lib/libmbedtls/mbedtls/library/bignum.c:1973
    4866:	e92d 4ff0 	stmdb	sp!, {r4, r5, r6, r7, r8, r9, sl, fp, lr}
    486a:	460e      	mov	r6, r1
/media/wen/My_Passport/Raspbian/raspbian-tee/raspbian-tee/optee_os/lib/libmbedtls/mbedtls/library/bignum.c:1977
    486c:	2101      	movs	r1, #1
/media/wen/My_Passport/Raspbian/raspbian-tee/raspbian-tee/optee_os/lib/libmbedtls/mbedtls/library/bignum.c:1973
    486e:	b0a3      	sub	sp, #140	; 0x8c
    4870:	4615      	mov	r5, r2
    4872:	9005      	str	r0, [sp, #20]
/media/wen/My_Passport/Raspbian/raspbian-tee/raspbian-tee/optee_os/lib/libmbedtls/mbedtls/library/bignum.c:1977
    4874:	4610      	mov	r0, r2
    4876:	f7fe fe2b 	bl	34d0 <mbedtls_mpi_cmp_int>
    487a:	2800      	cmp	r0, #0
    487c:	f340 8158 	ble.w	4b30 <mbedtls_mpi_inv_mod+0x2ca>
/media/wen/My_Passport/Raspbian/raspbian-tee/raspbian-tee/optee_os/lib/libmbedtls/mbedtls/library/bignum.c:1980
    4880:	af0a      	add	r7, sp, #40	; 0x28
    4882:	ac0d      	add	r4, sp, #52	; 0x34
    4884:	4638      	mov	r0, r7
/media/wen/My_Passport/Raspbian/raspbian-tee/raspbian-tee/optee_os/lib/libmbedtls/mbedtls/library/bignum.c:1981
    4886:	f10d 0b40 	add.w	fp, sp, #64	; 0x40
/media/wen/My_Passport/Raspbian/raspbian-tee/raspbian-tee/optee_os/lib/libmbedtls/mbedtls/library/bignum.c:1980
    488a:	f7fe fa75 	bl	2d78 <mbedtls_mpi_init_mempool>
    488e:	4620      	mov	r0, r4
    4890:	f7fe fa72 	bl	2d78 <mbedtls_mpi_init_mempool>
/media/wen/My_Passport/Raspbian/raspbian-tee/raspbian-tee/optee_os/lib/libmbedtls/mbedtls/library/bignum.c:1981
    4894:	f10d 0a4c 	add.w	sl, sp, #76	; 0x4c
    4898:	4658      	mov	r0, fp
/media/wen/My_Passport/Raspbian/raspbian-tee/raspbian-tee/optee_os/lib/libmbedtls/mbedtls/library/bignum.c:1982
    489a:	f10d 091c 	add.w	r9, sp, #28
/media/wen/My_Passport/Raspbian/raspbian-tee/raspbian-tee/optee_os/lib/libmbedtls/mbedtls/library/bignum.c:1981
    489e:	f7fe fa6b 	bl	2d78 <mbedtls_mpi_init_mempool>
    48a2:	4650      	mov	r0, sl
    48a4:	f7fe fa68 	bl	2d78 <mbedtls_mpi_init_mempool>
/media/wen/My_Passport/Raspbian/raspbian-tee/raspbian-tee/optee_os/lib/libmbedtls/mbedtls/library/bignum.c:1982
    48a8:	4648      	mov	r0, r9
    48aa:	f7fe fa65 	bl	2d78 <mbedtls_mpi_init_mempool>
    48ae:	ab16      	add	r3, sp, #88	; 0x58
    48b0:	4618      	mov	r0, r3
    48b2:	9301      	str	r3, [sp, #4]
    48b4:	f7fe fa60 	bl	2d78 <mbedtls_mpi_init_mempool>
/media/wen/My_Passport/Raspbian/raspbian-tee/raspbian-tee/optee_os/lib/libmbedtls/mbedtls/library/bignum.c:1983
    48b8:	ab19      	add	r3, sp, #100	; 0x64
    48ba:	4618      	mov	r0, r3
    48bc:	9302      	str	r3, [sp, #8]
    48be:	f7fe fa5b 	bl	2d78 <mbedtls_mpi_init_mempool>
    48c2:	ab1c      	add	r3, sp, #112	; 0x70
    48c4:	4618      	mov	r0, r3
    48c6:	9303      	str	r3, [sp, #12]
    48c8:	f7fe fa56 	bl	2d78 <mbedtls_mpi_init_mempool>
/media/wen/My_Passport/Raspbian/raspbian-tee/raspbian-tee/optee_os/lib/libmbedtls/mbedtls/library/bignum.c:1984
    48cc:	a81f      	add	r0, sp, #124	; 0x7c
    48ce:	f7fe fa53 	bl	2d78 <mbedtls_mpi_init_mempool>
/media/wen/My_Passport/Raspbian/raspbian-tee/raspbian-tee/optee_os/lib/libmbedtls/mbedtls/library/bignum.c:1986
    48d2:	4631      	mov	r1, r6
    48d4:	462a      	mov	r2, r5
    48d6:	4648      	mov	r0, r9
    48d8:	f7ff fe17 	bl	450a <mbedtls_mpi_gcd>
    48dc:	4601      	mov	r1, r0
    48de:	2800      	cmp	r0, #0
    48e0:	d156      	bne.n	4990 <mbedtls_mpi_inv_mod+0x12a>
/media/wen/My_Passport/Raspbian/raspbian-tee/raspbian-tee/optee_os/lib/libmbedtls/mbedtls/library/bignum.c:1988
    48e2:	2101      	movs	r1, #1
    48e4:	4648      	mov	r0, r9
    48e6:	f7fe fdf3 	bl	34d0 <mbedtls_mpi_cmp_int>
    48ea:	2800      	cmp	r0, #0
    48ec:	f040 811d 	bne.w	4b2a <mbedtls_mpi_inv_mod+0x2c4>
/media/wen/My_Passport/Raspbian/raspbian-tee/raspbian-tee/optee_os/lib/libmbedtls/mbedtls/library/bignum.c:1994
    48f0:	4631      	mov	r1, r6
    48f2:	462a      	mov	r2, r5
    48f4:	4638      	mov	r0, r7
    48f6:	f7ff fa13 	bl	3d20 <mbedtls_mpi_mod_mpi>
    48fa:	4601      	mov	r1, r0
    48fc:	2800      	cmp	r0, #0
    48fe:	d147      	bne.n	4990 <mbedtls_mpi_inv_mod+0x12a>
/media/wen/My_Passport/Raspbian/raspbian-tee/raspbian-tee/optee_os/lib/libmbedtls/mbedtls/library/bignum.c:1995
    4900:	4639      	mov	r1, r7
    4902:	4620      	mov	r0, r4
    4904:	f7fe fb36 	bl	2f74 <mbedtls_mpi_copy>
    4908:	4601      	mov	r1, r0
    490a:	2800      	cmp	r0, #0
    490c:	d140      	bne.n	4990 <mbedtls_mpi_inv_mod+0x12a>
/media/wen/My_Passport/Raspbian/raspbian-tee/raspbian-tee/optee_os/lib/libmbedtls/mbedtls/library/bignum.c:1996
    490e:	4629      	mov	r1, r5
    4910:	9801      	ldr	r0, [sp, #4]
    4912:	f7fe fb2f 	bl	2f74 <mbedtls_mpi_copy>
    4916:	4601      	mov	r1, r0
    4918:	2800      	cmp	r0, #0
    491a:	d139      	bne.n	4990 <mbedtls_mpi_inv_mod+0x12a>
/media/wen/My_Passport/Raspbian/raspbian-tee/raspbian-tee/optee_os/lib/libmbedtls/mbedtls/library/bignum.c:1997
    491c:	4629      	mov	r1, r5
    491e:	9802      	ldr	r0, [sp, #8]
    4920:	f7fe fb28 	bl	2f74 <mbedtls_mpi_copy>
    4924:	4601      	mov	r1, r0
    4926:	2800      	cmp	r0, #0
    4928:	d132      	bne.n	4990 <mbedtls_mpi_inv_mod+0x12a>
/media/wen/My_Passport/Raspbian/raspbian-tee/raspbian-tee/optee_os/lib/libmbedtls/mbedtls/library/bignum.c:1999
    492a:	2101      	movs	r1, #1
    492c:	4658      	mov	r0, fp
    492e:	f7fe fbdc 	bl	30ea <mbedtls_mpi_lset>
    4932:	4601      	mov	r1, r0
    4934:	bb60      	cbnz	r0, 4990 <mbedtls_mpi_inv_mod+0x12a>
/media/wen/My_Passport/Raspbian/raspbian-tee/raspbian-tee/optee_os/lib/libmbedtls/mbedtls/library/bignum.c:2000
    4936:	4650      	mov	r0, sl
    4938:	f7fe fbd7 	bl	30ea <mbedtls_mpi_lset>
    493c:	4601      	mov	r1, r0
    493e:	bb38      	cbnz	r0, 4990 <mbedtls_mpi_inv_mod+0x12a>
/media/wen/My_Passport/Raspbian/raspbian-tee/raspbian-tee/optee_os/lib/libmbedtls/mbedtls/library/bignum.c:2001
    4940:	9803      	ldr	r0, [sp, #12]
    4942:	f7fe fbd2 	bl	30ea <mbedtls_mpi_lset>
    4946:	4601      	mov	r1, r0
    4948:	bb10      	cbnz	r0, 4990 <mbedtls_mpi_inv_mod+0x12a>
/media/wen/My_Passport/Raspbian/raspbian-tee/raspbian-tee/optee_os/lib/libmbedtls/mbedtls/library/bignum.c:2002
    494a:	ae1f      	add	r6, sp, #124	; 0x7c
    494c:	2101      	movs	r1, #1
    494e:	4630      	mov	r0, r6
    4950:	f7fe fbcb 	bl	30ea <mbedtls_mpi_lset>
    4954:	4601      	mov	r1, r0
    4956:	b9d8      	cbnz	r0, 4990 <mbedtls_mpi_inv_mod+0x12a>
/media/wen/My_Passport/Raspbian/raspbian-tee/raspbian-tee/optee_os/lib/libmbedtls/mbedtls/library/bignum.c:2026
    4958:	ab16      	add	r3, sp, #88	; 0x58
    495a:	f10d 0864 	add.w	r8, sp, #100	; 0x64
    495e:	9304      	str	r3, [sp, #16]
/media/wen/My_Passport/Raspbian/raspbian-tee/raspbian-tee/optee_os/lib/libmbedtls/mbedtls/library/bignum.c:2006
    4960:	9b0f      	ldr	r3, [sp, #60]	; 0x3c
    4962:	681b      	ldr	r3, [r3, #0]
    4964:	07d8      	lsls	r0, r3, #31
    4966:	d46a      	bmi.n	4a3e <mbedtls_mpi_inv_mod+0x1d8>
/media/wen/My_Passport/Raspbian/raspbian-tee/raspbian-tee/optee_os/lib/libmbedtls/mbedtls/library/bignum.c:2008
    4968:	2101      	movs	r1, #1
    496a:	4620      	mov	r0, r4
    496c:	f7fe fcf2 	bl	3354 <mbedtls_mpi_shift_r>
    4970:	4601      	mov	r1, r0
    4972:	b968      	cbnz	r0, 4990 <mbedtls_mpi_inv_mod+0x12a>
/media/wen/My_Passport/Raspbian/raspbian-tee/raspbian-tee/optee_os/lib/libmbedtls/mbedtls/library/bignum.c:2010
    4974:	9b12      	ldr	r3, [sp, #72]	; 0x48
    4976:	681b      	ldr	r3, [r3, #0]
    4978:	07da      	lsls	r2, r3, #31
    497a:	d42a      	bmi.n	49d2 <mbedtls_mpi_inv_mod+0x16c>
/media/wen/My_Passport/Raspbian/raspbian-tee/raspbian-tee/optee_os/lib/libmbedtls/mbedtls/library/bignum.c:2010 (discriminator 1)
    497c:	9b15      	ldr	r3, [sp, #84]	; 0x54
    497e:	681b      	ldr	r3, [r3, #0]
    4980:	07db      	lsls	r3, r3, #31
    4982:	d426      	bmi.n	49d2 <mbedtls_mpi_inv_mod+0x16c>
/media/wen/My_Passport/Raspbian/raspbian-tee/raspbian-tee/optee_os/lib/libmbedtls/mbedtls/library/bignum.c:2016
    4984:	2101      	movs	r1, #1
    4986:	a810      	add	r0, sp, #64	; 0x40
    4988:	f7fe fce4 	bl	3354 <mbedtls_mpi_shift_r>
    498c:	4601      	mov	r1, r0
    498e:	b388      	cbz	r0, 49f4 <mbedtls_mpi_inv_mod+0x18e>
/media/wen/My_Passport/Raspbian/raspbian-tee/raspbian-tee/optee_os/lib/libmbedtls/mbedtls/library/bignum.c:2059
    4990:	4638      	mov	r0, r7
    4992:	9104      	str	r1, [sp, #16]
    4994:	f7fe fa0b 	bl	2dae <mbedtls_mpi_free>
    4998:	4620      	mov	r0, r4
    499a:	f7fe fa08 	bl	2dae <mbedtls_mpi_free>
    499e:	4658      	mov	r0, fp
    49a0:	f7fe fa05 	bl	2dae <mbedtls_mpi_free>
    49a4:	4650      	mov	r0, sl
    49a6:	f7fe fa02 	bl	2dae <mbedtls_mpi_free>
/media/wen/My_Passport/Raspbian/raspbian-tee/raspbian-tee/optee_os/lib/libmbedtls/mbedtls/library/bignum.c:2060
    49aa:	4648      	mov	r0, r9
    49ac:	f7fe f9ff 	bl	2dae <mbedtls_mpi_free>
    49b0:	9801      	ldr	r0, [sp, #4]
    49b2:	f7fe f9fc 	bl	2dae <mbedtls_mpi_free>
    49b6:	9802      	ldr	r0, [sp, #8]
    49b8:	f7fe f9f9 	bl	2dae <mbedtls_mpi_free>
/media/wen/My_Passport/Raspbian/raspbian-tee/raspbian-tee/optee_os/lib/libmbedtls/mbedtls/library/bignum.c:2061
    49bc:	9803      	ldr	r0, [sp, #12]
    49be:	f7fe f9f6 	bl	2dae <mbedtls_mpi_free>
    49c2:	a81f      	add	r0, sp, #124	; 0x7c
    49c4:	f7fe f9f3 	bl	2dae <mbedtls_mpi_free>
/media/wen/My_Passport/Raspbian/raspbian-tee/raspbian-tee/optee_os/lib/libmbedtls/mbedtls/library/bignum.c:2063
    49c8:	9904      	ldr	r1, [sp, #16]
/media/wen/My_Passport/Raspbian/raspbian-tee/raspbian-tee/optee_os/lib/libmbedtls/mbedtls/library/bignum.c:2064
    49ca:	4608      	mov	r0, r1
    49cc:	b023      	add	sp, #140	; 0x8c
    49ce:	e8bd 8ff0 	ldmia.w	sp!, {r4, r5, r6, r7, r8, r9, sl, fp, pc}
/media/wen/My_Passport/Raspbian/raspbian-tee/raspbian-tee/optee_os/lib/libmbedtls/mbedtls/library/bignum.c:2012
    49d2:	a910      	add	r1, sp, #64	; 0x40
    49d4:	9a04      	ldr	r2, [sp, #16]
    49d6:	4608      	mov	r0, r1
    49d8:	f7fe fe2d 	bl	3636 <mbedtls_mpi_add_mpi>
    49dc:	4601      	mov	r1, r0
    49de:	2800      	cmp	r0, #0
    49e0:	d1d6      	bne.n	4990 <mbedtls_mpi_inv_mod+0x12a>
/media/wen/My_Passport/Raspbian/raspbian-tee/raspbian-tee/optee_os/lib/libmbedtls/mbedtls/library/bignum.c:2013
    49e2:	a913      	add	r1, sp, #76	; 0x4c
    49e4:	463a      	mov	r2, r7
    49e6:	4608      	mov	r0, r1
    49e8:	f7fe fe49 	bl	367e <mbedtls_mpi_sub_mpi>
    49ec:	4601      	mov	r1, r0
    49ee:	2800      	cmp	r0, #0
    49f0:	d0c8      	beq.n	4984 <mbedtls_mpi_inv_mod+0x11e>
    49f2:	e7cd      	b.n	4990 <mbedtls_mpi_inv_mod+0x12a>
/media/wen/My_Passport/Raspbian/raspbian-tee/raspbian-tee/optee_os/lib/libmbedtls/mbedtls/library/bignum.c:2017
    49f4:	2101      	movs	r1, #1
    49f6:	a813      	add	r0, sp, #76	; 0x4c
    49f8:	f7fe fcac 	bl	3354 <mbedtls_mpi_shift_r>
    49fc:	4601      	mov	r1, r0
    49fe:	2800      	cmp	r0, #0
    4a00:	d0ae      	beq.n	4960 <mbedtls_mpi_inv_mod+0xfa>
    4a02:	e7c5      	b.n	4990 <mbedtls_mpi_inv_mod+0x12a>
/media/wen/My_Passport/Raspbian/raspbian-tee/raspbian-tee/optee_os/lib/libmbedtls/mbedtls/library/bignum.c:2022
    4a04:	2101      	movs	r1, #1
    4a06:	4640      	mov	r0, r8
    4a08:	f7fe fca4 	bl	3354 <mbedtls_mpi_shift_r>
    4a0c:	4601      	mov	r1, r0
    4a0e:	2800      	cmp	r0, #0
    4a10:	d1be      	bne.n	4990 <mbedtls_mpi_inv_mod+0x12a>
/media/wen/My_Passport/Raspbian/raspbian-tee/raspbian-tee/optee_os/lib/libmbedtls/mbedtls/library/bignum.c:2024
    4a12:	9b1e      	ldr	r3, [sp, #120]	; 0x78
    4a14:	681b      	ldr	r3, [r3, #0]
    4a16:	07d9      	lsls	r1, r3, #31
    4a18:	d44d      	bmi.n	4ab6 <mbedtls_mpi_inv_mod+0x250>
/media/wen/My_Passport/Raspbian/raspbian-tee/raspbian-tee/optee_os/lib/libmbedtls/mbedtls/library/bignum.c:2024 (discriminator 1)
    4a1a:	9b21      	ldr	r3, [sp, #132]	; 0x84
    4a1c:	681b      	ldr	r3, [r3, #0]
    4a1e:	07da      	lsls	r2, r3, #31
    4a20:	d449      	bmi.n	4ab6 <mbedtls_mpi_inv_mod+0x250>
/media/wen/My_Passport/Raspbian/raspbian-tee/raspbian-tee/optee_os/lib/libmbedtls/mbedtls/library/bignum.c:2030
    4a22:	2101      	movs	r1, #1
    4a24:	a81c      	add	r0, sp, #112	; 0x70
    4a26:	f7fe fc95 	bl	3354 <mbedtls_mpi_shift_r>
    4a2a:	4601      	mov	r1, r0
    4a2c:	2800      	cmp	r0, #0
    4a2e:	d1af      	bne.n	4990 <mbedtls_mpi_inv_mod+0x12a>
/media/wen/My_Passport/Raspbian/raspbian-tee/raspbian-tee/optee_os/lib/libmbedtls/mbedtls/library/bignum.c:2031
    4a30:	2101      	movs	r1, #1
    4a32:	4630      	mov	r0, r6
    4a34:	f7fe fc8e 	bl	3354 <mbedtls_mpi_shift_r>
    4a38:	4601      	mov	r1, r0
    4a3a:	2800      	cmp	r0, #0
    4a3c:	d1a8      	bne.n	4990 <mbedtls_mpi_inv_mod+0x12a>
/media/wen/My_Passport/Raspbian/raspbian-tee/raspbian-tee/optee_os/lib/libmbedtls/mbedtls/library/bignum.c:2020
    4a3e:	9b1b      	ldr	r3, [sp, #108]	; 0x6c
    4a40:	681b      	ldr	r3, [r3, #0]
    4a42:	07db      	lsls	r3, r3, #31
    4a44:	d5de      	bpl.n	4a04 <mbedtls_mpi_inv_mod+0x19e>
/media/wen/My_Passport/Raspbian/raspbian-tee/raspbian-tee/optee_os/lib/libmbedtls/mbedtls/library/bignum.c:2034
    4a46:	4641      	mov	r1, r8
    4a48:	4620      	mov	r0, r4
    4a4a:	f7fe fcf6 	bl	343a <mbedtls_mpi_cmp_mpi>
    4a4e:	2800      	cmp	r0, #0
    4a50:	db43      	blt.n	4ada <mbedtls_mpi_inv_mod+0x274>
/media/wen/My_Passport/Raspbian/raspbian-tee/raspbian-tee/optee_os/lib/libmbedtls/mbedtls/library/bignum.c:2036
    4a52:	4621      	mov	r1, r4
    4a54:	4642      	mov	r2, r8
    4a56:	4620      	mov	r0, r4
    4a58:	f7fe fe11 	bl	367e <mbedtls_mpi_sub_mpi>
    4a5c:	4601      	mov	r1, r0
    4a5e:	2800      	cmp	r0, #0
    4a60:	d196      	bne.n	4990 <mbedtls_mpi_inv_mod+0x12a>
/media/wen/My_Passport/Raspbian/raspbian-tee/raspbian-tee/optee_os/lib/libmbedtls/mbedtls/library/bignum.c:2037
    4a62:	a910      	add	r1, sp, #64	; 0x40
    4a64:	aa1c      	add	r2, sp, #112	; 0x70
    4a66:	4608      	mov	r0, r1
    4a68:	f7fe fe09 	bl	367e <mbedtls_mpi_sub_mpi>
    4a6c:	4601      	mov	r1, r0
    4a6e:	2800      	cmp	r0, #0
    4a70:	d18e      	bne.n	4990 <mbedtls_mpi_inv_mod+0x12a>
/media/wen/My_Passport/Raspbian/raspbian-tee/raspbian-tee/optee_os/lib/libmbedtls/mbedtls/library/bignum.c:2038
    4a72:	a913      	add	r1, sp, #76	; 0x4c
    4a74:	4632      	mov	r2, r6
    4a76:	4608      	mov	r0, r1
    4a78:	f7fe fe01 	bl	367e <mbedtls_mpi_sub_mpi>
    4a7c:	4601      	mov	r1, r0
    4a7e:	2800      	cmp	r0, #0
    4a80:	d186      	bne.n	4990 <mbedtls_mpi_inv_mod+0x12a>
/media/wen/My_Passport/Raspbian/raspbian-tee/raspbian-tee/optee_os/lib/libmbedtls/mbedtls/library/bignum.c:2047
    4a82:	2100      	movs	r1, #0
    4a84:	4620      	mov	r0, r4
    4a86:	f7fe fd23 	bl	34d0 <mbedtls_mpi_cmp_int>
    4a8a:	2800      	cmp	r0, #0
    4a8c:	f47f af68 	bne.w	4960 <mbedtls_mpi_inv_mod+0xfa>
/media/wen/My_Passport/Raspbian/raspbian-tee/raspbian-tee/optee_os/lib/libmbedtls/mbedtls/library/bignum.c:2049
    4a90:	ae1c      	add	r6, sp, #112	; 0x70
    4a92:	2100      	movs	r1, #0
    4a94:	4630      	mov	r0, r6
    4a96:	f7fe fd1b 	bl	34d0 <mbedtls_mpi_cmp_int>
    4a9a:	2800      	cmp	r0, #0
    4a9c:	db33      	blt.n	4b06 <mbedtls_mpi_inv_mod+0x2a0>
/media/wen/My_Passport/Raspbian/raspbian-tee/raspbian-tee/optee_os/lib/libmbedtls/mbedtls/library/bignum.c:2052
    4a9e:	4629      	mov	r1, r5
    4aa0:	4630      	mov	r0, r6
    4aa2:	f7fe fcca 	bl	343a <mbedtls_mpi_cmp_mpi>
    4aa6:	2800      	cmp	r0, #0
    4aa8:	da36      	bge.n	4b18 <mbedtls_mpi_inv_mod+0x2b2>
/media/wen/My_Passport/Raspbian/raspbian-tee/raspbian-tee/optee_os/lib/libmbedtls/mbedtls/library/bignum.c:2055
    4aaa:	4631      	mov	r1, r6
    4aac:	9805      	ldr	r0, [sp, #20]
    4aae:	f7fe fa61 	bl	2f74 <mbedtls_mpi_copy>
    4ab2:	4601      	mov	r1, r0
    4ab4:	e76c      	b.n	4990 <mbedtls_mpi_inv_mod+0x12a>
/media/wen/My_Passport/Raspbian/raspbian-tee/raspbian-tee/optee_os/lib/libmbedtls/mbedtls/library/bignum.c:2026
    4ab6:	a91c      	add	r1, sp, #112	; 0x70
    4ab8:	9a04      	ldr	r2, [sp, #16]
    4aba:	4608      	mov	r0, r1
    4abc:	f7fe fdbb 	bl	3636 <mbedtls_mpi_add_mpi>
    4ac0:	4601      	mov	r1, r0
    4ac2:	2800      	cmp	r0, #0
    4ac4:	f47f af64 	bne.w	4990 <mbedtls_mpi_inv_mod+0x12a>
/media/wen/My_Passport/Raspbian/raspbian-tee/raspbian-tee/optee_os/lib/libmbedtls/mbedtls/library/bignum.c:2027
    4ac8:	4631      	mov	r1, r6
    4aca:	463a      	mov	r2, r7
    4acc:	4630      	mov	r0, r6
    4ace:	f7fe fdd6 	bl	367e <mbedtls_mpi_sub_mpi>
    4ad2:	4601      	mov	r1, r0
    4ad4:	2800      	cmp	r0, #0
    4ad6:	d0a4      	beq.n	4a22 <mbedtls_mpi_inv_mod+0x1bc>
    4ad8:	e75a      	b.n	4990 <mbedtls_mpi_inv_mod+0x12a>
/media/wen/My_Passport/Raspbian/raspbian-tee/raspbian-tee/optee_os/lib/libmbedtls/mbedtls/library/bignum.c:2042
    4ada:	4641      	mov	r1, r8
    4adc:	4622      	mov	r2, r4
    4ade:	4640      	mov	r0, r8
    4ae0:	f7fe fdcd 	bl	367e <mbedtls_mpi_sub_mpi>
    4ae4:	4601      	mov	r1, r0
    4ae6:	2800      	cmp	r0, #0
    4ae8:	f47f af52 	bne.w	4990 <mbedtls_mpi_inv_mod+0x12a>
/media/wen/My_Passport/Raspbian/raspbian-tee/raspbian-tee/optee_os/lib/libmbedtls/mbedtls/library/bignum.c:2043
    4aec:	a91c      	add	r1, sp, #112	; 0x70
    4aee:	aa10      	add	r2, sp, #64	; 0x40
    4af0:	4608      	mov	r0, r1
    4af2:	f7fe fdc4 	bl	367e <mbedtls_mpi_sub_mpi>
    4af6:	4601      	mov	r1, r0
    4af8:	2800      	cmp	r0, #0
    4afa:	f47f af49 	bne.w	4990 <mbedtls_mpi_inv_mod+0x12a>
/media/wen/My_Passport/Raspbian/raspbian-tee/raspbian-tee/optee_os/lib/libmbedtls/mbedtls/library/bignum.c:2044
    4afe:	aa13      	add	r2, sp, #76	; 0x4c
    4b00:	4631      	mov	r1, r6
    4b02:	4630      	mov	r0, r6
    4b04:	e7b8      	b.n	4a78 <mbedtls_mpi_inv_mod+0x212>
/media/wen/My_Passport/Raspbian/raspbian-tee/raspbian-tee/optee_os/lib/libmbedtls/mbedtls/library/bignum.c:2050
    4b06:	4631      	mov	r1, r6
    4b08:	462a      	mov	r2, r5
    4b0a:	4630      	mov	r0, r6
    4b0c:	f7fe fd93 	bl	3636 <mbedtls_mpi_add_mpi>
    4b10:	4601      	mov	r1, r0
    4b12:	2800      	cmp	r0, #0
    4b14:	d0bd      	beq.n	4a92 <mbedtls_mpi_inv_mod+0x22c>
    4b16:	e73b      	b.n	4990 <mbedtls_mpi_inv_mod+0x12a>
/media/wen/My_Passport/Raspbian/raspbian-tee/raspbian-tee/optee_os/lib/libmbedtls/mbedtls/library/bignum.c:2053
    4b18:	4631      	mov	r1, r6
    4b1a:	462a      	mov	r2, r5
    4b1c:	4630      	mov	r0, r6
    4b1e:	f7fe fdae 	bl	367e <mbedtls_mpi_sub_mpi>
    4b22:	4601      	mov	r1, r0
    4b24:	2800      	cmp	r0, #0
    4b26:	d0ba      	beq.n	4a9e <mbedtls_mpi_inv_mod+0x238>
    4b28:	e732      	b.n	4990 <mbedtls_mpi_inv_mod+0x12a>
/media/wen/My_Passport/Raspbian/raspbian-tee/raspbian-tee/optee_os/lib/libmbedtls/mbedtls/library/bignum.c:1990
    4b2a:	f06f 010d 	mvn.w	r1, #13
    4b2e:	e72f      	b.n	4990 <mbedtls_mpi_inv_mod+0x12a>
/media/wen/My_Passport/Raspbian/raspbian-tee/raspbian-tee/optee_os/lib/libmbedtls/mbedtls/library/bignum.c:1978
    4b30:	f06f 0103 	mvn.w	r1, #3
    4b34:	e749      	b.n	49ca <mbedtls_mpi_inv_mod+0x164>

00004b36 <mbedtls_mpi_is_prime>:
mbedtls_mpi_is_prime():
/media/wen/My_Passport/Raspbian/raspbian-tee/raspbian-tee/optee_os/lib/libmbedtls/mbedtls/library/bignum.c:2238
    4b36:	b5f0      	push	{r4, r5, r6, r7, lr}
    4b38:	460e      	mov	r6, r1
/media/wen/My_Passport/Raspbian/raspbian-tee/raspbian-tee/optee_os/lib/libmbedtls/mbedtls/library/bignum.c:2243
    4b3a:	8883      	ldrh	r3, [r0, #4]
/media/wen/My_Passport/Raspbian/raspbian-tee/raspbian-tee/optee_os/lib/libmbedtls/mbedtls/library/bignum.c:2238
    4b3c:	b085      	sub	sp, #20
/media/wen/My_Passport/Raspbian/raspbian-tee/raspbian-tee/optee_os/lib/libmbedtls/mbedtls/library/bignum.c:2242
    4b3e:	2501      	movs	r5, #1
/media/wen/My_Passport/Raspbian/raspbian-tee/raspbian-tee/optee_os/lib/libmbedtls/mbedtls/library/bignum.c:2246
    4b40:	ac01      	add	r4, sp, #4
    4b42:	2100      	movs	r1, #0
/media/wen/My_Passport/Raspbian/raspbian-tee/raspbian-tee/optee_os/lib/libmbedtls/mbedtls/library/bignum.c:2238
    4b44:	4617      	mov	r7, r2
/media/wen/My_Passport/Raspbian/raspbian-tee/raspbian-tee/optee_os/lib/libmbedtls/mbedtls/library/bignum.c:2243
    4b46:	f8ad 3008 	strh.w	r3, [sp, #8]
/media/wen/My_Passport/Raspbian/raspbian-tee/raspbian-tee/optee_os/lib/libmbedtls/mbedtls/library/bignum.c:2244
    4b4a:	6883      	ldr	r3, [r0, #8]
/media/wen/My_Passport/Raspbian/raspbian-tee/raspbian-tee/optee_os/lib/libmbedtls/mbedtls/library/bignum.c:2246
    4b4c:	4620      	mov	r0, r4
/media/wen/My_Passport/Raspbian/raspbian-tee/raspbian-tee/optee_os/lib/libmbedtls/mbedtls/library/bignum.c:2242
    4b4e:	f88d 5004 	strb.w	r5, [sp, #4]
/media/wen/My_Passport/Raspbian/raspbian-tee/raspbian-tee/optee_os/lib/libmbedtls/mbedtls/library/bignum.c:2244
    4b52:	9303      	str	r3, [sp, #12]
/media/wen/My_Passport/Raspbian/raspbian-tee/raspbian-tee/optee_os/lib/libmbedtls/mbedtls/library/bignum.c:2246
    4b54:	f7fe fcbc 	bl	34d0 <mbedtls_mpi_cmp_int>
    4b58:	b1c0      	cbz	r0, 4b8c <mbedtls_mpi_is_prime+0x56>
/media/wen/My_Passport/Raspbian/raspbian-tee/raspbian-tee/optee_os/lib/libmbedtls/mbedtls/library/bignum.c:2247 (discriminator 1)
    4b5a:	4629      	mov	r1, r5
    4b5c:	4620      	mov	r0, r4
    4b5e:	f7fe fcb7 	bl	34d0 <mbedtls_mpi_cmp_int>
/media/wen/My_Passport/Raspbian/raspbian-tee/raspbian-tee/optee_os/lib/libmbedtls/mbedtls/library/bignum.c:2246 (discriminator 1)
    4b62:	b198      	cbz	r0, 4b8c <mbedtls_mpi_is_prime+0x56>
/media/wen/My_Passport/Raspbian/raspbian-tee/raspbian-tee/optee_os/lib/libmbedtls/mbedtls/library/bignum.c:2250
    4b64:	2102      	movs	r1, #2
    4b66:	4620      	mov	r0, r4
    4b68:	f7fe fcb2 	bl	34d0 <mbedtls_mpi_cmp_int>
    4b6c:	b128      	cbz	r0, 4b7a <mbedtls_mpi_is_prime+0x44>
/media/wen/My_Passport/Raspbian/raspbian-tee/raspbian-tee/optee_os/lib/libmbedtls/mbedtls/library/bignum.c:2253
    4b6e:	4620      	mov	r0, r4
    4b70:	f7ff f9f8 	bl	3f64 <mpi_check_small_factors>
    4b74:	b120      	cbz	r0, 4b80 <mbedtls_mpi_is_prime+0x4a>
/media/wen/My_Passport/Raspbian/raspbian-tee/raspbian-tee/optee_os/lib/libmbedtls/mbedtls/library/bignum.c:2255
    4b76:	42a8      	cmp	r0, r5
    4b78:	d100      	bne.n	4b7c <mbedtls_mpi_is_prime+0x46>
/media/wen/My_Passport/Raspbian/raspbian-tee/raspbian-tee/optee_os/lib/libmbedtls/mbedtls/library/bignum.c:2256
    4b7a:	2000      	movs	r0, #0
/media/wen/My_Passport/Raspbian/raspbian-tee/raspbian-tee/optee_os/lib/libmbedtls/mbedtls/library/bignum.c:2262
    4b7c:	b005      	add	sp, #20
    4b7e:	bdf0      	pop	{r4, r5, r6, r7, pc}
/media/wen/My_Passport/Raspbian/raspbian-tee/raspbian-tee/optee_os/lib/libmbedtls/mbedtls/library/bignum.c:2261
    4b80:	463a      	mov	r2, r7
    4b82:	4631      	mov	r1, r6
    4b84:	4620      	mov	r0, r4
    4b86:	f7ff fd63 	bl	4650 <mpi_miller_rabin>
    4b8a:	e7f7      	b.n	4b7c <mbedtls_mpi_is_prime+0x46>
/media/wen/My_Passport/Raspbian/raspbian-tee/raspbian-tee/optee_os/lib/libmbedtls/mbedtls/library/bignum.c:2248
    4b8c:	f06f 000d 	mvn.w	r0, #13
    4b90:	e7f4      	b.n	4b7c <mbedtls_mpi_is_prime+0x46>

00004b92 <mbedtls_mpi_gen_prime>:
mbedtls_mpi_gen_prime():
/media/wen/My_Passport/Raspbian/raspbian-tee/raspbian-tee/optee_os/lib/libmbedtls/mbedtls/library/bignum.c:2270
    4b92:	e92d 43f0 	stmdb	sp!, {r4, r5, r6, r7, r8, r9, lr}
    4b96:	4691      	mov	r9, r2
    4b98:	4698      	mov	r8, r3
/media/wen/My_Passport/Raspbian/raspbian-tee/raspbian-tee/optee_os/lib/libmbedtls/mbedtls/library/bignum.c:2276
    4b9a:	1eca      	subs	r2, r1, #3
    4b9c:	f641 73fd 	movw	r3, #8189	; 0x1ffd
    4ba0:	429a      	cmp	r2, r3
/media/wen/My_Passport/Raspbian/raspbian-tee/raspbian-tee/optee_os/lib/libmbedtls/mbedtls/library/bignum.c:2270
    4ba2:	b085      	sub	sp, #20
    4ba4:	4604      	mov	r4, r0
    4ba6:	460f      	mov	r7, r1
/media/wen/My_Passport/Raspbian/raspbian-tee/raspbian-tee/optee_os/lib/libmbedtls/mbedtls/library/bignum.c:2276
    4ba8:	f200 808b 	bhi.w	4cc2 <mbedtls_mpi_gen_prime+0x130>
/media/wen/My_Passport/Raspbian/raspbian-tee/raspbian-tee/optee_os/lib/libmbedtls/mbedtls/library/bignum.c:2279
    4bac:	ae01      	add	r6, sp, #4
    4bae:	4630      	mov	r0, r6
    4bb0:	f7fe f8e2 	bl	2d78 <mbedtls_mpi_init_mempool>
/media/wen/My_Passport/Raspbian/raspbian-tee/raspbian-tee/optee_os/lib/libmbedtls/mbedtls/library/bignum.c:2281
    4bb4:	f011 011f 	ands.w	r1, r1, #31
    4bb8:	bf18      	it	ne
    4bba:	2101      	movne	r1, #1
/media/wen/My_Passport/Raspbian/raspbian-tee/raspbian-tee/optee_os/lib/libmbedtls/mbedtls/library/bignum.c:2283
    4bbc:	9b0c      	ldr	r3, [sp, #48]	; 0x30
    4bbe:	4642      	mov	r2, r8
    4bc0:	4620      	mov	r0, r4
/media/wen/My_Passport/Raspbian/raspbian-tee/raspbian-tee/optee_os/lib/libmbedtls/mbedtls/library/bignum.c:2281
    4bc2:	eb01 1157 	add.w	r1, r1, r7, lsr #5
/media/wen/My_Passport/Raspbian/raspbian-tee/raspbian-tee/optee_os/lib/libmbedtls/mbedtls/library/bignum.c:2283
    4bc6:	0089      	lsls	r1, r1, #2
    4bc8:	f7ff fd29 	bl	461e <mbedtls_mpi_fill_random>
    4bcc:	4605      	mov	r5, r0
    4bce:	2800      	cmp	r0, #0
    4bd0:	d161      	bne.n	4c96 <mbedtls_mpi_gen_prime+0x104>
/media/wen/My_Passport/Raspbian/raspbian-tee/raspbian-tee/optee_os/lib/libmbedtls/mbedtls/library/bignum.c:2285
    4bd2:	4620      	mov	r0, r4
    4bd4:	f7fe faf4 	bl	31c0 <mbedtls_mpi_bitlen>
/media/wen/My_Passport/Raspbian/raspbian-tee/raspbian-tee/optee_os/lib/libmbedtls/mbedtls/library/bignum.c:2286
    4bd8:	4287      	cmp	r7, r0
    4bda:	d349      	bcc.n	4c70 <mbedtls_mpi_gen_prime+0xde>
/media/wen/My_Passport/Raspbian/raspbian-tee/raspbian-tee/optee_os/lib/libmbedtls/mbedtls/library/bignum.c:2288
    4bdc:	2201      	movs	r2, #1
    4bde:	1e79      	subs	r1, r7, #1
    4be0:	4620      	mov	r0, r4
    4be2:	f7fe faae 	bl	3142 <mbedtls_mpi_set_bit>
/media/wen/My_Passport/Raspbian/raspbian-tee/raspbian-tee/optee_os/lib/libmbedtls/mbedtls/library/bignum.c:2290
    4be6:	68a2      	ldr	r2, [r4, #8]
    4be8:	6813      	ldr	r3, [r2, #0]
/media/wen/My_Passport/Raspbian/raspbian-tee/raspbian-tee/optee_os/lib/libmbedtls/mbedtls/library/bignum.c:2292
    4bea:	f1b9 0f00 	cmp.w	r9, #0
    4bee:	d049      	beq.n	4c84 <mbedtls_mpi_gen_prime+0xf2>
/media/wen/My_Passport/Raspbian/raspbian-tee/raspbian-tee/optee_os/lib/libmbedtls/mbedtls/library/bignum.c:2310
    4bf0:	f043 0303 	orr.w	r3, r3, #3
mbedtls_mpi_mod_int():
    4bf4:	4621      	mov	r1, r4
mbedtls_mpi_gen_prime():
    4bf6:	6013      	str	r3, [r2, #0]
mbedtls_mpi_mod_int():
    4bf8:	4668      	mov	r0, sp
    4bfa:	2203      	movs	r2, #3
    4bfc:	f7fe f88f 	bl	2d1e <mbedtls_mpi_mod_int.part.1>
mbedtls_mpi_gen_prime():
/media/wen/My_Passport/Raspbian/raspbian-tee/raspbian-tee/optee_os/lib/libmbedtls/mbedtls/library/bignum.c:2312
    4c00:	2800      	cmp	r0, #0
    4c02:	d13d      	bne.n	4c80 <mbedtls_mpi_gen_prime+0xee>
/media/wen/My_Passport/Raspbian/raspbian-tee/raspbian-tee/optee_os/lib/libmbedtls/mbedtls/library/bignum.c:2313
    4c04:	9b00      	ldr	r3, [sp, #0]
    4c06:	2b00      	cmp	r3, #0
    4c08:	d157      	bne.n	4cba <mbedtls_mpi_gen_prime+0x128>
/media/wen/My_Passport/Raspbian/raspbian-tee/raspbian-tee/optee_os/lib/libmbedtls/mbedtls/library/bignum.c:2314
    4c0a:	2208      	movs	r2, #8
/media/wen/My_Passport/Raspbian/raspbian-tee/raspbian-tee/optee_os/lib/libmbedtls/mbedtls/library/bignum.c:2316
    4c0c:	4621      	mov	r1, r4
    4c0e:	4620      	mov	r0, r4
    4c10:	f7fe fd5b 	bl	36ca <mbedtls_mpi_add_int>
    4c14:	bba0      	cbnz	r0, 4c80 <mbedtls_mpi_gen_prime+0xee>
/media/wen/My_Passport/Raspbian/raspbian-tee/raspbian-tee/optee_os/lib/libmbedtls/mbedtls/library/bignum.c:2319
    4c16:	4621      	mov	r1, r4
    4c18:	4630      	mov	r0, r6
    4c1a:	f7fe f9ab 	bl	2f74 <mbedtls_mpi_copy>
    4c1e:	bb78      	cbnz	r0, 4c80 <mbedtls_mpi_gen_prime+0xee>
/media/wen/My_Passport/Raspbian/raspbian-tee/raspbian-tee/optee_os/lib/libmbedtls/mbedtls/library/bignum.c:2320
    4c20:	2101      	movs	r1, #1
    4c22:	4630      	mov	r0, r6
    4c24:	f7fe fb96 	bl	3354 <mbedtls_mpi_shift_r>
    4c28:	bb50      	cbnz	r0, 4c80 <mbedtls_mpi_gen_prime+0xee>
/media/wen/My_Passport/Raspbian/raspbian-tee/raspbian-tee/optee_os/lib/libmbedtls/mbedtls/library/bignum.c:2328
    4c2a:	4620      	mov	r0, r4
    4c2c:	f7ff f99a 	bl	3f64 <mpi_check_small_factors>
    4c30:	b978      	cbnz	r0, 4c52 <mbedtls_mpi_gen_prime+0xc0>
/media/wen/My_Passport/Raspbian/raspbian-tee/raspbian-tee/optee_os/lib/libmbedtls/mbedtls/library/bignum.c:2328 (discriminator 1)
    4c32:	4630      	mov	r0, r6
    4c34:	f7ff f996 	bl	3f64 <mpi_check_small_factors>
    4c38:	b958      	cbnz	r0, 4c52 <mbedtls_mpi_gen_prime+0xc0>
/media/wen/My_Passport/Raspbian/raspbian-tee/raspbian-tee/optee_os/lib/libmbedtls/mbedtls/library/bignum.c:2329
    4c3a:	9a0c      	ldr	r2, [sp, #48]	; 0x30
    4c3c:	4641      	mov	r1, r8
    4c3e:	4620      	mov	r0, r4
    4c40:	f7ff fd06 	bl	4650 <mpi_miller_rabin>
    4c44:	b928      	cbnz	r0, 4c52 <mbedtls_mpi_gen_prime+0xc0>
/media/wen/My_Passport/Raspbian/raspbian-tee/raspbian-tee/optee_os/lib/libmbedtls/mbedtls/library/bignum.c:2330
    4c46:	9a0c      	ldr	r2, [sp, #48]	; 0x30
    4c48:	4641      	mov	r1, r8
    4c4a:	4630      	mov	r0, r6
    4c4c:	f7ff fd00 	bl	4650 <mpi_miller_rabin>
    4c50:	b308      	cbz	r0, 4c96 <mbedtls_mpi_gen_prime+0x104>
/media/wen/My_Passport/Raspbian/raspbian-tee/raspbian-tee/optee_os/lib/libmbedtls/mbedtls/library/bignum.c:2336
    4c52:	f110 0f0e 	cmn.w	r0, #14
    4c56:	d113      	bne.n	4c80 <mbedtls_mpi_gen_prime+0xee>
/media/wen/My_Passport/Raspbian/raspbian-tee/raspbian-tee/optee_os/lib/libmbedtls/mbedtls/library/bignum.c:2344
    4c58:	220c      	movs	r2, #12
    4c5a:	4621      	mov	r1, r4
    4c5c:	4620      	mov	r0, r4
    4c5e:	f7fe fd34 	bl	36ca <mbedtls_mpi_add_int>
    4c62:	b968      	cbnz	r0, 4c80 <mbedtls_mpi_gen_prime+0xee>
/media/wen/My_Passport/Raspbian/raspbian-tee/raspbian-tee/optee_os/lib/libmbedtls/mbedtls/library/bignum.c:2345
    4c64:	2206      	movs	r2, #6
    4c66:	4631      	mov	r1, r6
    4c68:	4630      	mov	r0, r6
    4c6a:	f7fe fd2e 	bl	36ca <mbedtls_mpi_add_int>
    4c6e:	e7db      	b.n	4c28 <mbedtls_mpi_gen_prime+0x96>
/media/wen/My_Passport/Raspbian/raspbian-tee/raspbian-tee/optee_os/lib/libmbedtls/mbedtls/library/bignum.c:2286 (discriminator 1)
    4c70:	f1c7 0101 	rsb	r1, r7, #1
    4c74:	4401      	add	r1, r0
    4c76:	4620      	mov	r0, r4
    4c78:	f7fe fb6c 	bl	3354 <mbedtls_mpi_shift_r>
    4c7c:	2800      	cmp	r0, #0
    4c7e:	d0ad      	beq.n	4bdc <mbedtls_mpi_gen_prime+0x4a>
/media/wen/My_Passport/Raspbian/raspbian-tee/raspbian-tee/optee_os/lib/libmbedtls/mbedtls/library/bignum.c:2344
    4c80:	4605      	mov	r5, r0
    4c82:	e008      	b.n	4c96 <mbedtls_mpi_gen_prime+0x104>
/media/wen/My_Passport/Raspbian/raspbian-tee/raspbian-tee/optee_os/lib/libmbedtls/mbedtls/library/bignum.c:2290
    4c84:	f043 0301 	orr.w	r3, r3, #1
    4c88:	6013      	str	r3, [r2, #0]
/media/wen/My_Passport/Raspbian/raspbian-tee/raspbian-tee/optee_os/lib/libmbedtls/mbedtls/library/bignum.c:2294
    4c8a:	9a0c      	ldr	r2, [sp, #48]	; 0x30
    4c8c:	4641      	mov	r1, r8
    4c8e:	4620      	mov	r0, r4
    4c90:	f7ff ff51 	bl	4b36 <mbedtls_mpi_is_prime>
    4c94:	b930      	cbnz	r0, 4ca4 <mbedtls_mpi_gen_prime+0x112>
/media/wen/My_Passport/Raspbian/raspbian-tee/raspbian-tee/optee_os/lib/libmbedtls/mbedtls/library/bignum.c:2351
    4c96:	4630      	mov	r0, r6
    4c98:	f7fe f889 	bl	2dae <mbedtls_mpi_free>
/media/wen/My_Passport/Raspbian/raspbian-tee/raspbian-tee/optee_os/lib/libmbedtls/mbedtls/library/bignum.c:2354
    4c9c:	4628      	mov	r0, r5
    4c9e:	b005      	add	sp, #20
    4ca0:	e8bd 83f0 	ldmia.w	sp!, {r4, r5, r6, r7, r8, r9, pc}
/media/wen/My_Passport/Raspbian/raspbian-tee/raspbian-tee/optee_os/lib/libmbedtls/mbedtls/library/bignum.c:2296
    4ca4:	f110 0f0e 	cmn.w	r0, #14
    4ca8:	d1ea      	bne.n	4c80 <mbedtls_mpi_gen_prime+0xee>
/media/wen/My_Passport/Raspbian/raspbian-tee/raspbian-tee/optee_os/lib/libmbedtls/mbedtls/library/bignum.c:2299
    4caa:	2202      	movs	r2, #2
    4cac:	4621      	mov	r1, r4
    4cae:	4620      	mov	r0, r4
    4cb0:	f7fe fd0b 	bl	36ca <mbedtls_mpi_add_int>
    4cb4:	2800      	cmp	r0, #0
    4cb6:	d0e8      	beq.n	4c8a <mbedtls_mpi_gen_prime+0xf8>
    4cb8:	e7e2      	b.n	4c80 <mbedtls_mpi_gen_prime+0xee>
/media/wen/My_Passport/Raspbian/raspbian-tee/raspbian-tee/optee_os/lib/libmbedtls/mbedtls/library/bignum.c:2315
    4cba:	2b01      	cmp	r3, #1
    4cbc:	d1ab      	bne.n	4c16 <mbedtls_mpi_gen_prime+0x84>
/media/wen/My_Passport/Raspbian/raspbian-tee/raspbian-tee/optee_os/lib/libmbedtls/mbedtls/library/bignum.c:2316
    4cbe:	2204      	movs	r2, #4
    4cc0:	e7a4      	b.n	4c0c <mbedtls_mpi_gen_prime+0x7a>
/media/wen/My_Passport/Raspbian/raspbian-tee/raspbian-tee/optee_os/lib/libmbedtls/mbedtls/library/bignum.c:2277
    4cc2:	f06f 0503 	mvn.w	r5, #3
    4cc6:	e7e9      	b.n	4c9c <mbedtls_mpi_gen_prime+0x10a>

00004cc8 <mbedtls_mpi_self_test>:
mbedtls_mpi_self_test():
/media/wen/My_Passport/Raspbian/raspbian-tee/raspbian-tee/optee_os/lib/libmbedtls/mbedtls/library/bignum.c:2373
    4cc8:	e92d 4ff0 	stmdb	sp!, {r4, r5, r6, r7, r8, r9, sl, fp, lr}
    4ccc:	4604      	mov	r4, r0
    4cce:	b09b      	sub	sp, #108	; 0x6c
/media/wen/My_Passport/Raspbian/raspbian-tee/raspbian-tee/optee_os/lib/libmbedtls/mbedtls/library/bignum.c:2377
    4cd0:	af05      	add	r7, sp, #20
    4cd2:	f10d 0b20 	add.w	fp, sp, #32
    4cd6:	4638      	mov	r0, r7
/media/wen/My_Passport/Raspbian/raspbian-tee/raspbian-tee/optee_os/lib/libmbedtls/mbedtls/library/bignum.c:2378
    4cd8:	f10d 082c 	add.w	r8, sp, #44	; 0x2c
/media/wen/My_Passport/Raspbian/raspbian-tee/raspbian-tee/optee_os/lib/libmbedtls/mbedtls/library/bignum.c:2377
    4cdc:	f7fe f84c 	bl	2d78 <mbedtls_mpi_init_mempool>
    4ce0:	4658      	mov	r0, fp
    4ce2:	f7fe f849 	bl	2d78 <mbedtls_mpi_init_mempool>
/media/wen/My_Passport/Raspbian/raspbian-tee/raspbian-tee/optee_os/lib/libmbedtls/mbedtls/library/bignum.c:2378
    4ce6:	ad0e      	add	r5, sp, #56	; 0x38
    4ce8:	4640      	mov	r0, r8
/media/wen/My_Passport/Raspbian/raspbian-tee/raspbian-tee/optee_os/lib/libmbedtls/mbedtls/library/bignum.c:2379
    4cea:	f10d 0944 	add.w	r9, sp, #68	; 0x44
/media/wen/My_Passport/Raspbian/raspbian-tee/raspbian-tee/optee_os/lib/libmbedtls/mbedtls/library/bignum.c:2378
    4cee:	f7fe f843 	bl	2d78 <mbedtls_mpi_init_mempool>
    4cf2:	4628      	mov	r0, r5
    4cf4:	f7fe f840 	bl	2d78 <mbedtls_mpi_init_mempool>
/media/wen/My_Passport/Raspbian/raspbian-tee/raspbian-tee/optee_os/lib/libmbedtls/mbedtls/library/bignum.c:2379
    4cf8:	ae14      	add	r6, sp, #80	; 0x50
    4cfa:	4648      	mov	r0, r9
    4cfc:	f7fe f83c 	bl	2d78 <mbedtls_mpi_init_mempool>
    4d00:	4630      	mov	r0, r6
    4d02:	f7fe f839 	bl	2d78 <mbedtls_mpi_init_mempool>
/media/wen/My_Passport/Raspbian/raspbian-tee/raspbian-tee/optee_os/lib/libmbedtls/mbedtls/library/bignum.c:2380
    4d06:	a817      	add	r0, sp, #92	; 0x5c
    4d08:	f7fe f836 	bl	2d78 <mbedtls_mpi_init_mempool>
/media/wen/My_Passport/Raspbian/raspbian-tee/raspbian-tee/optee_os/lib/libmbedtls/mbedtls/library/bignum.c:2382
    4d0c:	4aa3      	ldr	r2, [pc, #652]	; (4f9c <mbedtls_mpi_self_test+0x2d4>)
    4d0e:	2110      	movs	r1, #16
    4d10:	4638      	mov	r0, r7
    4d12:	447a      	add	r2, pc
    4d14:	f7fe fd86 	bl	3824 <mbedtls_mpi_read_string>
    4d18:	4603      	mov	r3, r0
    4d1a:	2800      	cmp	r0, #0
    4d1c:	f040 811d 	bne.w	4f5a <mbedtls_mpi_self_test+0x292>
/media/wen/My_Passport/Raspbian/raspbian-tee/raspbian-tee/optee_os/lib/libmbedtls/mbedtls/library/bignum.c:2388
    4d20:	4a9f      	ldr	r2, [pc, #636]	; (4fa0 <mbedtls_mpi_self_test+0x2d8>)
    4d22:	2110      	movs	r1, #16
    4d24:	4658      	mov	r0, fp
    4d26:	447a      	add	r2, pc
    4d28:	f7fe fd7c 	bl	3824 <mbedtls_mpi_read_string>
    4d2c:	4603      	mov	r3, r0
    4d2e:	2800      	cmp	r0, #0
    4d30:	f040 8113 	bne.w	4f5a <mbedtls_mpi_self_test+0x292>
/media/wen/My_Passport/Raspbian/raspbian-tee/raspbian-tee/optee_os/lib/libmbedtls/mbedtls/library/bignum.c:2394
    4d34:	4a9b      	ldr	r2, [pc, #620]	; (4fa4 <mbedtls_mpi_self_test+0x2dc>)
    4d36:	2110      	movs	r1, #16
    4d38:	4640      	mov	r0, r8
    4d3a:	447a      	add	r2, pc
    4d3c:	f7fe fd72 	bl	3824 <mbedtls_mpi_read_string>
    4d40:	4603      	mov	r3, r0
    4d42:	2800      	cmp	r0, #0
    4d44:	f040 8109 	bne.w	4f5a <mbedtls_mpi_self_test+0x292>
/media/wen/My_Passport/Raspbian/raspbian-tee/raspbian-tee/optee_os/lib/libmbedtls/mbedtls/library/bignum.c:2399
    4d48:	4642      	mov	r2, r8
    4d4a:	4639      	mov	r1, r7
    4d4c:	4628      	mov	r0, r5
    4d4e:	f7fe fcec 	bl	372a <mbedtls_mpi_mul_mpi>
    4d52:	4603      	mov	r3, r0
    4d54:	2800      	cmp	r0, #0
    4d56:	f040 8100 	bne.w	4f5a <mbedtls_mpi_self_test+0x292>
/media/wen/My_Passport/Raspbian/raspbian-tee/raspbian-tee/optee_os/lib/libmbedtls/mbedtls/library/bignum.c:2401
    4d5a:	4a93      	ldr	r2, [pc, #588]	; (4fa8 <mbedtls_mpi_self_test+0x2e0>)
    4d5c:	2110      	movs	r1, #16
    4d5e:	4630      	mov	r0, r6
    4d60:	447a      	add	r2, pc
    4d62:	f7fe fd5f 	bl	3824 <mbedtls_mpi_read_string>
    4d66:	4603      	mov	r3, r0
    4d68:	2800      	cmp	r0, #0
    4d6a:	f040 80f6 	bne.w	4f5a <mbedtls_mpi_self_test+0x292>
/media/wen/My_Passport/Raspbian/raspbian-tee/raspbian-tee/optee_os/lib/libmbedtls/mbedtls/library/bignum.c:2410
    4d6e:	b11c      	cbz	r4, 4d78 <mbedtls_mpi_self_test+0xb0>
/media/wen/My_Passport/Raspbian/raspbian-tee/raspbian-tee/optee_os/lib/libmbedtls/mbedtls/library/bignum.c:2411
    4d70:	488e      	ldr	r0, [pc, #568]	; (4fac <mbedtls_mpi_self_test+0x2e4>)
    4d72:	4478      	add	r0, pc
    4d74:	f7fc f88f 	bl	e96 <printf>
/media/wen/My_Passport/Raspbian/raspbian-tee/raspbian-tee/optee_os/lib/libmbedtls/mbedtls/library/bignum.c:2413
    4d78:	4631      	mov	r1, r6
    4d7a:	4628      	mov	r0, r5
    4d7c:	f7fe fb5d 	bl	343a <mbedtls_mpi_cmp_mpi>
    4d80:	ab17      	add	r3, sp, #92	; 0x5c
    4d82:	9303      	str	r3, [sp, #12]
    4d84:	b140      	cbz	r0, 4d98 <mbedtls_mpi_self_test+0xd0>
/media/wen/My_Passport/Raspbian/raspbian-tee/raspbian-tee/optee_os/lib/libmbedtls/mbedtls/library/bignum.c:2415
    4d86:	2c00      	cmp	r4, #0
    4d88:	f000 80f0 	beq.w	4f6c <mbedtls_mpi_self_test+0x2a4>
/media/wen/My_Passport/Raspbian/raspbian-tee/raspbian-tee/optee_os/lib/libmbedtls/mbedtls/library/bignum.c:2416
    4d8c:	4888      	ldr	r0, [pc, #544]	; (4fb0 <mbedtls_mpi_self_test+0x2e8>)
    4d8e:	4478      	add	r0, pc
    4d90:	f7fc f89e 	bl	ed0 <puts>
/media/wen/My_Passport/Raspbian/raspbian-tee/raspbian-tee/optee_os/lib/libmbedtls/mbedtls/library/bignum.c:2373
    4d94:	2301      	movs	r3, #1
    4d96:	e0e2      	b.n	4f5e <mbedtls_mpi_self_test+0x296>
/media/wen/My_Passport/Raspbian/raspbian-tee/raspbian-tee/optee_os/lib/libmbedtls/mbedtls/library/bignum.c:2422
    4d98:	b11c      	cbz	r4, 4da2 <mbedtls_mpi_self_test+0xda>
/media/wen/My_Passport/Raspbian/raspbian-tee/raspbian-tee/optee_os/lib/libmbedtls/mbedtls/library/bignum.c:2423
    4d9a:	4886      	ldr	r0, [pc, #536]	; (4fb4 <mbedtls_mpi_self_test+0x2ec>)
    4d9c:	4478      	add	r0, pc
    4d9e:	f7fc f897 	bl	ed0 <puts>
/media/wen/My_Passport/Raspbian/raspbian-tee/raspbian-tee/optee_os/lib/libmbedtls/mbedtls/library/bignum.c:2425
    4da2:	4643      	mov	r3, r8
    4da4:	463a      	mov	r2, r7
    4da6:	4649      	mov	r1, r9
    4da8:	4628      	mov	r0, r5
    4daa:	f7fe fdd1 	bl	3950 <mbedtls_mpi_div_mpi>
    4dae:	4603      	mov	r3, r0
    4db0:	2800      	cmp	r0, #0
    4db2:	f040 80d2 	bne.w	4f5a <mbedtls_mpi_self_test+0x292>
/media/wen/My_Passport/Raspbian/raspbian-tee/raspbian-tee/optee_os/lib/libmbedtls/mbedtls/library/bignum.c:2427
    4db6:	4a80      	ldr	r2, [pc, #512]	; (4fb8 <mbedtls_mpi_self_test+0x2f0>)
    4db8:	2110      	movs	r1, #16
    4dba:	4630      	mov	r0, r6
    4dbc:	447a      	add	r2, pc
    4dbe:	f7fe fd31 	bl	3824 <mbedtls_mpi_read_string>
    4dc2:	4603      	mov	r3, r0
    4dc4:	2800      	cmp	r0, #0
    4dc6:	f040 80c8 	bne.w	4f5a <mbedtls_mpi_self_test+0x292>
/media/wen/My_Passport/Raspbian/raspbian-tee/raspbian-tee/optee_os/lib/libmbedtls/mbedtls/library/bignum.c:2430
    4dca:	4a7c      	ldr	r2, [pc, #496]	; (4fbc <mbedtls_mpi_self_test+0x2f4>)
    4dcc:	2110      	movs	r1, #16
    4dce:	9803      	ldr	r0, [sp, #12]
    4dd0:	447a      	add	r2, pc
    4dd2:	f7fe fd27 	bl	3824 <mbedtls_mpi_read_string>
    4dd6:	4603      	mov	r3, r0
    4dd8:	2800      	cmp	r0, #0
    4dda:	f040 80be 	bne.w	4f5a <mbedtls_mpi_self_test+0x292>
/media/wen/My_Passport/Raspbian/raspbian-tee/raspbian-tee/optee_os/lib/libmbedtls/mbedtls/library/bignum.c:2435
    4dde:	b11c      	cbz	r4, 4de8 <mbedtls_mpi_self_test+0x120>
/media/wen/My_Passport/Raspbian/raspbian-tee/raspbian-tee/optee_os/lib/libmbedtls/mbedtls/library/bignum.c:2436
    4de0:	4877      	ldr	r0, [pc, #476]	; (4fc0 <mbedtls_mpi_self_test+0x2f8>)
    4de2:	4478      	add	r0, pc
    4de4:	f7fc f857 	bl	e96 <printf>
/media/wen/My_Passport/Raspbian/raspbian-tee/raspbian-tee/optee_os/lib/libmbedtls/mbedtls/library/bignum.c:2438
    4de8:	4631      	mov	r1, r6
    4dea:	4628      	mov	r0, r5
    4dec:	f7fe fb25 	bl	343a <mbedtls_mpi_cmp_mpi>
    4df0:	2800      	cmp	r0, #0
    4df2:	d1c8      	bne.n	4d86 <mbedtls_mpi_self_test+0xbe>
/media/wen/My_Passport/Raspbian/raspbian-tee/raspbian-tee/optee_os/lib/libmbedtls/mbedtls/library/bignum.c:2439 (discriminator 1)
    4df4:	9903      	ldr	r1, [sp, #12]
    4df6:	4648      	mov	r0, r9
    4df8:	f7fe fb1f 	bl	343a <mbedtls_mpi_cmp_mpi>
/media/wen/My_Passport/Raspbian/raspbian-tee/raspbian-tee/optee_os/lib/libmbedtls/mbedtls/library/bignum.c:2438 (discriminator 1)
    4dfc:	2800      	cmp	r0, #0
    4dfe:	d1c2      	bne.n	4d86 <mbedtls_mpi_self_test+0xbe>
/media/wen/My_Passport/Raspbian/raspbian-tee/raspbian-tee/optee_os/lib/libmbedtls/mbedtls/library/bignum.c:2448
    4e00:	b11c      	cbz	r4, 4e0a <mbedtls_mpi_self_test+0x142>
/media/wen/My_Passport/Raspbian/raspbian-tee/raspbian-tee/optee_os/lib/libmbedtls/mbedtls/library/bignum.c:2449
    4e02:	4870      	ldr	r0, [pc, #448]	; (4fc4 <mbedtls_mpi_self_test+0x2fc>)
    4e04:	4478      	add	r0, pc
    4e06:	f7fc f863 	bl	ed0 <puts>
/media/wen/My_Passport/Raspbian/raspbian-tee/raspbian-tee/optee_os/lib/libmbedtls/mbedtls/library/bignum.c:2451
    4e0a:	2300      	movs	r3, #0
    4e0c:	465a      	mov	r2, fp
    4e0e:	9300      	str	r3, [sp, #0]
    4e10:	4639      	mov	r1, r7
    4e12:	4643      	mov	r3, r8
    4e14:	4628      	mov	r0, r5
    4e16:	f7ff f955 	bl	40c4 <mbedtls_mpi_exp_mod>
    4e1a:	4603      	mov	r3, r0
    4e1c:	2800      	cmp	r0, #0
    4e1e:	f040 809c 	bne.w	4f5a <mbedtls_mpi_self_test+0x292>
/media/wen/My_Passport/Raspbian/raspbian-tee/raspbian-tee/optee_os/lib/libmbedtls/mbedtls/library/bignum.c:2453
    4e22:	4a69      	ldr	r2, [pc, #420]	; (4fc8 <mbedtls_mpi_self_test+0x300>)
    4e24:	2110      	movs	r1, #16
    4e26:	4630      	mov	r0, r6
    4e28:	447a      	add	r2, pc
    4e2a:	f7fe fcfb 	bl	3824 <mbedtls_mpi_read_string>
    4e2e:	4603      	mov	r3, r0
    4e30:	2800      	cmp	r0, #0
    4e32:	f040 8092 	bne.w	4f5a <mbedtls_mpi_self_test+0x292>
/media/wen/My_Passport/Raspbian/raspbian-tee/raspbian-tee/optee_os/lib/libmbedtls/mbedtls/library/bignum.c:2458
    4e36:	b11c      	cbz	r4, 4e40 <mbedtls_mpi_self_test+0x178>
/media/wen/My_Passport/Raspbian/raspbian-tee/raspbian-tee/optee_os/lib/libmbedtls/mbedtls/library/bignum.c:2459
    4e38:	4864      	ldr	r0, [pc, #400]	; (4fcc <mbedtls_mpi_self_test+0x304>)
    4e3a:	4478      	add	r0, pc
    4e3c:	f7fc f82b 	bl	e96 <printf>
/media/wen/My_Passport/Raspbian/raspbian-tee/raspbian-tee/optee_os/lib/libmbedtls/mbedtls/library/bignum.c:2461
    4e40:	4631      	mov	r1, r6
    4e42:	4628      	mov	r0, r5
    4e44:	f7fe faf9 	bl	343a <mbedtls_mpi_cmp_mpi>
    4e48:	2800      	cmp	r0, #0
    4e4a:	d19c      	bne.n	4d86 <mbedtls_mpi_self_test+0xbe>
/media/wen/My_Passport/Raspbian/raspbian-tee/raspbian-tee/optee_os/lib/libmbedtls/mbedtls/library/bignum.c:2470
    4e4c:	b11c      	cbz	r4, 4e56 <mbedtls_mpi_self_test+0x18e>
/media/wen/My_Passport/Raspbian/raspbian-tee/raspbian-tee/optee_os/lib/libmbedtls/mbedtls/library/bignum.c:2471
    4e4e:	4860      	ldr	r0, [pc, #384]	; (4fd0 <mbedtls_mpi_self_test+0x308>)
    4e50:	4478      	add	r0, pc
    4e52:	f7fc f83d 	bl	ed0 <puts>
/media/wen/My_Passport/Raspbian/raspbian-tee/raspbian-tee/optee_os/lib/libmbedtls/mbedtls/library/bignum.c:2473
    4e56:	4642      	mov	r2, r8
    4e58:	4639      	mov	r1, r7
    4e5a:	4628      	mov	r0, r5
    4e5c:	f7ff fd03 	bl	4866 <mbedtls_mpi_inv_mod>
    4e60:	4603      	mov	r3, r0
    4e62:	2800      	cmp	r0, #0
    4e64:	d179      	bne.n	4f5a <mbedtls_mpi_self_test+0x292>
/media/wen/My_Passport/Raspbian/raspbian-tee/raspbian-tee/optee_os/lib/libmbedtls/mbedtls/library/bignum.c:2475
    4e66:	4a5b      	ldr	r2, [pc, #364]	; (4fd4 <mbedtls_mpi_self_test+0x30c>)
    4e68:	2110      	movs	r1, #16
    4e6a:	4630      	mov	r0, r6
    4e6c:	447a      	add	r2, pc
    4e6e:	f7fe fcd9 	bl	3824 <mbedtls_mpi_read_string>
    4e72:	4603      	mov	r3, r0
    4e74:	2800      	cmp	r0, #0
    4e76:	d170      	bne.n	4f5a <mbedtls_mpi_self_test+0x292>
/media/wen/My_Passport/Raspbian/raspbian-tee/raspbian-tee/optee_os/lib/libmbedtls/mbedtls/library/bignum.c:2480
    4e78:	b11c      	cbz	r4, 4e82 <mbedtls_mpi_self_test+0x1ba>
/media/wen/My_Passport/Raspbian/raspbian-tee/raspbian-tee/optee_os/lib/libmbedtls/mbedtls/library/bignum.c:2481
    4e7a:	4857      	ldr	r0, [pc, #348]	; (4fd8 <mbedtls_mpi_self_test+0x310>)
    4e7c:	4478      	add	r0, pc
    4e7e:	f7fc f80a 	bl	e96 <printf>
/media/wen/My_Passport/Raspbian/raspbian-tee/raspbian-tee/optee_os/lib/libmbedtls/mbedtls/library/bignum.c:2483
    4e82:	4631      	mov	r1, r6
    4e84:	4628      	mov	r0, r5
    4e86:	f7fe fad8 	bl	343a <mbedtls_mpi_cmp_mpi>
    4e8a:	9002      	str	r0, [sp, #8]
    4e8c:	2800      	cmp	r0, #0
    4e8e:	f47f af7a 	bne.w	4d86 <mbedtls_mpi_self_test+0xbe>
/media/wen/My_Passport/Raspbian/raspbian-tee/raspbian-tee/optee_os/lib/libmbedtls/mbedtls/library/bignum.c:2492
    4e92:	b13c      	cbz	r4, 4ea4 <mbedtls_mpi_self_test+0x1dc>
/media/wen/My_Passport/Raspbian/raspbian-tee/raspbian-tee/optee_os/lib/libmbedtls/mbedtls/library/bignum.c:2493
    4e94:	4851      	ldr	r0, [pc, #324]	; (4fdc <mbedtls_mpi_self_test+0x314>)
    4e96:	4478      	add	r0, pc
    4e98:	f7fc f81a 	bl	ed0 <puts>
/media/wen/My_Passport/Raspbian/raspbian-tee/raspbian-tee/optee_os/lib/libmbedtls/mbedtls/library/bignum.c:2496
    4e9c:	4850      	ldr	r0, [pc, #320]	; (4fe0 <mbedtls_mpi_self_test+0x318>)
    4e9e:	4478      	add	r0, pc
    4ea0:	f7fb fff9 	bl	e96 <printf>
    4ea4:	f8df a13c 	ldr.w	sl, [pc, #316]	; 4fe4 <mbedtls_mpi_self_test+0x31c>
    4ea8:	44fa      	add	sl, pc
    4eaa:	f50a 7a28 	add.w	sl, sl, #672	; 0x2a0
/media/wen/My_Passport/Raspbian/raspbian-tee/raspbian-tee/optee_os/lib/libmbedtls/mbedtls/library/bignum.c:2500
    4eae:	f8da 1000 	ldr.w	r1, [sl]
    4eb2:	4628      	mov	r0, r5
    4eb4:	f7fe f919 	bl	30ea <mbedtls_mpi_lset>
    4eb8:	4603      	mov	r3, r0
    4eba:	2800      	cmp	r0, #0
    4ebc:	d14d      	bne.n	4f5a <mbedtls_mpi_self_test+0x292>
/media/wen/My_Passport/Raspbian/raspbian-tee/raspbian-tee/optee_os/lib/libmbedtls/mbedtls/library/bignum.c:2501
    4ebe:	f8da 1004 	ldr.w	r1, [sl, #4]
    4ec2:	4648      	mov	r0, r9
    4ec4:	f7fe f911 	bl	30ea <mbedtls_mpi_lset>
    4ec8:	4603      	mov	r3, r0
    4eca:	2800      	cmp	r0, #0
    4ecc:	d145      	bne.n	4f5a <mbedtls_mpi_self_test+0x292>
/media/wen/My_Passport/Raspbian/raspbian-tee/raspbian-tee/optee_os/lib/libmbedtls/mbedtls/library/bignum.c:2503
    4ece:	464a      	mov	r2, r9
    4ed0:	4629      	mov	r1, r5
    4ed2:	4638      	mov	r0, r7
    4ed4:	f7ff fb19 	bl	450a <mbedtls_mpi_gcd>
    4ed8:	4603      	mov	r3, r0
    4eda:	2800      	cmp	r0, #0
    4edc:	d13d      	bne.n	4f5a <mbedtls_mpi_self_test+0x292>
/media/wen/My_Passport/Raspbian/raspbian-tee/raspbian-tee/optee_os/lib/libmbedtls/mbedtls/library/bignum.c:2505
    4ede:	f8da 1008 	ldr.w	r1, [sl, #8]
    4ee2:	4638      	mov	r0, r7
    4ee4:	f7fe faf4 	bl	34d0 <mbedtls_mpi_cmp_int>
    4ee8:	b138      	cbz	r0, 4efa <mbedtls_mpi_self_test+0x232>
/media/wen/My_Passport/Raspbian/raspbian-tee/raspbian-tee/optee_os/lib/libmbedtls/mbedtls/library/bignum.c:2507
    4eea:	2c00      	cmp	r4, #0
    4eec:	d03e      	beq.n	4f6c <mbedtls_mpi_self_test+0x2a4>
/media/wen/My_Passport/Raspbian/raspbian-tee/raspbian-tee/optee_os/lib/libmbedtls/mbedtls/library/bignum.c:2508
    4eee:	483e      	ldr	r0, [pc, #248]	; (4fe8 <mbedtls_mpi_self_test+0x320>)
    4ef0:	9902      	ldr	r1, [sp, #8]
    4ef2:	4478      	add	r0, pc
    4ef4:	f7fb ffcf 	bl	e96 <printf>
    4ef8:	e74c      	b.n	4d94 <mbedtls_mpi_self_test+0xcc>
/media/wen/My_Passport/Raspbian/raspbian-tee/raspbian-tee/optee_os/lib/libmbedtls/mbedtls/library/bignum.c:2498 (discriminator 2)
    4efa:	9a02      	ldr	r2, [sp, #8]
    4efc:	f10a 0a0c 	add.w	sl, sl, #12
    4f00:	3201      	adds	r2, #1
    4f02:	2a03      	cmp	r2, #3
    4f04:	9202      	str	r2, [sp, #8]
    4f06:	d1d2      	bne.n	4eae <mbedtls_mpi_self_test+0x1e6>
/media/wen/My_Passport/Raspbian/raspbian-tee/raspbian-tee/optee_os/lib/libmbedtls/mbedtls/library/bignum.c:2515
    4f08:	b32c      	cbz	r4, 4f56 <mbedtls_mpi_self_test+0x28e>
    4f0a:	9002      	str	r0, [sp, #8]
/media/wen/My_Passport/Raspbian/raspbian-tee/raspbian-tee/optee_os/lib/libmbedtls/mbedtls/library/bignum.c:2516
    4f0c:	4837      	ldr	r0, [pc, #220]	; (4fec <mbedtls_mpi_self_test+0x324>)
    4f0e:	4478      	add	r0, pc
    4f10:	f7fb ffde 	bl	ed0 <puts>
    4f14:	9b02      	ldr	r3, [sp, #8]
/media/wen/My_Passport/Raspbian/raspbian-tee/raspbian-tee/optee_os/lib/libmbedtls/mbedtls/library/bignum.c:2523
    4f16:	4638      	mov	r0, r7
    4f18:	9302      	str	r3, [sp, #8]
    4f1a:	f7fd ff48 	bl	2dae <mbedtls_mpi_free>
    4f1e:	4658      	mov	r0, fp
    4f20:	f7fd ff45 	bl	2dae <mbedtls_mpi_free>
    4f24:	4640      	mov	r0, r8
    4f26:	f7fd ff42 	bl	2dae <mbedtls_mpi_free>
    4f2a:	4628      	mov	r0, r5
    4f2c:	f7fd ff3f 	bl	2dae <mbedtls_mpi_free>
/media/wen/My_Passport/Raspbian/raspbian-tee/raspbian-tee/optee_os/lib/libmbedtls/mbedtls/library/bignum.c:2524
    4f30:	4648      	mov	r0, r9
    4f32:	f7fd ff3c 	bl	2dae <mbedtls_mpi_free>
    4f36:	4630      	mov	r0, r6
    4f38:	f7fd ff39 	bl	2dae <mbedtls_mpi_free>
    4f3c:	a817      	add	r0, sp, #92	; 0x5c
    4f3e:	f7fd ff36 	bl	2dae <mbedtls_mpi_free>
/media/wen/My_Passport/Raspbian/raspbian-tee/raspbian-tee/optee_os/lib/libmbedtls/mbedtls/library/bignum.c:2526
    4f42:	9b02      	ldr	r3, [sp, #8]
    4f44:	b11c      	cbz	r4, 4f4e <mbedtls_mpi_self_test+0x286>
/media/wen/My_Passport/Raspbian/raspbian-tee/raspbian-tee/optee_os/lib/libmbedtls/mbedtls/library/bignum.c:2527
    4f46:	200a      	movs	r0, #10
    4f48:	f7fb ffd4 	bl	ef4 <putchar>
/media/wen/My_Passport/Raspbian/raspbian-tee/raspbian-tee/optee_os/lib/libmbedtls/mbedtls/library/bignum.c:2529
    4f4c:	9b02      	ldr	r3, [sp, #8]
/media/wen/My_Passport/Raspbian/raspbian-tee/raspbian-tee/optee_os/lib/libmbedtls/mbedtls/library/bignum.c:2530
    4f4e:	4618      	mov	r0, r3
    4f50:	b01b      	add	sp, #108	; 0x6c
    4f52:	e8bd 8ff0 	ldmia.w	sp!, {r4, r5, r6, r7, r8, r9, sl, fp, pc}
    4f56:	4623      	mov	r3, r4
    4f58:	e7dd      	b.n	4f16 <mbedtls_mpi_self_test+0x24e>
/media/wen/My_Passport/Raspbian/raspbian-tee/raspbian-tee/optee_os/lib/libmbedtls/mbedtls/library/bignum.c:2520
    4f5a:	2c00      	cmp	r4, #0
    4f5c:	d0db      	beq.n	4f16 <mbedtls_mpi_self_test+0x24e>
/media/wen/My_Passport/Raspbian/raspbian-tee/raspbian-tee/optee_os/lib/libmbedtls/mbedtls/library/bignum.c:2521
    4f5e:	4824      	ldr	r0, [pc, #144]	; (4ff0 <mbedtls_mpi_self_test+0x328>)
    4f60:	4619      	mov	r1, r3
    4f62:	9302      	str	r3, [sp, #8]
    4f64:	4478      	add	r0, pc
    4f66:	f7fb ff96 	bl	e96 <printf>
    4f6a:	e7d3      	b.n	4f14 <mbedtls_mpi_self_test+0x24c>
/media/wen/My_Passport/Raspbian/raspbian-tee/raspbian-tee/optee_os/lib/libmbedtls/mbedtls/library/bignum.c:2523
    4f6c:	4638      	mov	r0, r7
    4f6e:	f7fd ff1e 	bl	2dae <mbedtls_mpi_free>
    4f72:	4658      	mov	r0, fp
    4f74:	f7fd ff1b 	bl	2dae <mbedtls_mpi_free>
    4f78:	4640      	mov	r0, r8
    4f7a:	f7fd ff18 	bl	2dae <mbedtls_mpi_free>
    4f7e:	4628      	mov	r0, r5
    4f80:	f7fd ff15 	bl	2dae <mbedtls_mpi_free>
/media/wen/My_Passport/Raspbian/raspbian-tee/raspbian-tee/optee_os/lib/libmbedtls/mbedtls/library/bignum.c:2524
    4f84:	4648      	mov	r0, r9
    4f86:	f7fd ff12 	bl	2dae <mbedtls_mpi_free>
    4f8a:	4630      	mov	r0, r6
    4f8c:	f7fd ff0f 	bl	2dae <mbedtls_mpi_free>
    4f90:	9803      	ldr	r0, [sp, #12]
    4f92:	f7fd ff0c 	bl	2dae <mbedtls_mpi_free>
    4f96:	2301      	movs	r3, #1
    4f98:	e7d9      	b.n	4f4e <mbedtls_mpi_self_test+0x286>
    4f9a:	bf00      	nop
    4f9c:	00001908 	.word	0x00001908
    4fa0:	00001975 	.word	0x00001975
    4fa4:	000019e2 	.word	0x000019e2
    4fa8:	00001a1d 	.word	0x00001a1d
    4fac:	00001aea 	.word	0x00001aea
    4fb0:	00001ae8 	.word	0x00001ae8
    4fb4:	00001ae1 	.word	0x00001ae1
    4fb8:	00001ac8 	.word	0x00001ac8
    4fbc:	00001ad8 	.word	0x00001ad8
    4fc0:	00001b25 	.word	0x00001b25
    4fc4:	00001a79 	.word	0x00001a79
    4fc8:	00001af9 	.word	0x00001af9
    4fcc:	00001b46 	.word	0x00001b46
    4fd0:	00001a2d 	.word	0x00001a2d
    4fd4:	00001b2e 	.word	0x00001b2e
    4fd8:	00001b7f 	.word	0x00001b7f
    4fdc:	000019e7 	.word	0x000019e7
    4fe0:	00001b77 	.word	0x00001b77
    4fe4:	00001140 	.word	0x00001140
    4fe8:	00001b40 	.word	0x00001b40
    4fec:	0000196f 	.word	0x0000196f
    4ff0:	00001adc 	.word	0x00001adc

00004ff4 <raw_malloc_return_hook.isra.3>:
raw_malloc_return_hook():
/media/wen/My_Passport/Raspbian/raspbian-tee/raspbian-tee/optee_os/lib/libutils/isoc/bget_malloc.c:167
    4ff4:	4b09      	ldr	r3, [pc, #36]	; (501c <raw_malloc_return_hook.isra.3+0x28>)
/media/wen/My_Passport/Raspbian/raspbian-tee/raspbian-tee/optee_os/lib/libutils/isoc/bget_malloc.c:164
    4ff6:	b510      	push	{r4, lr}
/media/wen/My_Passport/Raspbian/raspbian-tee/raspbian-tee/optee_os/lib/libutils/isoc/bget_malloc.c:167
    4ff8:	447b      	add	r3, pc
    4ffa:	6a5c      	ldr	r4, [r3, #36]	; 0x24
    4ffc:	42a2      	cmp	r2, r4
    4ffe:	d900      	bls.n	5002 <raw_malloc_return_hook.isra.3+0xe>
/media/wen/My_Passport/Raspbian/raspbian-tee/raspbian-tee/optee_os/lib/libutils/isoc/bget_malloc.c:168
    5000:	625a      	str	r2, [r3, #36]	; 0x24
/media/wen/My_Passport/Raspbian/raspbian-tee/raspbian-tee/optee_os/lib/libutils/isoc/bget_malloc.c:170
    5002:	b948      	cbnz	r0, 5018 <raw_malloc_return_hook.isra.3+0x24>
/media/wen/My_Passport/Raspbian/raspbian-tee/raspbian-tee/optee_os/lib/libutils/isoc/bget_malloc.c:171
    5004:	4b06      	ldr	r3, [pc, #24]	; (5020 <raw_malloc_return_hook.isra.3+0x2c>)
    5006:	447b      	add	r3, pc
    5008:	6ad8      	ldr	r0, [r3, #44]	; 0x2c
    500a:	3001      	adds	r0, #1
    500c:	62d8      	str	r0, [r3, #44]	; 0x2c
/media/wen/My_Passport/Raspbian/raspbian-tee/raspbian-tee/optee_os/lib/libutils/isoc/bget_malloc.c:172
    500e:	6b18      	ldr	r0, [r3, #48]	; 0x30
    5010:	4288      	cmp	r0, r1
    5012:	d201      	bcs.n	5018 <raw_malloc_return_hook.isra.3+0x24>
/media/wen/My_Passport/Raspbian/raspbian-tee/raspbian-tee/optee_os/lib/libutils/isoc/bget_malloc.c:173
    5014:	6319      	str	r1, [r3, #48]	; 0x30
/media/wen/My_Passport/Raspbian/raspbian-tee/raspbian-tee/optee_os/lib/libutils/isoc/bget_malloc.c:174
    5016:	635a      	str	r2, [r3, #52]	; 0x34
    5018:	bd10      	pop	{r4, pc}
    501a:	bf00      	nop
    501c:	000050c4 	.word	0x000050c4
    5020:	000050b6 	.word	0x000050b6

00005024 <create_free_block.constprop.11>:
create_free_block():
/media/wen/My_Passport/Raspbian/raspbian-tee/raspbian-tee/optee_os/lib/libutils/isoc/bget_malloc.c:380
    5024:	b508      	push	{r3, lr}
/media/wen/My_Passport/Raspbian/raspbian-tee/raspbian-tee/optee_os/lib/libutils/isoc/bget_malloc.c:383
    5026:	1843      	adds	r3, r0, r1
    5028:	4293      	cmp	r3, r2
    502a:	d00b      	beq.n	5044 <create_free_block.constprop.11+0x20>
    502c:	4b23      	ldr	r3, [pc, #140]	; (50bc <create_free_block.constprop.11+0x98>)
    502e:	f240 127f 	movw	r2, #383	; 0x17f
    5032:	4923      	ldr	r1, [pc, #140]	; (50c0 <create_free_block.constprop.11+0x9c>)
    5034:	4823      	ldr	r0, [pc, #140]	; (50c4 <create_free_block.constprop.11+0xa0>)
    5036:	447b      	add	r3, pc
    5038:	4479      	add	r1, pc
    503a:	4478      	add	r0, pc
/media/wen/My_Passport/Raspbian/raspbian-tee/raspbian-tee/optee_os/lib/libutils/isoc/bget_malloc.c:384
    503c:	f000 fe38 	bl	5cb0 <_assert_log>
    5040:	f000 fe4a 	bl	5cd8 <_assert_break>
    5044:	685b      	ldr	r3, [r3, #4]
    5046:	2b00      	cmp	r3, #0
    5048:	db08      	blt.n	505c <create_free_block.constprop.11+0x38>
    504a:	4b1f      	ldr	r3, [pc, #124]	; (50c8 <create_free_block.constprop.11+0xa4>)
    504c:	f44f 72c0 	mov.w	r2, #384	; 0x180
    5050:	491e      	ldr	r1, [pc, #120]	; (50cc <create_free_block.constprop.11+0xa8>)
    5052:	481f      	ldr	r0, [pc, #124]	; (50d0 <create_free_block.constprop.11+0xac>)
    5054:	447b      	add	r3, pc
    5056:	4479      	add	r1, pc
    5058:	4478      	add	r0, pc
    505a:	e7ef      	b.n	503c <create_free_block.constprop.11+0x18>
/media/wen/My_Passport/Raspbian/raspbian-tee/raspbian-tee/optee_os/lib/libutils/isoc/bget_malloc.c:386
    505c:	5843      	ldr	r3, [r0, r1]
    505e:	b143      	cbz	r3, 5072 <create_free_block.constprop.11+0x4e>
    5060:	4b1c      	ldr	r3, [pc, #112]	; (50d4 <create_free_block.constprop.11+0xb0>)
    5062:	f44f 72c1 	mov.w	r2, #386	; 0x182
    5066:	491c      	ldr	r1, [pc, #112]	; (50d8 <create_free_block.constprop.11+0xb4>)
    5068:	481c      	ldr	r0, [pc, #112]	; (50dc <create_free_block.constprop.11+0xb8>)
    506a:	447b      	add	r3, pc
    506c:	4479      	add	r1, pc
    506e:	4478      	add	r0, pc
    5070:	e7e4      	b.n	503c <create_free_block.constprop.11+0x18>
/media/wen/My_Passport/Raspbian/raspbian-tee/raspbian-tee/optee_os/lib/libutils/isoc/bget_malloc.c:390
    5072:	6003      	str	r3, [r0, #0]
/media/wen/My_Passport/Raspbian/raspbian-tee/raspbian-tee/optee_os/lib/libutils/isoc/bget_malloc.c:396
    5074:	4b1a      	ldr	r3, [pc, #104]	; (50e0 <create_free_block.constprop.11+0xbc>)
/media/wen/My_Passport/Raspbian/raspbian-tee/raspbian-tee/optee_os/lib/libutils/isoc/bget_malloc.c:389
    5076:	6041      	str	r1, [r0, #4]
/media/wen/My_Passport/Raspbian/raspbian-tee/raspbian-tee/optee_os/lib/libutils/isoc/bget_malloc.c:396
    5078:	447b      	add	r3, pc
/media/wen/My_Passport/Raspbian/raspbian-tee/raspbian-tee/optee_os/lib/libutils/isoc/bget_malloc.c:393
    507a:	5041      	str	r1, [r0, r1]
/media/wen/My_Passport/Raspbian/raspbian-tee/raspbian-tee/optee_os/lib/libutils/isoc/bget_malloc.c:396
    507c:	68d9      	ldr	r1, [r3, #12]
    507e:	688a      	ldr	r2, [r1, #8]
    5080:	429a      	cmp	r2, r3
    5082:	d008      	beq.n	5096 <create_free_block.constprop.11+0x72>
    5084:	4b17      	ldr	r3, [pc, #92]	; (50e4 <create_free_block.constprop.11+0xc0>)
    5086:	f44f 72c6 	mov.w	r2, #396	; 0x18c
    508a:	4917      	ldr	r1, [pc, #92]	; (50e8 <create_free_block.constprop.11+0xc4>)
    508c:	4817      	ldr	r0, [pc, #92]	; (50ec <create_free_block.constprop.11+0xc8>)
    508e:	447b      	add	r3, pc
    5090:	4479      	add	r1, pc
    5092:	4478      	add	r0, pc
    5094:	e7d2      	b.n	503c <create_free_block.constprop.11+0x18>
/media/wen/My_Passport/Raspbian/raspbian-tee/raspbian-tee/optee_os/lib/libutils/isoc/bget_malloc.c:397
    5096:	6893      	ldr	r3, [r2, #8]
    5098:	68db      	ldr	r3, [r3, #12]
    509a:	4293      	cmp	r3, r2
    509c:	d008      	beq.n	50b0 <create_free_block.constprop.11+0x8c>
    509e:	4b14      	ldr	r3, [pc, #80]	; (50f0 <create_free_block.constprop.11+0xcc>)
    50a0:	f240 128d 	movw	r2, #397	; 0x18d
    50a4:	4913      	ldr	r1, [pc, #76]	; (50f4 <create_free_block.constprop.11+0xd0>)
    50a6:	4814      	ldr	r0, [pc, #80]	; (50f8 <create_free_block.constprop.11+0xd4>)
    50a8:	447b      	add	r3, pc
    50aa:	4479      	add	r1, pc
    50ac:	4478      	add	r0, pc
    50ae:	e7c5      	b.n	503c <create_free_block.constprop.11+0x18>
/media/wen/My_Passport/Raspbian/raspbian-tee/raspbian-tee/optee_os/lib/libutils/isoc/bget_malloc.c:398
    50b0:	6083      	str	r3, [r0, #8]
/media/wen/My_Passport/Raspbian/raspbian-tee/raspbian-tee/optee_os/lib/libutils/isoc/bget_malloc.c:399
    50b2:	60c1      	str	r1, [r0, #12]
/media/wen/My_Passport/Raspbian/raspbian-tee/raspbian-tee/optee_os/lib/libutils/isoc/bget_malloc.c:400
    50b4:	60d8      	str	r0, [r3, #12]
/media/wen/My_Passport/Raspbian/raspbian-tee/raspbian-tee/optee_os/lib/libutils/isoc/bget_malloc.c:401
    50b6:	68c3      	ldr	r3, [r0, #12]
    50b8:	6098      	str	r0, [r3, #8]
    50ba:	bd08      	pop	{r3, pc}
    50bc:	00001a30 	.word	0x00001a30
    50c0:	00001ab8 	.word	0x00001ab8
    50c4:	00001ad6 	.word	0x00001ad6
    50c8:	00001a12 	.word	0x00001a12
    50cc:	00001a9a 	.word	0x00001a9a
    50d0:	00001ad4 	.word	0x00001ad4
    50d4:	000019fc 	.word	0x000019fc
    50d8:	00001a84 	.word	0x00001a84
    50dc:	00001acc 	.word	0x00001acc
    50e0:	00002ff8 	.word	0x00002ff8
    50e4:	000019d8 	.word	0x000019d8
    50e8:	00001a60 	.word	0x00001a60
    50ec:	00001aba 	.word	0x00001aba
    50f0:	000019be 	.word	0x000019be
    50f4:	00001a46 	.word	0x00001a46
    50f8:	00001adb 	.word	0x00001adb

000050fc <bget>:
bget():
/media/wen/My_Passport/Raspbian/raspbian-tee/raspbian-tee/optee_os/lib/libutils/isoc/bget.c:593
    50fc:	1e03      	subs	r3, r0, #0
/media/wen/My_Passport/Raspbian/raspbian-tee/raspbian-tee/optee_os/lib/libutils/isoc/bget.c:582
    50fe:	b570      	push	{r4, r5, r6, lr}
/media/wen/My_Passport/Raspbian/raspbian-tee/raspbian-tee/optee_os/lib/libutils/isoc/bget.c:593
    5100:	dc0c      	bgt.n	511c <bget+0x20>
/media/wen/My_Passport/Raspbian/raspbian-tee/raspbian-tee/optee_os/lib/libutils/isoc/bget.c:593 (discriminator 1)
    5102:	4b3c      	ldr	r3, [pc, #240]	; (51f4 <bget+0xf8>)
    5104:	f240 2251 	movw	r2, #593	; 0x251
    5108:	493b      	ldr	r1, [pc, #236]	; (51f8 <bget+0xfc>)
    510a:	483c      	ldr	r0, [pc, #240]	; (51fc <bget+0x100>)
    510c:	447b      	add	r3, pc
    510e:	3312      	adds	r3, #18
    5110:	4479      	add	r1, pc
    5112:	4478      	add	r0, pc
/media/wen/My_Passport/Raspbian/raspbian-tee/raspbian-tee/optee_os/lib/libutils/isoc/bget.c:653 (discriminator 1)
    5114:	f000 fdcc 	bl	5cb0 <_assert_log>
    5118:	f000 fdde 	bl	5cd8 <_assert_break>
/media/wen/My_Passport/Raspbian/raspbian-tee/raspbian-tee/optee_os/lib/libutils/isoc/bget.c:600
    511c:	2b08      	cmp	r3, #8
/media/wen/My_Passport/Raspbian/raspbian-tee/raspbian-tee/optee_os/lib/libutils/isoc/bget.c:614
    511e:	6888      	ldr	r0, [r1, #8]
/media/wen/My_Passport/Raspbian/raspbian-tee/raspbian-tee/optee_os/lib/libutils/isoc/bget.c:600
    5120:	bfb8      	it	lt
    5122:	2308      	movlt	r3, #8
    5124:	3307      	adds	r3, #7
    5126:	f023 0307 	bic.w	r3, r3, #7
/media/wen/My_Passport/Raspbian/raspbian-tee/raspbian-tee/optee_os/lib/libutils/isoc/bget.c:604
    512a:	3308      	adds	r3, #8
/media/wen/My_Passport/Raspbian/raspbian-tee/raspbian-tee/optee_os/lib/libutils/isoc/bget.c:636
    512c:	4288      	cmp	r0, r1
    512e:	d101      	bne.n	5134 <bget+0x38>
/media/wen/My_Passport/Raspbian/raspbian-tee/raspbian-tee/optee_os/lib/libutils/isoc/bget.c:764
    5130:	2000      	movs	r0, #0
/media/wen/My_Passport/Raspbian/raspbian-tee/raspbian-tee/optee_os/lib/libutils/isoc/bget.c:765
    5132:	bd70      	pop	{r4, r5, r6, pc}
/media/wen/My_Passport/Raspbian/raspbian-tee/raspbian-tee/optee_os/lib/libutils/isoc/bget.c:637
    5134:	6842      	ldr	r2, [r0, #4]
    5136:	4293      	cmp	r3, r2
    5138:	dc59      	bgt.n	51ee <bget+0xf2>
/media/wen/My_Passport/Raspbian/raspbian-tee/raspbian-tee/optee_os/lib/libutils/isoc/bget.c:648
    513a:	1ad4      	subs	r4, r2, r3
    513c:	2c10      	cmp	r4, #16
    513e:	dd1c      	ble.n	517a <bget+0x7e>
/media/wen/My_Passport/Raspbian/raspbian-tee/raspbian-tee/optee_os/lib/libutils/isoc/bget.c:651
    5140:	1905      	adds	r5, r0, r4
/media/wen/My_Passport/Raspbian/raspbian-tee/raspbian-tee/optee_os/lib/libutils/isoc/bget.c:653
    5142:	58ee      	ldr	r6, [r5, r3]
    5144:	42b2      	cmp	r2, r6
    5146:	d009      	beq.n	515c <bget+0x60>
/media/wen/My_Passport/Raspbian/raspbian-tee/raspbian-tee/optee_os/lib/libutils/isoc/bget.c:653 (discriminator 1)
    5148:	4b2d      	ldr	r3, [pc, #180]	; (5200 <bget+0x104>)
    514a:	f240 228d 	movw	r2, #653	; 0x28d
    514e:	492d      	ldr	r1, [pc, #180]	; (5204 <bget+0x108>)
    5150:	482d      	ldr	r0, [pc, #180]	; (5208 <bget+0x10c>)
    5152:	447b      	add	r3, pc
    5154:	3312      	adds	r3, #18
    5156:	4479      	add	r1, pc
    5158:	4478      	add	r0, pc
    515a:	e7db      	b.n	5114 <bget+0x18>
/media/wen/My_Passport/Raspbian/raspbian-tee/raspbian-tee/optee_os/lib/libutils/isoc/bget.c:659
    515c:	425a      	negs	r2, r3
/media/wen/My_Passport/Raspbian/raspbian-tee/raspbian-tee/optee_os/lib/libutils/isoc/bget.c:655
    515e:	6044      	str	r4, [r0, #4]
/media/wen/My_Passport/Raspbian/raspbian-tee/raspbian-tee/optee_os/lib/libutils/isoc/bget.c:657
    5160:	5104      	str	r4, [r0, r4]
/media/wen/My_Passport/Raspbian/raspbian-tee/raspbian-tee/optee_os/lib/libutils/isoc/bget.c:667
    5162:	f105 0008 	add.w	r0, r5, #8
/media/wen/My_Passport/Raspbian/raspbian-tee/raspbian-tee/optee_os/lib/libutils/isoc/bget.c:659
    5166:	606a      	str	r2, [r5, #4]
/media/wen/My_Passport/Raspbian/raspbian-tee/raspbian-tee/optee_os/lib/libutils/isoc/bget.c:661
    5168:	2200      	movs	r2, #0
    516a:	50ea      	str	r2, [r5, r3]
/media/wen/My_Passport/Raspbian/raspbian-tee/raspbian-tee/optee_os/lib/libutils/isoc/bget.c:664
    516c:	690a      	ldr	r2, [r1, #16]
    516e:	4413      	add	r3, r2
    5170:	610b      	str	r3, [r1, #16]
/media/wen/My_Passport/Raspbian/raspbian-tee/raspbian-tee/optee_os/lib/libutils/isoc/bget.c:665
    5172:	694b      	ldr	r3, [r1, #20]
    5174:	3301      	adds	r3, #1
    5176:	614b      	str	r3, [r1, #20]
/media/wen/My_Passport/Raspbian/raspbian-tee/raspbian-tee/optee_os/lib/libutils/isoc/bget.c:669
    5178:	bd70      	pop	{r4, r5, r6, pc}
/media/wen/My_Passport/Raspbian/raspbian-tee/raspbian-tee/optee_os/lib/libutils/isoc/bget.c:674
    517a:	5883      	ldr	r3, [r0, r2]
/media/wen/My_Passport/Raspbian/raspbian-tee/raspbian-tee/optee_os/lib/libutils/isoc/bget.c:673
    517c:	1885      	adds	r5, r0, r2
/media/wen/My_Passport/Raspbian/raspbian-tee/raspbian-tee/optee_os/lib/libutils/isoc/bget.c:674
    517e:	429a      	cmp	r2, r3
    5180:	d009      	beq.n	5196 <bget+0x9a>
/media/wen/My_Passport/Raspbian/raspbian-tee/raspbian-tee/optee_os/lib/libutils/isoc/bget.c:674 (discriminator 1)
    5182:	4b22      	ldr	r3, [pc, #136]	; (520c <bget+0x110>)
    5184:	f240 22a2 	movw	r2, #674	; 0x2a2
    5188:	4921      	ldr	r1, [pc, #132]	; (5210 <bget+0x114>)
    518a:	4822      	ldr	r0, [pc, #136]	; (5214 <bget+0x118>)
    518c:	447b      	add	r3, pc
    518e:	3312      	adds	r3, #18
    5190:	4479      	add	r1, pc
    5192:	4478      	add	r0, pc
    5194:	e7be      	b.n	5114 <bget+0x18>
/media/wen/My_Passport/Raspbian/raspbian-tee/raspbian-tee/optee_os/lib/libutils/isoc/bget.c:679
    5196:	68c3      	ldr	r3, [r0, #12]
    5198:	689c      	ldr	r4, [r3, #8]
    519a:	42a0      	cmp	r0, r4
    519c:	d009      	beq.n	51b2 <bget+0xb6>
/media/wen/My_Passport/Raspbian/raspbian-tee/raspbian-tee/optee_os/lib/libutils/isoc/bget.c:679 (discriminator 1)
    519e:	4b1e      	ldr	r3, [pc, #120]	; (5218 <bget+0x11c>)
    51a0:	f240 22a7 	movw	r2, #679	; 0x2a7
    51a4:	491d      	ldr	r1, [pc, #116]	; (521c <bget+0x120>)
    51a6:	481e      	ldr	r0, [pc, #120]	; (5220 <bget+0x124>)
    51a8:	447b      	add	r3, pc
    51aa:	3312      	adds	r3, #18
    51ac:	4479      	add	r1, pc
    51ae:	4478      	add	r0, pc
    51b0:	e7b0      	b.n	5114 <bget+0x18>
/media/wen/My_Passport/Raspbian/raspbian-tee/raspbian-tee/optee_os/lib/libutils/isoc/bget.c:680
    51b2:	6884      	ldr	r4, [r0, #8]
    51b4:	68e6      	ldr	r6, [r4, #12]
    51b6:	42b0      	cmp	r0, r6
    51b8:	d009      	beq.n	51ce <bget+0xd2>
/media/wen/My_Passport/Raspbian/raspbian-tee/raspbian-tee/optee_os/lib/libutils/isoc/bget.c:680 (discriminator 1)
    51ba:	4b1a      	ldr	r3, [pc, #104]	; (5224 <bget+0x128>)
    51bc:	f44f 722a 	mov.w	r2, #680	; 0x2a8
    51c0:	4919      	ldr	r1, [pc, #100]	; (5228 <bget+0x12c>)
    51c2:	481a      	ldr	r0, [pc, #104]	; (522c <bget+0x130>)
    51c4:	447b      	add	r3, pc
    51c6:	3312      	adds	r3, #18
    51c8:	4479      	add	r1, pc
    51ca:	4478      	add	r0, pc
    51cc:	e7a2      	b.n	5114 <bget+0x18>
/media/wen/My_Passport/Raspbian/raspbian-tee/raspbian-tee/optee_os/lib/libutils/isoc/bget.c:681
    51ce:	609c      	str	r4, [r3, #8]
/media/wen/My_Passport/Raspbian/raspbian-tee/raspbian-tee/optee_os/lib/libutils/isoc/bget.c:696
    51d0:	3008      	adds	r0, #8
/media/wen/My_Passport/Raspbian/raspbian-tee/raspbian-tee/optee_os/lib/libutils/isoc/bget.c:682
    51d2:	6804      	ldr	r4, [r0, #0]
    51d4:	60e3      	str	r3, [r4, #12]
/media/wen/My_Passport/Raspbian/raspbian-tee/raspbian-tee/optee_os/lib/libutils/isoc/bget.c:685
    51d6:	690b      	ldr	r3, [r1, #16]
    51d8:	4413      	add	r3, r2
/media/wen/My_Passport/Raspbian/raspbian-tee/raspbian-tee/optee_os/lib/libutils/isoc/bget.c:689
    51da:	4252      	negs	r2, r2
/media/wen/My_Passport/Raspbian/raspbian-tee/raspbian-tee/optee_os/lib/libutils/isoc/bget.c:685
    51dc:	610b      	str	r3, [r1, #16]
/media/wen/My_Passport/Raspbian/raspbian-tee/raspbian-tee/optee_os/lib/libutils/isoc/bget.c:686
    51de:	694b      	ldr	r3, [r1, #20]
    51e0:	3301      	adds	r3, #1
    51e2:	614b      	str	r3, [r1, #20]
/media/wen/My_Passport/Raspbian/raspbian-tee/raspbian-tee/optee_os/lib/libutils/isoc/bget.c:693
    51e4:	2300      	movs	r3, #0
/media/wen/My_Passport/Raspbian/raspbian-tee/raspbian-tee/optee_os/lib/libutils/isoc/bget.c:689
    51e6:	f840 2c04 	str.w	r2, [r0, #-4]
/media/wen/My_Passport/Raspbian/raspbian-tee/raspbian-tee/optee_os/lib/libutils/isoc/bget.c:693
    51ea:	602b      	str	r3, [r5, #0]
/media/wen/My_Passport/Raspbian/raspbian-tee/raspbian-tee/optee_os/lib/libutils/isoc/bget.c:698
    51ec:	bd70      	pop	{r4, r5, r6, pc}
/media/wen/My_Passport/Raspbian/raspbian-tee/raspbian-tee/optee_os/lib/libutils/isoc/bget.c:701
    51ee:	6880      	ldr	r0, [r0, #8]
    51f0:	e79c      	b.n	512c <bget+0x30>
    51f2:	bf00      	nop
    51f4:	0000195a 	.word	0x0000195a
    51f8:	00001ab2 	.word	0x00001ab2
    51fc:	00001ca7 	.word	0x00001ca7
    5200:	00001914 	.word	0x00001914
    5204:	00001a6c 	.word	0x00001a6c
    5208:	00001a83 	.word	0x00001a83
    520c:	000018da 	.word	0x000018da
    5210:	00001a32 	.word	0x00001a32
    5214:	00001a65 	.word	0x00001a65
    5218:	000018be 	.word	0x000018be
    521c:	00001a16 	.word	0x00001a16
    5220:	00001a65 	.word	0x00001a65
    5224:	000018a2 	.word	0x000018a2
    5228:	000019fa 	.word	0x000019fa
    522c:	00001a64 	.word	0x00001a64

00005230 <raw_malloc.constprop.15>:
raw_malloc():
/media/wen/My_Passport/Raspbian/raspbian-tee/raspbian-tee/optee_os/lib/libutils/isoc/bget_malloc.c:288
    5230:	b538      	push	{r3, r4, r5, lr}
/media/wen/My_Passport/Raspbian/raspbian-tee/raspbian-tee/optee_os/lib/libutils/isoc/bget_malloc.c:304
    5232:	1e05      	subs	r5, r0, #0
    5234:	db12      	blt.n	525c <raw_malloc.constprop.15+0x2c>
/media/wen/My_Passport/Raspbian/raspbian-tee/raspbian-tee/optee_os/lib/libutils/isoc/bget_malloc.c:313
    5236:	490a      	ldr	r1, [pc, #40]	; (5260 <raw_malloc.constprop.15+0x30>)
    5238:	4628      	mov	r0, r5
    523a:	bf18      	it	ne
    523c:	4628      	movne	r0, r5
    523e:	bf08      	it	eq
    5240:	2001      	moveq	r0, #1
    5242:	4479      	add	r1, pc
    5244:	f7ff ff5a 	bl	50fc <bget>
    5248:	4604      	mov	r4, r0
/media/wen/My_Passport/Raspbian/raspbian-tee/raspbian-tee/optee_os/lib/libutils/isoc/bget_malloc.c:315
    524a:	4b06      	ldr	r3, [pc, #24]	; (5264 <raw_malloc.constprop.15+0x34>)
    524c:	4620      	mov	r0, r4
    524e:	4629      	mov	r1, r5
    5250:	447b      	add	r3, pc
    5252:	691a      	ldr	r2, [r3, #16]
    5254:	f7ff fece 	bl	4ff4 <raw_malloc_return_hook.isra.3>
/media/wen/My_Passport/Raspbian/raspbian-tee/raspbian-tee/optee_os/lib/libutils/isoc/bget_malloc.c:318
    5258:	4620      	mov	r0, r4
    525a:	bd38      	pop	{r3, r4, r5, pc}
/media/wen/My_Passport/Raspbian/raspbian-tee/raspbian-tee/optee_os/lib/libutils/isoc/bget_malloc.c:291
    525c:	2400      	movs	r4, #0
    525e:	e7f4      	b.n	524a <raw_malloc.constprop.15+0x1a>
    5260:	00002e2e 	.word	0x00002e2e
    5264:	00002e20 	.word	0x00002e20

00005268 <bgetz>:
bgetz():
/media/wen/My_Passport/Raspbian/raspbian-tee/raspbian-tee/optee_os/lib/libutils/isoc/bget.c:774
    5268:	b538      	push	{r3, r4, r5, lr}
    526a:	4605      	mov	r5, r0
/media/wen/My_Passport/Raspbian/raspbian-tee/raspbian-tee/optee_os/lib/libutils/isoc/bget.c:775
    526c:	f7ff ff46 	bl	50fc <bget>
/media/wen/My_Passport/Raspbian/raspbian-tee/raspbian-tee/optee_os/lib/libutils/isoc/bget.c:777
    5270:	4604      	mov	r4, r0
    5272:	b1f0      	cbz	r0, 52b2 <bgetz+0x4a>
/media/wen/My_Passport/Raspbian/raspbian-tee/raspbian-tee/optee_os/lib/libutils/isoc/bget.c:782
    5274:	f850 2c04 	ldr.w	r2, [r0, #-4]
/media/wen/My_Passport/Raspbian/raspbian-tee/raspbian-tee/optee_os/lib/libutils/isoc/bget.c:783
    5278:	b98a      	cbnz	r2, 529e <bgetz+0x36>
/media/wen/My_Passport/Raspbian/raspbian-tee/raspbian-tee/optee_os/lib/libutils/isoc/bget.c:787
    527a:	f850 2c0c 	ldr.w	r2, [r0, #-12]
    527e:	3a0c      	subs	r2, #12
/media/wen/My_Passport/Raspbian/raspbian-tee/raspbian-tee/optee_os/lib/libutils/isoc/bget.c:791
    5280:	42aa      	cmp	r2, r5
    5282:	da12      	bge.n	52aa <bgetz+0x42>
    5284:	4b0c      	ldr	r3, [pc, #48]	; (52b8 <bgetz+0x50>)
    5286:	f240 3217 	movw	r2, #791	; 0x317
    528a:	490c      	ldr	r1, [pc, #48]	; (52bc <bgetz+0x54>)
    528c:	480c      	ldr	r0, [pc, #48]	; (52c0 <bgetz+0x58>)
    528e:	447b      	add	r3, pc
    5290:	3317      	adds	r3, #23
    5292:	4479      	add	r1, pc
    5294:	4478      	add	r0, pc
    5296:	f000 fd0b 	bl	5cb0 <_assert_log>
    529a:	f000 fd1d 	bl	5cd8 <_assert_break>
/media/wen/My_Passport/Raspbian/raspbian-tee/raspbian-tee/optee_os/lib/libutils/isoc/bget.c:789
    529e:	f1c2 22ff 	rsb	r2, r2, #4278255360	; 0xff00ff00
    52a2:	f502 027f 	add.w	r2, r2, #16711680	; 0xff0000
    52a6:	32f8      	adds	r2, #248	; 0xf8
    52a8:	e7ea      	b.n	5280 <bgetz+0x18>
memset_unchecked():
/media/wen/My_Passport/Raspbian/raspbian-tee/raspbian-tee/optee_os/lib/libutils/isoc/bget_malloc.c:141
    52aa:	2100      	movs	r1, #0
    52ac:	4620      	mov	r0, r4
    52ae:	f000 fd28 	bl	5d02 <memset>
bgetz():
/media/wen/My_Passport/Raspbian/raspbian-tee/raspbian-tee/optee_os/lib/libutils/isoc/bget.c:795
    52b2:	4620      	mov	r0, r4
    52b4:	bd38      	pop	{r3, r4, r5, pc}
    52b6:	bf00      	nop
    52b8:	000017d8 	.word	0x000017d8
    52bc:	00001930 	.word	0x00001930
    52c0:	000019b5 	.word	0x000019b5

000052c4 <brel>:
brel():
/media/wen/My_Passport/Raspbian/raspbian-tee/raspbian-tee/optee_os/lib/libutils/isoc/bget.c:852
    52c4:	698a      	ldr	r2, [r1, #24]
/media/wen/My_Passport/Raspbian/raspbian-tee/raspbian-tee/optee_os/lib/libutils/isoc/bget.c:850
    52c6:	f1a0 0308 	sub.w	r3, r0, #8
/media/wen/My_Passport/Raspbian/raspbian-tee/raspbian-tee/optee_os/lib/libutils/isoc/bget.c:846
    52ca:	b570      	push	{r4, r5, r6, lr}
/media/wen/My_Passport/Raspbian/raspbian-tee/raspbian-tee/optee_os/lib/libutils/isoc/bget.c:852
    52cc:	3201      	adds	r2, #1
    52ce:	618a      	str	r2, [r1, #24]
/media/wen/My_Passport/Raspbian/raspbian-tee/raspbian-tee/optee_os/lib/libutils/isoc/bget.c:854
    52d0:	b960      	cbnz	r0, 52ec <brel+0x28>
/media/wen/My_Passport/Raspbian/raspbian-tee/raspbian-tee/optee_os/lib/libutils/isoc/bget.c:854 (discriminator 1)
    52d2:	4b59      	ldr	r3, [pc, #356]	; (5438 <brel+0x174>)
    52d4:	f240 3256 	movw	r2, #854	; 0x356
    52d8:	4958      	ldr	r1, [pc, #352]	; (543c <brel+0x178>)
    52da:	4859      	ldr	r0, [pc, #356]	; (5440 <brel+0x17c>)
    52dc:	447b      	add	r3, pc
    52de:	331d      	adds	r3, #29
    52e0:	4479      	add	r1, pc
    52e2:	4478      	add	r0, pc
/media/wen/My_Passport/Raspbian/raspbian-tee/raspbian-tee/optee_os/lib/libutils/isoc/bget.c:885 (discriminator 1)
    52e4:	f000 fce4 	bl	5cb0 <_assert_log>
    52e8:	f000 fcf6 	bl	5cd8 <_assert_break>
/media/wen/My_Passport/Raspbian/raspbian-tee/raspbian-tee/optee_os/lib/libutils/isoc/bget.c:882
    52ec:	f850 2c04 	ldr.w	r2, [r0, #-4]
/media/wen/My_Passport/Raspbian/raspbian-tee/raspbian-tee/optee_os/lib/libutils/isoc/bget.c:885
    52f0:	2a00      	cmp	r2, #0
    52f2:	db09      	blt.n	5308 <brel+0x44>
/media/wen/My_Passport/Raspbian/raspbian-tee/raspbian-tee/optee_os/lib/libutils/isoc/bget.c:885 (discriminator 1)
    52f4:	4b53      	ldr	r3, [pc, #332]	; (5444 <brel+0x180>)
    52f6:	f240 3275 	movw	r2, #885	; 0x375
    52fa:	4953      	ldr	r1, [pc, #332]	; (5448 <brel+0x184>)
    52fc:	4853      	ldr	r0, [pc, #332]	; (544c <brel+0x188>)
    52fe:	447b      	add	r3, pc
    5300:	331d      	adds	r3, #29
    5302:	4479      	add	r1, pc
    5304:	4478      	add	r0, pc
    5306:	e7ed      	b.n	52e4 <brel+0x20>
/media/wen/My_Passport/Raspbian/raspbian-tee/raspbian-tee/optee_os/lib/libutils/isoc/bget.c:891
    5308:	1a9c      	subs	r4, r3, r2
    530a:	6824      	ldr	r4, [r4, #0]
    530c:	b14c      	cbz	r4, 5322 <brel+0x5e>
/media/wen/My_Passport/Raspbian/raspbian-tee/raspbian-tee/optee_os/lib/libutils/isoc/bget.c:891 (discriminator 1)
    530e:	4b50      	ldr	r3, [pc, #320]	; (5450 <brel+0x18c>)
    5310:	f240 327b 	movw	r2, #891	; 0x37b
    5314:	494f      	ldr	r1, [pc, #316]	; (5454 <brel+0x190>)
    5316:	4850      	ldr	r0, [pc, #320]	; (5458 <brel+0x194>)
    5318:	447b      	add	r3, pc
    531a:	331d      	adds	r3, #29
    531c:	4479      	add	r1, pc
    531e:	4478      	add	r0, pc
    5320:	e7e0      	b.n	52e4 <brel+0x20>
/media/wen/My_Passport/Raspbian/raspbian-tee/raspbian-tee/optee_os/lib/libutils/isoc/bget.c:894
    5322:	690c      	ldr	r4, [r1, #16]
    5324:	4414      	add	r4, r2
/media/wen/My_Passport/Raspbian/raspbian-tee/raspbian-tee/optee_os/lib/libutils/isoc/bget.c:895
    5326:	2c00      	cmp	r4, #0
/media/wen/My_Passport/Raspbian/raspbian-tee/raspbian-tee/optee_os/lib/libutils/isoc/bget.c:894
    5328:	610c      	str	r4, [r1, #16]
/media/wen/My_Passport/Raspbian/raspbian-tee/raspbian-tee/optee_os/lib/libutils/isoc/bget.c:895
    532a:	da09      	bge.n	5340 <brel+0x7c>
/media/wen/My_Passport/Raspbian/raspbian-tee/raspbian-tee/optee_os/lib/libutils/isoc/bget.c:895 (discriminator 1)
    532c:	4b4b      	ldr	r3, [pc, #300]	; (545c <brel+0x198>)
    532e:	f240 327f 	movw	r2, #895	; 0x37f
    5332:	494b      	ldr	r1, [pc, #300]	; (5460 <brel+0x19c>)
    5334:	484b      	ldr	r0, [pc, #300]	; (5464 <brel+0x1a0>)
    5336:	447b      	add	r3, pc
    5338:	331d      	adds	r3, #29
    533a:	4479      	add	r1, pc
    533c:	4478      	add	r0, pc
    533e:	e7d1      	b.n	52e4 <brel+0x20>
/media/wen/My_Passport/Raspbian/raspbian-tee/raspbian-tee/optee_os/lib/libutils/isoc/bget.c:900
    5340:	f850 4c08 	ldr.w	r4, [r0, #-8]
    5344:	b30c      	cbz	r4, 538a <brel+0xc6>
/media/wen/My_Passport/Raspbian/raspbian-tee/raspbian-tee/optee_os/lib/libutils/isoc/bget.c:911
    5346:	1b1b      	subs	r3, r3, r4
    5348:	6859      	ldr	r1, [r3, #4]
    534a:	428c      	cmp	r4, r1
    534c:	d009      	beq.n	5362 <brel+0x9e>
/media/wen/My_Passport/Raspbian/raspbian-tee/raspbian-tee/optee_os/lib/libutils/isoc/bget.c:911 (discriminator 1)
    534e:	4b46      	ldr	r3, [pc, #280]	; (5468 <brel+0x1a4>)
    5350:	f240 328f 	movw	r2, #911	; 0x38f
    5354:	4945      	ldr	r1, [pc, #276]	; (546c <brel+0x1a8>)
    5356:	4846      	ldr	r0, [pc, #280]	; (5470 <brel+0x1ac>)
    5358:	447b      	add	r3, pc
    535a:	331d      	adds	r3, #29
    535c:	4479      	add	r1, pc
    535e:	4478      	add	r0, pc
    5360:	e7c0      	b.n	52e4 <brel+0x20>
/media/wen/My_Passport/Raspbian/raspbian-tee/raspbian-tee/optee_os/lib/libutils/isoc/bget.c:913
    5362:	1aa2      	subs	r2, r4, r2
    5364:	605a      	str	r2, [r3, #4]
/media/wen/My_Passport/Raspbian/raspbian-tee/raspbian-tee/optee_os/lib/libutils/isoc/bget.c:933
    5366:	6859      	ldr	r1, [r3, #4]
    5368:	185a      	adds	r2, r3, r1
/media/wen/My_Passport/Raspbian/raspbian-tee/raspbian-tee/optee_os/lib/libutils/isoc/bget.c:934
    536a:	6850      	ldr	r0, [r2, #4]
    536c:	2800      	cmp	r0, #0
    536e:	dd53      	ble.n	5418 <brel+0x154>
/media/wen/My_Passport/Raspbian/raspbian-tee/raspbian-tee/optee_os/lib/libutils/isoc/bget.c:939
    5370:	5814      	ldr	r4, [r2, r0]
    5372:	42a0      	cmp	r0, r4
    5374:	d02e      	beq.n	53d4 <brel+0x110>
/media/wen/My_Passport/Raspbian/raspbian-tee/raspbian-tee/optee_os/lib/libutils/isoc/bget.c:939 (discriminator 1)
    5376:	4b3f      	ldr	r3, [pc, #252]	; (5474 <brel+0x1b0>)
    5378:	f240 32ab 	movw	r2, #939	; 0x3ab
    537c:	493e      	ldr	r1, [pc, #248]	; (5478 <brel+0x1b4>)
    537e:	483f      	ldr	r0, [pc, #252]	; (547c <brel+0x1b8>)
    5380:	447b      	add	r3, pc
    5382:	331d      	adds	r3, #29
    5384:	4479      	add	r1, pc
    5386:	4478      	add	r0, pc
    5388:	e7ac      	b.n	52e4 <brel+0x20>
/media/wen/My_Passport/Raspbian/raspbian-tee/raspbian-tee/optee_os/lib/libutils/isoc/bget.c:919
    538a:	68cd      	ldr	r5, [r1, #12]
    538c:	68ac      	ldr	r4, [r5, #8]
    538e:	428c      	cmp	r4, r1
    5390:	d009      	beq.n	53a6 <brel+0xe2>
/media/wen/My_Passport/Raspbian/raspbian-tee/raspbian-tee/optee_os/lib/libutils/isoc/bget.c:919 (discriminator 1)
    5392:	4b3b      	ldr	r3, [pc, #236]	; (5480 <brel+0x1bc>)
    5394:	f240 3297 	movw	r2, #919	; 0x397
    5398:	493a      	ldr	r1, [pc, #232]	; (5484 <brel+0x1c0>)
    539a:	483b      	ldr	r0, [pc, #236]	; (5488 <brel+0x1c4>)
    539c:	447b      	add	r3, pc
    539e:	331d      	adds	r3, #29
    53a0:	4479      	add	r1, pc
    53a2:	4478      	add	r0, pc
    53a4:	e79e      	b.n	52e4 <brel+0x20>
/media/wen/My_Passport/Raspbian/raspbian-tee/raspbian-tee/optee_os/lib/libutils/isoc/bget.c:920
    53a6:	68a1      	ldr	r1, [r4, #8]
    53a8:	68c9      	ldr	r1, [r1, #12]
    53aa:	428c      	cmp	r4, r1
    53ac:	d009      	beq.n	53c2 <brel+0xfe>
/media/wen/My_Passport/Raspbian/raspbian-tee/raspbian-tee/optee_os/lib/libutils/isoc/bget.c:920 (discriminator 1)
    53ae:	4b37      	ldr	r3, [pc, #220]	; (548c <brel+0x1c8>)
    53b0:	f44f 7266 	mov.w	r2, #920	; 0x398
    53b4:	4936      	ldr	r1, [pc, #216]	; (5490 <brel+0x1cc>)
    53b6:	4837      	ldr	r0, [pc, #220]	; (5494 <brel+0x1d0>)
    53b8:	447b      	add	r3, pc
    53ba:	331d      	adds	r3, #29
    53bc:	4479      	add	r1, pc
    53be:	4478      	add	r0, pc
    53c0:	e790      	b.n	52e4 <brel+0x20>
/media/wen/My_Passport/Raspbian/raspbian-tee/raspbian-tee/optee_os/lib/libutils/isoc/bget.c:922
    53c2:	e880 0030 	stmia.w	r0, {r4, r5}
/media/wen/My_Passport/Raspbian/raspbian-tee/raspbian-tee/optee_os/lib/libutils/isoc/bget.c:886
    53c6:	4252      	negs	r2, r2
/media/wen/My_Passport/Raspbian/raspbian-tee/raspbian-tee/optee_os/lib/libutils/isoc/bget.c:923
    53c8:	60e3      	str	r3, [r4, #12]
/media/wen/My_Passport/Raspbian/raspbian-tee/raspbian-tee/optee_os/lib/libutils/isoc/bget.c:924
    53ca:	6841      	ldr	r1, [r0, #4]
    53cc:	608b      	str	r3, [r1, #8]
/media/wen/My_Passport/Raspbian/raspbian-tee/raspbian-tee/optee_os/lib/libutils/isoc/bget.c:925
    53ce:	f840 2c04 	str.w	r2, [r0, #-4]
    53d2:	e7c8      	b.n	5366 <brel+0xa2>
/media/wen/My_Passport/Raspbian/raspbian-tee/raspbian-tee/optee_os/lib/libutils/isoc/bget.c:940
    53d4:	68d4      	ldr	r4, [r2, #12]
    53d6:	68a5      	ldr	r5, [r4, #8]
    53d8:	42aa      	cmp	r2, r5
    53da:	d009      	beq.n	53f0 <brel+0x12c>
/media/wen/My_Passport/Raspbian/raspbian-tee/raspbian-tee/optee_os/lib/libutils/isoc/bget.c:940 (discriminator 1)
    53dc:	4b2e      	ldr	r3, [pc, #184]	; (5498 <brel+0x1d4>)
    53de:	f44f 726b 	mov.w	r2, #940	; 0x3ac
    53e2:	492e      	ldr	r1, [pc, #184]	; (549c <brel+0x1d8>)
    53e4:	482e      	ldr	r0, [pc, #184]	; (54a0 <brel+0x1dc>)
    53e6:	447b      	add	r3, pc
    53e8:	331d      	adds	r3, #29
    53ea:	4479      	add	r1, pc
    53ec:	4478      	add	r0, pc
    53ee:	e779      	b.n	52e4 <brel+0x20>
/media/wen/My_Passport/Raspbian/raspbian-tee/raspbian-tee/optee_os/lib/libutils/isoc/bget.c:941
    53f0:	6895      	ldr	r5, [r2, #8]
    53f2:	68ee      	ldr	r6, [r5, #12]
    53f4:	42b2      	cmp	r2, r6
    53f6:	d009      	beq.n	540c <brel+0x148>
/media/wen/My_Passport/Raspbian/raspbian-tee/raspbian-tee/optee_os/lib/libutils/isoc/bget.c:941 (discriminator 1)
    53f8:	4b2a      	ldr	r3, [pc, #168]	; (54a4 <brel+0x1e0>)
    53fa:	f240 32ad 	movw	r2, #941	; 0x3ad
    53fe:	492a      	ldr	r1, [pc, #168]	; (54a8 <brel+0x1e4>)
    5400:	482a      	ldr	r0, [pc, #168]	; (54ac <brel+0x1e8>)
    5402:	447b      	add	r3, pc
    5404:	331d      	adds	r3, #29
    5406:	4479      	add	r1, pc
    5408:	4478      	add	r0, pc
    540a:	e76b      	b.n	52e4 <brel+0x20>
/media/wen/My_Passport/Raspbian/raspbian-tee/raspbian-tee/optee_os/lib/libutils/isoc/bget.c:942
    540c:	60a5      	str	r5, [r4, #8]
/media/wen/My_Passport/Raspbian/raspbian-tee/raspbian-tee/optee_os/lib/libutils/isoc/bget.c:943
    540e:	6892      	ldr	r2, [r2, #8]
    5410:	60d4      	str	r4, [r2, #12]
/media/wen/My_Passport/Raspbian/raspbian-tee/raspbian-tee/optee_os/lib/libutils/isoc/bget.c:944
    5412:	180a      	adds	r2, r1, r0
    5414:	605a      	str	r2, [r3, #4]
/media/wen/My_Passport/Raspbian/raspbian-tee/raspbian-tee/optee_os/lib/libutils/isoc/bget.c:953
    5416:	441a      	add	r2, r3
/media/wen/My_Passport/Raspbian/raspbian-tee/raspbian-tee/optee_os/lib/libutils/isoc/bget.c:959
    5418:	6851      	ldr	r1, [r2, #4]
    541a:	2900      	cmp	r1, #0
    541c:	db09      	blt.n	5432 <brel+0x16e>
/media/wen/My_Passport/Raspbian/raspbian-tee/raspbian-tee/optee_os/lib/libutils/isoc/bget.c:959 (discriminator 1)
    541e:	4b24      	ldr	r3, [pc, #144]	; (54b0 <brel+0x1ec>)
    5420:	f240 32bf 	movw	r2, #959	; 0x3bf
    5424:	4923      	ldr	r1, [pc, #140]	; (54b4 <brel+0x1f0>)
    5426:	4824      	ldr	r0, [pc, #144]	; (54b8 <brel+0x1f4>)
    5428:	447b      	add	r3, pc
    542a:	331d      	adds	r3, #29
    542c:	4479      	add	r1, pc
    542e:	4478      	add	r0, pc
    5430:	e758      	b.n	52e4 <brel+0x20>
/media/wen/My_Passport/Raspbian/raspbian-tee/raspbian-tee/optee_os/lib/libutils/isoc/bget.c:964
    5432:	685b      	ldr	r3, [r3, #4]
    5434:	6013      	str	r3, [r2, #0]
    5436:	bd70      	pop	{r4, r5, r6, pc}
    5438:	0000178a 	.word	0x0000178a
    543c:	000018e2 	.word	0x000018e2
    5440:	00001975 	.word	0x00001975
    5444:	00001768 	.word	0x00001768
    5448:	000018c0 	.word	0x000018c0
    544c:	0000195f 	.word	0x0000195f
    5450:	0000174e 	.word	0x0000174e
    5454:	000018a6 	.word	0x000018a6
    5458:	00001955 	.word	0x00001955
    545c:	00001730 	.word	0x00001730
    5460:	00001888 	.word	0x00001888
    5464:	00001963 	.word	0x00001963
    5468:	0000170e 	.word	0x0000170e
    546c:	00001866 	.word	0x00001866
    5470:	00001958 	.word	0x00001958
    5474:	000016e6 	.word	0x000016e6
    5478:	0000183e 	.word	0x0000183e
    547c:	00001969 	.word	0x00001969
    5480:	000016ca 	.word	0x000016ca
    5484:	00001822 	.word	0x00001822
    5488:	000017aa 	.word	0x000017aa
    548c:	000016ae 	.word	0x000016ae
    5490:	00001806 	.word	0x00001806
    5494:	000017c9 	.word	0x000017c9
    5498:	00001680 	.word	0x00001680
    549c:	000017d8 	.word	0x000017d8
    54a0:	0000193c 	.word	0x0000193c
    54a4:	00001664 	.word	0x00001664
    54a8:	000017bc 	.word	0x000017bc
    54ac:	0000193d 	.word	0x0000193d
    54b0:	0000163e 	.word	0x0000163e
    54b4:	00001796 	.word	0x00001796
    54b8:	00001934 	.word	0x00001934

000054bc <bgetr>:
bgetr():
/media/wen/My_Passport/Raspbian/raspbian-tee/raspbian-tee/optee_os/lib/libutils/isoc/bget.c:806
    54bc:	e92d 41f0 	stmdb	sp!, {r4, r5, r6, r7, r8, lr}
    54c0:	460e      	mov	r6, r1
    54c2:	4605      	mov	r5, r0
/media/wen/My_Passport/Raspbian/raspbian-tee/raspbian-tee/optee_os/lib/libutils/isoc/bget.c:811
    54c4:	4611      	mov	r1, r2
    54c6:	4630      	mov	r0, r6
/media/wen/My_Passport/Raspbian/raspbian-tee/raspbian-tee/optee_os/lib/libutils/isoc/bget.c:806
    54c8:	4690      	mov	r8, r2
/media/wen/My_Passport/Raspbian/raspbian-tee/raspbian-tee/optee_os/lib/libutils/isoc/bget.c:811
    54ca:	f7ff fe17 	bl	50fc <bget>
    54ce:	4607      	mov	r7, r0
    54d0:	b340      	cbz	r0, 5524 <bgetr+0x68>
/media/wen/My_Passport/Raspbian/raspbian-tee/raspbian-tee/optee_os/lib/libutils/isoc/bget.c:814
    54d2:	b33d      	cbz	r5, 5524 <bgetr+0x68>
/media/wen/My_Passport/Raspbian/raspbian-tee/raspbian-tee/optee_os/lib/libutils/isoc/bget.c:828
    54d4:	f855 4c04 	ldr.w	r4, [r5, #-4]
    54d8:	f1c4 24ff 	rsb	r4, r4, #4278255360	; 0xff00ff00
    54dc:	f504 047f 	add.w	r4, r4, #16711680	; 0xff0000
    54e0:	34f8      	adds	r4, #248	; 0xf8
/media/wen/My_Passport/Raspbian/raspbian-tee/raspbian-tee/optee_os/lib/libutils/isoc/bget.c:829
    54e2:	2c00      	cmp	r4, #0
    54e4:	dc0c      	bgt.n	5500 <bgetr+0x44>
    54e6:	4b11      	ldr	r3, [pc, #68]	; (552c <bgetr+0x70>)
    54e8:	f240 323d 	movw	r2, #829	; 0x33d
    54ec:	4910      	ldr	r1, [pc, #64]	; (5530 <bgetr+0x74>)
    54ee:	4811      	ldr	r0, [pc, #68]	; (5534 <bgetr+0x78>)
    54f0:	447b      	add	r3, pc
    54f2:	3322      	adds	r3, #34	; 0x22
    54f4:	4479      	add	r1, pc
    54f6:	4478      	add	r0, pc
    54f8:	f000 fbda 	bl	5cb0 <_assert_log>
    54fc:	f000 fbec 	bl	5cd8 <_assert_break>
/media/wen/My_Passport/Raspbian/raspbian-tee/raspbian-tee/optee_os/lib/libutils/isoc/bget.c:830
    5500:	42a6      	cmp	r6, r4
    5502:	4632      	mov	r2, r6
    5504:	4629      	mov	r1, r5
    5506:	bfa8      	it	ge
    5508:	4622      	movge	r2, r4
    550a:	f000 fbef 	bl	5cec <memcpy>
/media/wen/My_Passport/Raspbian/raspbian-tee/raspbian-tee/optee_os/lib/libutils/isoc/bget.c:834
    550e:	42a6      	cmp	r6, r4
    5510:	dd04      	ble.n	551c <bgetr+0x60>
/media/wen/My_Passport/Raspbian/raspbian-tee/raspbian-tee/optee_os/lib/libutils/isoc/bget.c:835
    5512:	1b32      	subs	r2, r6, r4
    5514:	2100      	movs	r1, #0
    5516:	1938      	adds	r0, r7, r4
    5518:	f000 fbf3 	bl	5d02 <memset>
/media/wen/My_Passport/Raspbian/raspbian-tee/raspbian-tee/optee_os/lib/libutils/isoc/bget.c:837
    551c:	4641      	mov	r1, r8
    551e:	4628      	mov	r0, r5
    5520:	f7ff fed0 	bl	52c4 <brel>
/media/wen/My_Passport/Raspbian/raspbian-tee/raspbian-tee/optee_os/lib/libutils/isoc/bget.c:839
    5524:	4638      	mov	r0, r7
    5526:	e8bd 81f0 	ldmia.w	sp!, {r4, r5, r6, r7, r8, pc}
    552a:	bf00      	nop
    552c:	00001576 	.word	0x00001576
    5530:	000016ce 	.word	0x000016ce
    5534:	0000187d 	.word	0x0000187d

00005538 <bpool>:
bpool():
/media/wen/My_Passport/Raspbian/raspbian-tee/raspbian-tee/optee_os/lib/libutils/isoc/bget.c:1023
    5538:	f021 0107 	bic.w	r1, r1, #7
/media/wen/My_Passport/Raspbian/raspbian-tee/raspbian-tee/optee_os/lib/libutils/isoc/bget.c:1018
    553c:	b510      	push	{r4, lr}
/media/wen/My_Passport/Raspbian/raspbian-tee/raspbian-tee/optee_os/lib/libutils/isoc/bget.c:1042
    553e:	3908      	subs	r1, #8
    5540:	d50c      	bpl.n	555c <bpool+0x24>
    5542:	4b1b      	ldr	r3, [pc, #108]	; (55b0 <bpool+0x78>)
    5544:	f240 4212 	movw	r2, #1042	; 0x412
    5548:	491a      	ldr	r1, [pc, #104]	; (55b4 <bpool+0x7c>)
    554a:	481b      	ldr	r0, [pc, #108]	; (55b8 <bpool+0x80>)
    554c:	447b      	add	r3, pc
    554e:	3328      	adds	r3, #40	; 0x28
    5550:	4479      	add	r1, pc
    5552:	4478      	add	r0, pc
/media/wen/My_Passport/Raspbian/raspbian-tee/raspbian-tee/optee_os/lib/libutils/isoc/bget.c:1052 (discriminator 1)
    5554:	f000 fbac 	bl	5cb0 <_assert_log>
    5558:	f000 fbbe 	bl	5cd8 <_assert_break>
/media/wen/My_Passport/Raspbian/raspbian-tee/raspbian-tee/optee_os/lib/libutils/isoc/bget.c:1052
    555c:	68d4      	ldr	r4, [r2, #12]
/media/wen/My_Passport/Raspbian/raspbian-tee/raspbian-tee/optee_os/lib/libutils/isoc/bget.c:1048
    555e:	2300      	movs	r3, #0
    5560:	6003      	str	r3, [r0, #0]
/media/wen/My_Passport/Raspbian/raspbian-tee/raspbian-tee/optee_os/lib/libutils/isoc/bget.c:1052
    5562:	68a3      	ldr	r3, [r4, #8]
    5564:	4293      	cmp	r3, r2
    5566:	d009      	beq.n	557c <bpool+0x44>
/media/wen/My_Passport/Raspbian/raspbian-tee/raspbian-tee/optee_os/lib/libutils/isoc/bget.c:1052 (discriminator 1)
    5568:	4b14      	ldr	r3, [pc, #80]	; (55bc <bpool+0x84>)
    556a:	f240 421c 	movw	r2, #1052	; 0x41c
    556e:	4914      	ldr	r1, [pc, #80]	; (55c0 <bpool+0x88>)
    5570:	4814      	ldr	r0, [pc, #80]	; (55c4 <bpool+0x8c>)
    5572:	447b      	add	r3, pc
    5574:	3328      	adds	r3, #40	; 0x28
    5576:	4479      	add	r1, pc
    5578:	4478      	add	r0, pc
    557a:	e7eb      	b.n	5554 <bpool+0x1c>
/media/wen/My_Passport/Raspbian/raspbian-tee/raspbian-tee/optee_os/lib/libutils/isoc/bget.c:1053
    557c:	689a      	ldr	r2, [r3, #8]
    557e:	68d2      	ldr	r2, [r2, #12]
    5580:	4293      	cmp	r3, r2
    5582:	d009      	beq.n	5598 <bpool+0x60>
/media/wen/My_Passport/Raspbian/raspbian-tee/raspbian-tee/optee_os/lib/libutils/isoc/bget.c:1053 (discriminator 1)
    5584:	4b10      	ldr	r3, [pc, #64]	; (55c8 <bpool+0x90>)
    5586:	f240 421d 	movw	r2, #1053	; 0x41d
    558a:	4910      	ldr	r1, [pc, #64]	; (55cc <bpool+0x94>)
    558c:	4810      	ldr	r0, [pc, #64]	; (55d0 <bpool+0x98>)
    558e:	447b      	add	r3, pc
    5590:	3328      	adds	r3, #40	; 0x28
    5592:	4479      	add	r1, pc
    5594:	4478      	add	r0, pc
    5596:	e7dd      	b.n	5554 <bpool+0x1c>
/media/wen/My_Passport/Raspbian/raspbian-tee/raspbian-tee/optee_os/lib/libutils/isoc/bget.c:1054
    5598:	6083      	str	r3, [r0, #8]
/media/wen/My_Passport/Raspbian/raspbian-tee/raspbian-tee/optee_os/lib/libutils/isoc/bget.c:1077
    559a:	f04f 4200 	mov.w	r2, #2147483648	; 0x80000000
/media/wen/My_Passport/Raspbian/raspbian-tee/raspbian-tee/optee_os/lib/libutils/isoc/bget.c:1055
    559e:	60c4      	str	r4, [r0, #12]
/media/wen/My_Passport/Raspbian/raspbian-tee/raspbian-tee/optee_os/lib/libutils/isoc/bget.c:1056
    55a0:	60d8      	str	r0, [r3, #12]
/media/wen/My_Passport/Raspbian/raspbian-tee/raspbian-tee/optee_os/lib/libutils/isoc/bget.c:1057
    55a2:	68c3      	ldr	r3, [r0, #12]
    55a4:	6098      	str	r0, [r3, #8]
/media/wen/My_Passport/Raspbian/raspbian-tee/raspbian-tee/optee_os/lib/libutils/isoc/bget.c:1073
    55a6:	1843      	adds	r3, r0, r1
/media/wen/My_Passport/Raspbian/raspbian-tee/raspbian-tee/optee_os/lib/libutils/isoc/bget.c:1068
    55a8:	6041      	str	r1, [r0, #4]
/media/wen/My_Passport/Raspbian/raspbian-tee/raspbian-tee/optee_os/lib/libutils/isoc/bget.c:1074
    55aa:	5041      	str	r1, [r0, r1]
/media/wen/My_Passport/Raspbian/raspbian-tee/raspbian-tee/optee_os/lib/libutils/isoc/bget.c:1077
    55ac:	605a      	str	r2, [r3, #4]
    55ae:	bd10      	pop	{r4, pc}
    55b0:	0000151a 	.word	0x0000151a
    55b4:	00001672 	.word	0x00001672
    55b8:	0000182b 	.word	0x0000182b
    55bc:	000014f4 	.word	0x000014f4
    55c0:	0000164c 	.word	0x0000164c
    55c4:	000015d4 	.word	0x000015d4
    55c8:	000014d8 	.word	0x000014d8
    55cc:	00001630 	.word	0x00001630
    55d0:	000015f3 	.word	0x000015f3

000055d4 <bstats>:
bstats():
/media/wen/My_Passport/Raspbian/raspbian-tee/raspbian-tee/optee_os/lib/libutils/isoc/bget.c:1088
    55d4:	b570      	push	{r4, r5, r6, lr}
    55d6:	9c05      	ldr	r4, [sp, #20]
/media/wen/My_Passport/Raspbian/raspbian-tee/raspbian-tee/optee_os/lib/libutils/isoc/bget.c:1091
    55d8:	6966      	ldr	r6, [r4, #20]
/media/wen/My_Passport/Raspbian/raspbian-tee/raspbian-tee/optee_os/lib/libutils/isoc/bget.c:1089
    55da:	68a5      	ldr	r5, [r4, #8]
/media/wen/My_Passport/Raspbian/raspbian-tee/raspbian-tee/optee_os/lib/libutils/isoc/bget.c:1091
    55dc:	601e      	str	r6, [r3, #0]
/media/wen/My_Passport/Raspbian/raspbian-tee/raspbian-tee/optee_os/lib/libutils/isoc/bget.c:1092
    55de:	9b04      	ldr	r3, [sp, #16]
    55e0:	69a6      	ldr	r6, [r4, #24]
    55e2:	601e      	str	r6, [r3, #0]
/media/wen/My_Passport/Raspbian/raspbian-tee/raspbian-tee/optee_os/lib/libutils/isoc/bget.c:1093
    55e4:	6923      	ldr	r3, [r4, #16]
    55e6:	6003      	str	r3, [r0, #0]
/media/wen/My_Passport/Raspbian/raspbian-tee/raspbian-tee/optee_os/lib/libutils/isoc/bget.c:1094
    55e8:	2300      	movs	r3, #0
    55ea:	600b      	str	r3, [r1, #0]
/media/wen/My_Passport/Raspbian/raspbian-tee/raspbian-tee/optee_os/lib/libutils/isoc/bget.c:1095
    55ec:	f04f 33ff 	mov.w	r3, #4294967295
    55f0:	6013      	str	r3, [r2, #0]
/media/wen/My_Passport/Raspbian/raspbian-tee/raspbian-tee/optee_os/lib/libutils/isoc/bget.c:1096
    55f2:	42a5      	cmp	r5, r4
    55f4:	d100      	bne.n	55f8 <bstats+0x24>
/media/wen/My_Passport/Raspbian/raspbian-tee/raspbian-tee/optee_os/lib/libutils/isoc/bget.c:1104
    55f6:	bd70      	pop	{r4, r5, r6, pc}
/media/wen/My_Passport/Raspbian/raspbian-tee/raspbian-tee/optee_os/lib/libutils/isoc/bget.c:1097
    55f8:	6868      	ldr	r0, [r5, #4]
    55fa:	2800      	cmp	r0, #0
    55fc:	dc0c      	bgt.n	5618 <bstats+0x44>
/media/wen/My_Passport/Raspbian/raspbian-tee/raspbian-tee/optee_os/lib/libutils/isoc/bget.c:1097 (discriminator 1)
    55fe:	4b0b      	ldr	r3, [pc, #44]	; (562c <bstats+0x58>)
    5600:	f240 4249 	movw	r2, #1097	; 0x449
    5604:	490a      	ldr	r1, [pc, #40]	; (5630 <bstats+0x5c>)
    5606:	480b      	ldr	r0, [pc, #44]	; (5634 <bstats+0x60>)
    5608:	447b      	add	r3, pc
    560a:	332e      	adds	r3, #46	; 0x2e
    560c:	4479      	add	r1, pc
    560e:	4478      	add	r0, pc
    5610:	f000 fb4e 	bl	5cb0 <_assert_log>
    5614:	f000 fb60 	bl	5cd8 <_assert_break>
/media/wen/My_Passport/Raspbian/raspbian-tee/raspbian-tee/optee_os/lib/libutils/isoc/bget.c:1098
    5618:	680b      	ldr	r3, [r1, #0]
    561a:	4403      	add	r3, r0
    561c:	600b      	str	r3, [r1, #0]
/media/wen/My_Passport/Raspbian/raspbian-tee/raspbian-tee/optee_os/lib/libutils/isoc/bget.c:1099
    561e:	686b      	ldr	r3, [r5, #4]
    5620:	6810      	ldr	r0, [r2, #0]
    5622:	4283      	cmp	r3, r0
    5624:	dd00      	ble.n	5628 <bstats+0x54>
/media/wen/My_Passport/Raspbian/raspbian-tee/raspbian-tee/optee_os/lib/libutils/isoc/bget.c:1100
    5626:	6013      	str	r3, [r2, #0]
/media/wen/My_Passport/Raspbian/raspbian-tee/raspbian-tee/optee_os/lib/libutils/isoc/bget.c:1102
    5628:	68ad      	ldr	r5, [r5, #8]
    562a:	e7e2      	b.n	55f2 <bstats+0x1e>
    562c:	0000145e 	.word	0x0000145e
    5630:	000015b6 	.word	0x000015b6
    5634:	000017a4 	.word	0x000017a4

00005638 <malloc_reset_stats>:
malloc_reset_stats():
/media/wen/My_Passport/Raspbian/raspbian-tee/raspbian-tee/optee_os/lib/libutils/isoc/bget_malloc.c:183
    5638:	4b03      	ldr	r3, [pc, #12]	; (5648 <malloc_reset_stats+0x10>)
    563a:	2200      	movs	r2, #0
    563c:	447b      	add	r3, pc
    563e:	625a      	str	r2, [r3, #36]	; 0x24
/media/wen/My_Passport/Raspbian/raspbian-tee/raspbian-tee/optee_os/lib/libutils/isoc/bget_malloc.c:184
    5640:	62da      	str	r2, [r3, #44]	; 0x2c
/media/wen/My_Passport/Raspbian/raspbian-tee/raspbian-tee/optee_os/lib/libutils/isoc/bget_malloc.c:185
    5642:	631a      	str	r2, [r3, #48]	; 0x30
/media/wen/My_Passport/Raspbian/raspbian-tee/raspbian-tee/optee_os/lib/libutils/isoc/bget_malloc.c:186
    5644:	635a      	str	r2, [r3, #52]	; 0x34
    5646:	4770      	bx	lr
    5648:	00004a80 	.word	0x00004a80

0000564c <malloc_get_stats>:
malloc_get_stats():
/media/wen/My_Passport/Raspbian/raspbian-tee/raspbian-tee/optee_os/lib/libutils/isoc/bget_malloc.c:194
    564c:	4905      	ldr	r1, [pc, #20]	; (5664 <malloc_get_stats+0x18>)
    564e:	2238      	movs	r2, #56	; 0x38
/media/wen/My_Passport/Raspbian/raspbian-tee/raspbian-tee/optee_os/lib/libutils/isoc/bget_malloc.c:191
    5650:	b508      	push	{r3, lr}
/media/wen/My_Passport/Raspbian/raspbian-tee/raspbian-tee/optee_os/lib/libutils/isoc/bget_malloc.c:194
    5652:	4479      	add	r1, pc
    5654:	f000 fb4a 	bl	5cec <memcpy>
/media/wen/My_Passport/Raspbian/raspbian-tee/raspbian-tee/optee_os/lib/libutils/isoc/bget_malloc.c:195
    5658:	4a03      	ldr	r2, [pc, #12]	; (5668 <malloc_get_stats+0x1c>)
    565a:	447a      	add	r2, pc
    565c:	6912      	ldr	r2, [r2, #16]
    565e:	6202      	str	r2, [r0, #32]
    5660:	bd08      	pop	{r3, pc}
    5662:	bf00      	nop
    5664:	00004a6a 	.word	0x00004a6a
    5668:	00002a16 	.word	0x00002a16

0000566c <malloc>:
malloc():
/media/wen/My_Passport/Raspbian/raspbian-tee/raspbian-tee/optee_os/lib/libutils/isoc/bget_malloc.c:821
    566c:	e5e0      	b.n	5230 <raw_malloc.constprop.15>

0000566e <free>:
raw_free():
/media/wen/My_Passport/Raspbian/raspbian-tee/raspbian-tee/optee_os/lib/libutils/isoc/bget_malloc.c:324
    566e:	b118      	cbz	r0, 5678 <free+0xa>
/media/wen/My_Passport/Raspbian/raspbian-tee/raspbian-tee/optee_os/lib/libutils/isoc/bget_malloc.c:325
    5670:	4902      	ldr	r1, [pc, #8]	; (567c <free+0xe>)
    5672:	4479      	add	r1, pc
    5674:	f7ff be26 	b.w	52c4 <brel>
    5678:	4770      	bx	lr
    567a:	bf00      	nop
    567c:	000029fe 	.word	0x000029fe

00005680 <calloc>:
raw_calloc():
/media/wen/My_Passport/Raspbian/raspbian-tee/raspbian-tee/optee_os/lib/libutils/isoc/bget_malloc.c:337
    5680:	fba0 2301 	umull	r2, r3, r0, r1
calloc():
/media/wen/My_Passport/Raspbian/raspbian-tee/raspbian-tee/optee_os/lib/libutils/isoc/bget_malloc.c:835
    5684:	b570      	push	{r4, r5, r6, lr}
    5686:	4605      	mov	r5, r0
raw_calloc():
/media/wen/My_Passport/Raspbian/raspbian-tee/raspbian-tee/optee_os/lib/libutils/isoc/bget_malloc.c:337
    5688:	2a00      	cmp	r2, #0
    568a:	bfa8      	it	ge
    568c:	2b00      	cmpge	r3, #0
calloc():
/media/wen/My_Passport/Raspbian/raspbian-tee/raspbian-tee/optee_os/lib/libutils/isoc/bget_malloc.c:835
    568e:	460e      	mov	r6, r1
raw_calloc():
/media/wen/My_Passport/Raspbian/raspbian-tee/raspbian-tee/optee_os/lib/libutils/isoc/bget_malloc.c:337
    5690:	4610      	mov	r0, r2
    5692:	d113      	bne.n	56bc <calloc+0x3c>
/media/wen/My_Passport/Raspbian/raspbian-tee/raspbian-tee/optee_os/lib/libutils/isoc/bget_malloc.c:348
    5694:	490a      	ldr	r1, [pc, #40]	; (56c0 <calloc+0x40>)
/media/wen/My_Passport/Raspbian/raspbian-tee/raspbian-tee/optee_os/lib/libutils/isoc/bget_malloc.c:345
    5696:	2a00      	cmp	r2, #0
/media/wen/My_Passport/Raspbian/raspbian-tee/raspbian-tee/optee_os/lib/libutils/isoc/bget_malloc.c:348
    5698:	bf18      	it	ne
    569a:	4610      	movne	r0, r2
    569c:	bf08      	it	eq
    569e:	2001      	moveq	r0, #1
    56a0:	4479      	add	r1, pc
    56a2:	f7ff fde1 	bl	5268 <bgetz>
    56a6:	4604      	mov	r4, r0
/media/wen/My_Passport/Raspbian/raspbian-tee/raspbian-tee/optee_os/lib/libutils/isoc/bget_malloc.c:350
    56a8:	4b06      	ldr	r3, [pc, #24]	; (56c4 <calloc+0x44>)
    56aa:	4620      	mov	r0, r4
    56ac:	fb06 f105 	mul.w	r1, r6, r5
    56b0:	447b      	add	r3, pc
    56b2:	691a      	ldr	r2, [r3, #16]
    56b4:	f7ff fc9e 	bl	4ff4 <raw_malloc_return_hook.isra.3>
calloc():
/media/wen/My_Passport/Raspbian/raspbian-tee/raspbian-tee/optee_os/lib/libutils/isoc/bget_malloc.c:842
    56b8:	4620      	mov	r0, r4
    56ba:	bd70      	pop	{r4, r5, r6, pc}
raw_calloc():
/media/wen/My_Passport/Raspbian/raspbian-tee/raspbian-tee/optee_os/lib/libutils/isoc/bget_malloc.c:331
    56bc:	2400      	movs	r4, #0
    56be:	e7f3      	b.n	56a8 <calloc+0x28>
    56c0:	000029d0 	.word	0x000029d0
    56c4:	000029c0 	.word	0x000029c0

000056c8 <realloc>:
realloc():
/media/wen/My_Passport/Raspbian/raspbian-tee/raspbian-tee/optee_os/lib/libutils/isoc/bget_malloc.c:850
    56c8:	b538      	push	{r3, r4, r5, lr}
raw_realloc():
/media/wen/My_Passport/Raspbian/raspbian-tee/raspbian-tee/optee_os/lib/libutils/isoc/bget_malloc.c:362
    56ca:	1e0d      	subs	r5, r1, #0
    56cc:	db12      	blt.n	56f4 <realloc+0x2c>
/media/wen/My_Passport/Raspbian/raspbian-tee/raspbian-tee/optee_os/lib/libutils/isoc/bget_malloc.c:373
    56ce:	4a0a      	ldr	r2, [pc, #40]	; (56f8 <realloc+0x30>)
    56d0:	4629      	mov	r1, r5
    56d2:	bf18      	it	ne
    56d4:	4629      	movne	r1, r5
    56d6:	bf08      	it	eq
    56d8:	2101      	moveq	r1, #1
    56da:	447a      	add	r2, pc
    56dc:	f7ff feee 	bl	54bc <bgetr>
    56e0:	4604      	mov	r4, r0
/media/wen/My_Passport/Raspbian/raspbian-tee/raspbian-tee/optee_os/lib/libutils/isoc/bget_malloc.c:375
    56e2:	4b06      	ldr	r3, [pc, #24]	; (56fc <realloc+0x34>)
    56e4:	4620      	mov	r0, r4
    56e6:	4629      	mov	r1, r5
    56e8:	447b      	add	r3, pc
    56ea:	691a      	ldr	r2, [r3, #16]
    56ec:	f7ff fc82 	bl	4ff4 <raw_malloc_return_hook.isra.3>
realloc():
/media/wen/My_Passport/Raspbian/raspbian-tee/raspbian-tee/optee_os/lib/libutils/isoc/bget_malloc.c:857
    56f0:	4620      	mov	r0, r4
    56f2:	bd38      	pop	{r3, r4, r5, pc}
raw_realloc():
/media/wen/My_Passport/Raspbian/raspbian-tee/raspbian-tee/optee_os/lib/libutils/isoc/bget_malloc.c:358
    56f4:	2400      	movs	r4, #0
    56f6:	e7f4      	b.n	56e2 <realloc+0x1a>
    56f8:	00002996 	.word	0x00002996
    56fc:	00002988 	.word	0x00002988

00005700 <memalign>:
memalign():
/media/wen/My_Passport/Raspbian/raspbian-tee/raspbian-tee/optee_os/lib/libutils/isoc/bget_malloc.c:860
    5700:	b5f8      	push	{r3, r4, r5, r6, r7, lr}
    5702:	460f      	mov	r7, r1
raw_memalign():
/media/wen/My_Passport/Raspbian/raspbian-tee/raspbian-tee/optee_os/lib/libutils/isoc/bget_malloc.c:535
    5704:	4605      	mov	r5, r0
    5706:	2800      	cmp	r0, #0
    5708:	f000 810b 	beq.w	5922 <memalign+0x222>
    570c:	4244      	negs	r4, r0
    570e:	ea30 0304 	bics.w	r3, r0, r4
    5712:	f040 8106 	bne.w	5922 <memalign+0x222>
/media/wen/My_Passport/Raspbian/raspbian-tee/raspbian-tee/optee_os/lib/libutils/isoc/bget_malloc.c:542
    5716:	2808      	cmp	r0, #8
    5718:	d803      	bhi.n	5722 <memalign+0x22>
/media/wen/My_Passport/Raspbian/raspbian-tee/raspbian-tee/optee_os/lib/libutils/isoc/bget_malloc.c:543
    571a:	4608      	mov	r0, r1
memalign():
/media/wen/My_Passport/Raspbian/raspbian-tee/raspbian-tee/optee_os/lib/libutils/isoc/bget_malloc.c:867
    571c:	e8bd 40f8 	ldmia.w	sp!, {r3, r4, r5, r6, r7, lr}
raw_memalign():
/media/wen/My_Passport/Raspbian/raspbian-tee/raspbian-tee/optee_os/lib/libutils/isoc/bget_malloc.c:543
    5720:	e586      	b.n	5230 <raw_malloc.constprop.15>
/media/wen/My_Passport/Raspbian/raspbian-tee/raspbian-tee/optee_os/lib/libutils/isoc/bget_malloc.c:545
    5722:	f101 0610 	add.w	r6, r1, #16
/media/wen/My_Passport/Raspbian/raspbian-tee/raspbian-tee/optee_os/lib/libutils/isoc/bget_malloc.c:549
    5726:	1836      	adds	r6, r6, r0
    5728:	f080 80fb 	bcs.w	5922 <memalign+0x222>
    572c:	42b1      	cmp	r1, r6
    572e:	f200 80f8 	bhi.w	5922 <memalign+0x222>
/media/wen/My_Passport/Raspbian/raspbian-tee/raspbian-tee/optee_os/lib/libutils/isoc/bget_malloc.c:552
    5732:	497d      	ldr	r1, [pc, #500]	; (5928 <memalign+0x228>)
    5734:	4630      	mov	r0, r6
    5736:	4479      	add	r1, pc
    5738:	f7ff fce0 	bl	50fc <bget>
/media/wen/My_Passport/Raspbian/raspbian-tee/raspbian-tee/optee_os/lib/libutils/isoc/bget_malloc.c:553
    573c:	4603      	mov	r3, r0
    573e:	2800      	cmp	r0, #0
    5740:	f000 80e5 	beq.w	590e <memalign+0x20e>
/media/wen/My_Passport/Raspbian/raspbian-tee/raspbian-tee/optee_os/lib/libutils/isoc/bget_malloc.c:556
    5744:	1e6a      	subs	r2, r5, #1
    5746:	4210      	tst	r0, r2
    5748:	d063      	beq.n	5812 <memalign+0x112>
/media/wen/My_Passport/Raspbian/raspbian-tee/raspbian-tee/optee_os/lib/libutils/isoc/bget_malloc.c:569
    574a:	182a      	adds	r2, r5, r0
/media/wen/My_Passport/Raspbian/raspbian-tee/raspbian-tee/optee_os/lib/libutils/isoc/bget_malloc.c:574
    574c:	4406      	add	r6, r0
/media/wen/My_Passport/Raspbian/raspbian-tee/raspbian-tee/optee_os/lib/libutils/isoc/bget_malloc.c:570
    574e:	4014      	ands	r4, r2
/media/wen/My_Passport/Raspbian/raspbian-tee/raspbian-tee/optee_os/lib/libutils/isoc/bget_malloc.c:572
    5750:	1a22      	subs	r2, r4, r0
    5752:	2a0f      	cmp	r2, #15
/media/wen/My_Passport/Raspbian/raspbian-tee/raspbian-tee/optee_os/lib/libutils/isoc/bget_malloc.c:573
    5754:	bf98      	it	ls
    5756:	1964      	addls	r4, r4, r5
/media/wen/My_Passport/Raspbian/raspbian-tee/raspbian-tee/optee_os/lib/libutils/isoc/bget_malloc.c:574
    5758:	193a      	adds	r2, r7, r4
    575a:	42b2      	cmp	r2, r6
    575c:	d90c      	bls.n	5778 <memalign+0x78>
    575e:	4b73      	ldr	r3, [pc, #460]	; (592c <memalign+0x22c>)
    5760:	f240 223e 	movw	r2, #574	; 0x23e
    5764:	4972      	ldr	r1, [pc, #456]	; (5930 <memalign+0x230>)
    5766:	4873      	ldr	r0, [pc, #460]	; (5934 <memalign+0x234>)
    5768:	447b      	add	r3, pc
    576a:	3335      	adds	r3, #53	; 0x35
    576c:	4479      	add	r1, pc
    576e:	4478      	add	r0, pc
brel_before():
/media/wen/My_Passport/Raspbian/raspbian-tee/raspbian-tee/optee_os/lib/libutils/isoc/bget_malloc.c:411
    5770:	f000 fa9e 	bl	5cb0 <_assert_log>
    5774:	f000 fab0 	bl	5cd8 <_assert_break>
    5778:	42a0      	cmp	r0, r4
    577a:	d309      	bcc.n	5790 <memalign+0x90>
    577c:	4b6e      	ldr	r3, [pc, #440]	; (5938 <memalign+0x238>)
    577e:	f240 129b 	movw	r2, #411	; 0x19b
    5782:	496e      	ldr	r1, [pc, #440]	; (593c <memalign+0x23c>)
    5784:	486e      	ldr	r0, [pc, #440]	; (5940 <memalign+0x240>)
    5786:	447b      	add	r3, pc
    5788:	3342      	adds	r3, #66	; 0x42
    578a:	4479      	add	r1, pc
    578c:	4478      	add	r0, pc
    578e:	e7ef      	b.n	5770 <memalign+0x70>
/media/wen/My_Passport/Raspbian/raspbian-tee/raspbian-tee/optee_os/lib/libutils/isoc/bget_malloc.c:413
    5790:	1a25      	subs	r5, r4, r0
/media/wen/My_Passport/Raspbian/raspbian-tee/raspbian-tee/optee_os/lib/libutils/isoc/bget_malloc.c:414
    5792:	2d0f      	cmp	r5, #15
    5794:	d809      	bhi.n	57aa <memalign+0xaa>
    5796:	4b6b      	ldr	r3, [pc, #428]	; (5944 <memalign+0x244>)
    5798:	f44f 72cf 	mov.w	r2, #414	; 0x19e
    579c:	496a      	ldr	r1, [pc, #424]	; (5948 <memalign+0x248>)
    579e:	486b      	ldr	r0, [pc, #428]	; (594c <memalign+0x24c>)
    57a0:	447b      	add	r3, pc
    57a2:	3342      	adds	r3, #66	; 0x42
    57a4:	4479      	add	r1, pc
    57a6:	4478      	add	r0, pc
    57a8:	e7e2      	b.n	5770 <memalign+0x70>
/media/wen/My_Passport/Raspbian/raspbian-tee/raspbian-tee/optee_os/lib/libutils/isoc/bget_malloc.c:418
    57aa:	f853 2c04 	ldr.w	r2, [r3, #-4]
/media/wen/My_Passport/Raspbian/raspbian-tee/raspbian-tee/optee_os/lib/libutils/isoc/bget_malloc.c:417
    57ae:	3808      	subs	r0, #8
/media/wen/My_Passport/Raspbian/raspbian-tee/raspbian-tee/optee_os/lib/libutils/isoc/bget_malloc.c:423
    57b0:	f853 3c08 	ldr.w	r3, [r3, #-8]
    57b4:	442a      	add	r2, r5
    57b6:	b323      	cbz	r3, 5802 <memalign+0x102>
/media/wen/My_Passport/Raspbian/raspbian-tee/raspbian-tee/optee_os/lib/libutils/isoc/bget_malloc.c:428
    57b8:	1ac0      	subs	r0, r0, r3
/media/wen/My_Passport/Raspbian/raspbian-tee/raspbian-tee/optee_os/lib/libutils/isoc/bget_malloc.c:429
    57ba:	6841      	ldr	r1, [r0, #4]
    57bc:	428b      	cmp	r3, r1
    57be:	d009      	beq.n	57d4 <memalign+0xd4>
    57c0:	4b63      	ldr	r3, [pc, #396]	; (5950 <memalign+0x250>)
    57c2:	f240 12ad 	movw	r2, #429	; 0x1ad
    57c6:	4963      	ldr	r1, [pc, #396]	; (5954 <memalign+0x254>)
    57c8:	4863      	ldr	r0, [pc, #396]	; (5958 <memalign+0x258>)
    57ca:	447b      	add	r3, pc
    57cc:	3342      	adds	r3, #66	; 0x42
    57ce:	4479      	add	r1, pc
    57d0:	4478      	add	r0, pc
    57d2:	e7cd      	b.n	5770 <memalign+0x70>
/media/wen/My_Passport/Raspbian/raspbian-tee/raspbian-tee/optee_os/lib/libutils/isoc/bget_malloc.c:430
    57d4:	442b      	add	r3, r5
    57d6:	6043      	str	r3, [r0, #4]
/media/wen/My_Passport/Raspbian/raspbian-tee/raspbian-tee/optee_os/lib/libutils/isoc/bget_malloc.c:433
    57d8:	f844 3c08 	str.w	r3, [r4, #-8]
/media/wen/My_Passport/Raspbian/raspbian-tee/raspbian-tee/optee_os/lib/libutils/isoc/bget_malloc.c:435
    57dc:	f844 2c04 	str.w	r2, [r4, #-4]
/media/wen/My_Passport/Raspbian/raspbian-tee/raspbian-tee/optee_os/lib/libutils/isoc/bget_malloc.c:449
    57e0:	4a5e      	ldr	r2, [pc, #376]	; (595c <memalign+0x25c>)
    57e2:	447a      	add	r2, pc
    57e4:	6913      	ldr	r3, [r2, #16]
    57e6:	1b5d      	subs	r5, r3, r5
/media/wen/My_Passport/Raspbian/raspbian-tee/raspbian-tee/optee_os/lib/libutils/isoc/bget_malloc.c:450
    57e8:	2d00      	cmp	r5, #0
/media/wen/My_Passport/Raspbian/raspbian-tee/raspbian-tee/optee_os/lib/libutils/isoc/bget_malloc.c:449
    57ea:	6115      	str	r5, [r2, #16]
/media/wen/My_Passport/Raspbian/raspbian-tee/raspbian-tee/optee_os/lib/libutils/isoc/bget_malloc.c:450
    57ec:	da12      	bge.n	5814 <memalign+0x114>
    57ee:	4b5c      	ldr	r3, [pc, #368]	; (5960 <memalign+0x260>)
    57f0:	f44f 72e1 	mov.w	r2, #450	; 0x1c2
    57f4:	495b      	ldr	r1, [pc, #364]	; (5964 <memalign+0x264>)
    57f6:	485c      	ldr	r0, [pc, #368]	; (5968 <memalign+0x268>)
    57f8:	447b      	add	r3, pc
    57fa:	3342      	adds	r3, #66	; 0x42
    57fc:	4479      	add	r1, pc
    57fe:	4478      	add	r0, pc
    5800:	e7b6      	b.n	5770 <memalign+0x70>
/media/wen/My_Passport/Raspbian/raspbian-tee/raspbian-tee/optee_os/lib/libutils/isoc/bget_malloc.c:443
    5802:	f844 2c04 	str.w	r2, [r4, #-4]
/media/wen/My_Passport/Raspbian/raspbian-tee/raspbian-tee/optee_os/lib/libutils/isoc/bget_malloc.c:445
    5806:	4629      	mov	r1, r5
    5808:	f1a4 0208 	sub.w	r2, r4, #8
    580c:	f7ff fc0a 	bl	5024 <create_free_block.constprop.11>
    5810:	e7e6      	b.n	57e0 <memalign+0xe0>
raw_memalign():
/media/wen/My_Passport/Raspbian/raspbian-tee/raspbian-tee/optee_os/lib/libutils/isoc/bget_malloc.c:556
    5812:	4604      	mov	r4, r0
brel_after():
/media/wen/My_Passport/Raspbian/raspbian-tee/raspbian-tee/optee_os/lib/libutils/isoc/bget_malloc.c:466
    5814:	2f08      	cmp	r7, #8
    5816:	4638      	mov	r0, r7
    5818:	bf38      	it	cc
    581a:	2008      	movcc	r0, #8
/media/wen/My_Passport/Raspbian/raspbian-tee/raspbian-tee/optee_os/lib/libutils/isoc/bget_malloc.c:470
    581c:	f854 1c04 	ldr.w	r1, [r4, #-4]
/media/wen/My_Passport/Raspbian/raspbian-tee/raspbian-tee/optee_os/lib/libutils/isoc/bget_malloc.c:466
    5820:	3007      	adds	r0, #7
    5822:	f020 0007 	bic.w	r0, r0, #7
/media/wen/My_Passport/Raspbian/raspbian-tee/raspbian-tee/optee_os/lib/libutils/isoc/bget_malloc.c:470
    5826:	424d      	negs	r5, r1
/media/wen/My_Passport/Raspbian/raspbian-tee/raspbian-tee/optee_os/lib/libutils/isoc/bget_malloc.c:469
    5828:	f100 0308 	add.w	r3, r0, #8
/media/wen/My_Passport/Raspbian/raspbian-tee/raspbian-tee/optee_os/lib/libutils/isoc/bget_malloc.c:470
    582c:	42ab      	cmp	r3, r5
    582e:	dd09      	ble.n	5844 <memalign+0x144>
    5830:	4b4e      	ldr	r3, [pc, #312]	; (596c <memalign+0x26c>)
    5832:	f44f 72eb 	mov.w	r2, #470	; 0x1d6
    5836:	494e      	ldr	r1, [pc, #312]	; (5970 <memalign+0x270>)
    5838:	484e      	ldr	r0, [pc, #312]	; (5974 <memalign+0x274>)
    583a:	447b      	add	r3, pc
    583c:	334e      	adds	r3, #78	; 0x4e
    583e:	4479      	add	r1, pc
    5840:	4478      	add	r0, pc
    5842:	e795      	b.n	5770 <memalign+0x70>
/media/wen/My_Passport/Raspbian/raspbian-tee/raspbian-tee/optee_os/lib/libutils/isoc/bget_malloc.c:476
    5844:	1aed      	subs	r5, r5, r3
/media/wen/My_Passport/Raspbian/raspbian-tee/raspbian-tee/optee_os/lib/libutils/isoc/bget_malloc.c:477
    5846:	2d0f      	cmp	r5, #15
    5848:	dd62      	ble.n	5910 <memalign+0x210>
/media/wen/My_Passport/Raspbian/raspbian-tee/raspbian-tee/optee_os/lib/libutils/isoc/bget_malloc.c:480
    584a:	f1c1 21ff 	rsb	r1, r1, #4278255360	; 0xff00ff00
/media/wen/My_Passport/Raspbian/raspbian-tee/raspbian-tee/optee_os/lib/libutils/isoc/bget_malloc.c:484
    584e:	425b      	negs	r3, r3
/media/wen/My_Passport/Raspbian/raspbian-tee/raspbian-tee/optee_os/lib/libutils/isoc/bget_malloc.c:480
    5850:	f501 017f 	add.w	r1, r1, #16711680	; 0xff0000
/media/wen/My_Passport/Raspbian/raspbian-tee/raspbian-tee/optee_os/lib/libutils/isoc/bget_malloc.c:484
    5854:	f844 3c04 	str.w	r3, [r4, #-4]
/media/wen/My_Passport/Raspbian/raspbian-tee/raspbian-tee/optee_os/lib/libutils/isoc/bget_malloc.c:480
    5858:	31f8      	adds	r1, #248	; 0xf8
    585a:	4420      	add	r0, r4
    585c:	1862      	adds	r2, r4, r1
/media/wen/My_Passport/Raspbian/raspbian-tee/raspbian-tee/optee_os/lib/libutils/isoc/bget_malloc.c:485
    585e:	6853      	ldr	r3, [r2, #4]
    5860:	2b00      	cmp	r3, #0
    5862:	dd50      	ble.n	5906 <memalign+0x206>
/media/wen/My_Passport/Raspbian/raspbian-tee/raspbian-tee/optee_os/lib/libutils/isoc/bget_malloc.c:491
    5864:	5861      	ldr	r1, [r4, r1]
    5866:	b149      	cbz	r1, 587c <memalign+0x17c>
    5868:	4b43      	ldr	r3, [pc, #268]	; (5978 <memalign+0x278>)
    586a:	f240 12eb 	movw	r2, #491	; 0x1eb
    586e:	4943      	ldr	r1, [pc, #268]	; (597c <memalign+0x27c>)
    5870:	4843      	ldr	r0, [pc, #268]	; (5980 <memalign+0x280>)
    5872:	447b      	add	r3, pc
    5874:	334e      	adds	r3, #78	; 0x4e
    5876:	4479      	add	r1, pc
    5878:	4478      	add	r0, pc
    587a:	e779      	b.n	5770 <memalign+0x70>
/media/wen/My_Passport/Raspbian/raspbian-tee/raspbian-tee/optee_os/lib/libutils/isoc/bget_malloc.c:492
    587c:	58d6      	ldr	r6, [r2, r3]
    587e:	42b3      	cmp	r3, r6
    5880:	d009      	beq.n	5896 <memalign+0x196>
    5882:	4b40      	ldr	r3, [pc, #256]	; (5984 <memalign+0x284>)
    5884:	f44f 72f6 	mov.w	r2, #492	; 0x1ec
    5888:	493f      	ldr	r1, [pc, #252]	; (5988 <memalign+0x288>)
    588a:	4840      	ldr	r0, [pc, #256]	; (598c <memalign+0x28c>)
    588c:	447b      	add	r3, pc
    588e:	334e      	adds	r3, #78	; 0x4e
    5890:	4479      	add	r1, pc
    5892:	4478      	add	r0, pc
    5894:	e76c      	b.n	5770 <memalign+0x70>
/media/wen/My_Passport/Raspbian/raspbian-tee/raspbian-tee/optee_os/lib/libutils/isoc/bget_malloc.c:495
    5896:	6001      	str	r1, [r0, #0]
/media/wen/My_Passport/Raspbian/raspbian-tee/raspbian-tee/optee_os/lib/libutils/isoc/bget_malloc.c:496
    5898:	18e9      	adds	r1, r5, r3
    589a:	6041      	str	r1, [r0, #4]
/media/wen/My_Passport/Raspbian/raspbian-tee/raspbian-tee/optee_os/lib/libutils/isoc/bget_malloc.c:499
    589c:	58d1      	ldr	r1, [r2, r3]
    589e:	4429      	add	r1, r5
    58a0:	50d1      	str	r1, [r2, r3]
/media/wen/My_Passport/Raspbian/raspbian-tee/raspbian-tee/optee_os/lib/libutils/isoc/bget_malloc.c:505
    58a2:	68d3      	ldr	r3, [r2, #12]
    58a4:	6899      	ldr	r1, [r3, #8]
    58a6:	428a      	cmp	r2, r1
    58a8:	d009      	beq.n	58be <memalign+0x1be>
    58aa:	4b39      	ldr	r3, [pc, #228]	; (5990 <memalign+0x290>)
    58ac:	f240 12f9 	movw	r2, #505	; 0x1f9
    58b0:	4938      	ldr	r1, [pc, #224]	; (5994 <memalign+0x294>)
    58b2:	4839      	ldr	r0, [pc, #228]	; (5998 <memalign+0x298>)
    58b4:	447b      	add	r3, pc
    58b6:	334e      	adds	r3, #78	; 0x4e
    58b8:	4479      	add	r1, pc
    58ba:	4478      	add	r0, pc
    58bc:	e758      	b.n	5770 <memalign+0x70>
/media/wen/My_Passport/Raspbian/raspbian-tee/raspbian-tee/optee_os/lib/libutils/isoc/bget_malloc.c:506
    58be:	6891      	ldr	r1, [r2, #8]
    58c0:	68ce      	ldr	r6, [r1, #12]
    58c2:	42b2      	cmp	r2, r6
    58c4:	d009      	beq.n	58da <memalign+0x1da>
    58c6:	4b35      	ldr	r3, [pc, #212]	; (599c <memalign+0x29c>)
    58c8:	f44f 72fd 	mov.w	r2, #506	; 0x1fa
    58cc:	4934      	ldr	r1, [pc, #208]	; (59a0 <memalign+0x2a0>)
    58ce:	4835      	ldr	r0, [pc, #212]	; (59a4 <memalign+0x2a4>)
    58d0:	447b      	add	r3, pc
    58d2:	334e      	adds	r3, #78	; 0x4e
    58d4:	4479      	add	r1, pc
    58d6:	4478      	add	r0, pc
    58d8:	e74a      	b.n	5770 <memalign+0x70>
/media/wen/My_Passport/Raspbian/raspbian-tee/raspbian-tee/optee_os/lib/libutils/isoc/bget_malloc.c:509
    58da:	60c3      	str	r3, [r0, #12]
/media/wen/My_Passport/Raspbian/raspbian-tee/raspbian-tee/optee_os/lib/libutils/isoc/bget_malloc.c:510
    58dc:	6081      	str	r1, [r0, #8]
/media/wen/My_Passport/Raspbian/raspbian-tee/raspbian-tee/optee_os/lib/libutils/isoc/bget_malloc.c:513
    58de:	6098      	str	r0, [r3, #8]
/media/wen/My_Passport/Raspbian/raspbian-tee/raspbian-tee/optee_os/lib/libutils/isoc/bget_malloc.c:514
    58e0:	6883      	ldr	r3, [r0, #8]
    58e2:	60d8      	str	r0, [r3, #12]
/media/wen/My_Passport/Raspbian/raspbian-tee/raspbian-tee/optee_os/lib/libutils/isoc/bget_malloc.c:521
    58e4:	4a30      	ldr	r2, [pc, #192]	; (59a8 <memalign+0x2a8>)
    58e6:	447a      	add	r2, pc
    58e8:	6913      	ldr	r3, [r2, #16]
    58ea:	1b5d      	subs	r5, r3, r5
/media/wen/My_Passport/Raspbian/raspbian-tee/raspbian-tee/optee_os/lib/libutils/isoc/bget_malloc.c:522
    58ec:	2d00      	cmp	r5, #0
/media/wen/My_Passport/Raspbian/raspbian-tee/raspbian-tee/optee_os/lib/libutils/isoc/bget_malloc.c:521
    58ee:	6115      	str	r5, [r2, #16]
/media/wen/My_Passport/Raspbian/raspbian-tee/raspbian-tee/optee_os/lib/libutils/isoc/bget_malloc.c:522
    58f0:	da0e      	bge.n	5910 <memalign+0x210>
    58f2:	4b2e      	ldr	r3, [pc, #184]	; (59ac <memalign+0x2ac>)
    58f4:	f240 220a 	movw	r2, #522	; 0x20a
    58f8:	492d      	ldr	r1, [pc, #180]	; (59b0 <memalign+0x2b0>)
    58fa:	482e      	ldr	r0, [pc, #184]	; (59b4 <memalign+0x2b4>)
    58fc:	447b      	add	r3, pc
    58fe:	334e      	adds	r3, #78	; 0x4e
    5900:	4479      	add	r1, pc
    5902:	4478      	add	r0, pc
    5904:	e734      	b.n	5770 <memalign+0x70>
/media/wen/My_Passport/Raspbian/raspbian-tee/raspbian-tee/optee_os/lib/libutils/isoc/bget_malloc.c:517
    5906:	4629      	mov	r1, r5
    5908:	f7ff fb8c 	bl	5024 <create_free_block.constprop.11>
    590c:	e7ea      	b.n	58e4 <memalign+0x1e4>
raw_memalign():
/media/wen/My_Passport/Raspbian/raspbian-tee/raspbian-tee/optee_os/lib/libutils/isoc/bget_malloc.c:553
    590e:	4604      	mov	r4, r0
/media/wen/My_Passport/Raspbian/raspbian-tee/raspbian-tee/optee_os/lib/libutils/isoc/bget_malloc.c:589
    5910:	4b29      	ldr	r3, [pc, #164]	; (59b8 <memalign+0x2b8>)
    5912:	4639      	mov	r1, r7
    5914:	4620      	mov	r0, r4
    5916:	447b      	add	r3, pc
    5918:	691a      	ldr	r2, [r3, #16]
    591a:	f7ff fb6b 	bl	4ff4 <raw_malloc_return_hook.isra.3>
memalign():
/media/wen/My_Passport/Raspbian/raspbian-tee/raspbian-tee/optee_os/lib/libutils/isoc/bget_malloc.c:867
    591e:	4620      	mov	r0, r4
    5920:	bdf8      	pop	{r3, r4, r5, r6, r7, pc}
raw_memalign():
/media/wen/My_Passport/Raspbian/raspbian-tee/raspbian-tee/optee_os/lib/libutils/isoc/bget_malloc.c:536
    5922:	2400      	movs	r4, #0
memalign():
/media/wen/My_Passport/Raspbian/raspbian-tee/raspbian-tee/optee_os/lib/libutils/isoc/bget_malloc.c:866
    5924:	e7fb      	b.n	591e <memalign+0x21e>
    5926:	bf00      	nop
    5928:	0000293a 	.word	0x0000293a
    592c:	000012fe 	.word	0x000012fe
    5930:	00001384 	.word	0x00001384
    5934:	00001654 	.word	0x00001654
    5938:	000012e0 	.word	0x000012e0
    593c:	00001366 	.word	0x00001366
    5940:	00001662 	.word	0x00001662
    5944:	000012c6 	.word	0x000012c6
    5948:	0000134c 	.word	0x0000134c
    594c:	0000165b 	.word	0x0000165b
    5950:	0000129c 	.word	0x0000129c
    5954:	00001322 	.word	0x00001322
    5958:	00001658 	.word	0x00001658
    595c:	0000288e 	.word	0x0000288e
    5960:	0000126e 	.word	0x0000126e
    5964:	000012f4 	.word	0x000012f4
    5968:	000014a1 	.word	0x000014a1
    596c:	0000122c 	.word	0x0000122c
    5970:	000012b2 	.word	0x000012b2
    5974:	00001609 	.word	0x00001609
    5978:	000011f4 	.word	0x000011f4
    597c:	0000127a 	.word	0x0000127a
    5980:	000015e7 	.word	0x000015e7
    5984:	000011da 	.word	0x000011da
    5988:	00001260 	.word	0x00001260
    598c:	000015e3 	.word	0x000015e3
    5990:	000011b2 	.word	0x000011b2
    5994:	00001238 	.word	0x00001238
    5998:	000015da 	.word	0x000015da
    599c:	00001196 	.word	0x00001196
    59a0:	0000121c 	.word	0x0000121c
    59a4:	000015dd 	.word	0x000015dd
    59a8:	0000278a 	.word	0x0000278a
    59ac:	0000116a 	.word	0x0000116a
    59b0:	000011f0 	.word	0x000011f0
    59b4:	0000139d 	.word	0x0000139d
    59b8:	0000275a 	.word	0x0000275a

000059bc <malloc_add_pool>:
malloc_add_pool():
/media/wen/My_Passport/Raspbian/raspbian-tee/raspbian-tee/optee_os/lib/libutils/isoc/bget_malloc.c:878
    59bc:	e92d 41f0 	stmdb	sp!, {r4, r5, r6, r7, r8, lr}
/media/wen/My_Passport/Raspbian/raspbian-tee/raspbian-tee/optee_os/lib/libutils/isoc/bget_malloc.c:883
    59c0:	1844      	adds	r4, r0, r1
/media/wen/My_Passport/Raspbian/raspbian-tee/raspbian-tee/optee_os/lib/libutils/isoc/bget_malloc.c:889
    59c2:	3007      	adds	r0, #7
    59c4:	f020 0607 	bic.w	r6, r0, #7
/media/wen/My_Passport/Raspbian/raspbian-tee/raspbian-tee/optee_os/lib/libutils/isoc/bget_malloc.c:890
    59c8:	f024 0407 	bic.w	r4, r4, #7
/media/wen/My_Passport/Raspbian/raspbian-tee/raspbian-tee/optee_os/lib/libutils/isoc/bget_malloc.c:891
    59cc:	42a6      	cmp	r6, r4
    59ce:	d30c      	bcc.n	59ea <malloc_add_pool+0x2e>
/media/wen/My_Passport/Raspbian/raspbian-tee/raspbian-tee/optee_os/lib/libutils/isoc/bget_malloc.c:891 (discriminator 1)
    59d0:	4b25      	ldr	r3, [pc, #148]	; (5a68 <malloc_add_pool+0xac>)
    59d2:	f240 327b 	movw	r2, #891	; 0x37b
    59d6:	4925      	ldr	r1, [pc, #148]	; (5a6c <malloc_add_pool+0xb0>)
    59d8:	4825      	ldr	r0, [pc, #148]	; (5a70 <malloc_add_pool+0xb4>)
    59da:	447b      	add	r3, pc
    59dc:	3359      	adds	r3, #89	; 0x59
    59de:	4479      	add	r1, pc
    59e0:	4478      	add	r0, pc
/media/wen/My_Passport/Raspbian/raspbian-tee/raspbian-tee/optee_os/lib/libutils/isoc/bget_malloc.c:904 (discriminator 1)
    59e2:	f000 f965 	bl	5cb0 <_assert_log>
    59e6:	f000 f977 	bl	5cd8 <_assert_break>
/media/wen/My_Passport/Raspbian/raspbian-tee/raspbian-tee/optee_os/lib/libutils/isoc/bget_malloc.c:893
    59ea:	1ba4      	subs	r4, r4, r6
    59ec:	2c17      	cmp	r4, #23
    59ee:	d938      	bls.n	5a62 <malloc_add_pool+0xa6>
/media/wen/My_Passport/Raspbian/raspbian-tee/raspbian-tee/optee_os/lib/libutils/isoc/bget_malloc.c:901
    59f0:	4d20      	ldr	r5, [pc, #128]	; (5a74 <malloc_add_pool+0xb8>)
    59f2:	4621      	mov	r1, r4
    59f4:	4630      	mov	r0, r6
    59f6:	447d      	add	r5, pc
    59f8:	462a      	mov	r2, r5
    59fa:	f7ff fd9d 	bl	5538 <bpool>
/media/wen/My_Passport/Raspbian/raspbian-tee/raspbian-tee/optee_os/lib/libutils/isoc/bget_malloc.c:902
    59fe:	4b1e      	ldr	r3, [pc, #120]	; (5a78 <malloc_add_pool+0xbc>)
    5a00:	447b      	add	r3, pc
    5a02:	6b9f      	ldr	r7, [r3, #56]	; 0x38
    5a04:	3701      	adds	r7, #1
raw_realloc():
/media/wen/My_Passport/Raspbian/raspbian-tee/raspbian-tee/optee_os/lib/libutils/isoc/bget_malloc.c:362
    5a06:	ea5f 08c7 	movs.w	r8, r7, lsl #3
    5a0a:	d41b      	bmi.n	5a44 <malloc_add_pool+0x88>
/media/wen/My_Passport/Raspbian/raspbian-tee/raspbian-tee/optee_os/lib/libutils/isoc/bget_malloc.c:371
    5a0c:	f1b8 0f00 	cmp.w	r8, #0
/media/wen/My_Passport/Raspbian/raspbian-tee/raspbian-tee/optee_os/lib/libutils/isoc/bget_malloc.c:373
    5a10:	462a      	mov	r2, r5
    5a12:	4641      	mov	r1, r8
    5a14:	6bd8      	ldr	r0, [r3, #60]	; 0x3c
    5a16:	bf08      	it	eq
    5a18:	2101      	moveq	r1, #1
    5a1a:	f7ff fd4f 	bl	54bc <bgetr>
    5a1e:	4605      	mov	r5, r0
/media/wen/My_Passport/Raspbian/raspbian-tee/raspbian-tee/optee_os/lib/libutils/isoc/bget_malloc.c:375
    5a20:	4b16      	ldr	r3, [pc, #88]	; (5a7c <malloc_add_pool+0xc0>)
    5a22:	4641      	mov	r1, r8
    5a24:	4628      	mov	r0, r5
    5a26:	447b      	add	r3, pc
    5a28:	691a      	ldr	r2, [r3, #16]
    5a2a:	f7ff fae3 	bl	4ff4 <raw_malloc_return_hook.isra.3>
malloc_add_pool():
/media/wen/My_Passport/Raspbian/raspbian-tee/raspbian-tee/optee_os/lib/libutils/isoc/bget_malloc.c:904
    5a2e:	b95d      	cbnz	r5, 5a48 <malloc_add_pool+0x8c>
/media/wen/My_Passport/Raspbian/raspbian-tee/raspbian-tee/optee_os/lib/libutils/isoc/bget_malloc.c:904 (discriminator 1)
    5a30:	4b13      	ldr	r3, [pc, #76]	; (5a80 <malloc_add_pool+0xc4>)
    5a32:	f44f 7262 	mov.w	r2, #904	; 0x388
    5a36:	4913      	ldr	r1, [pc, #76]	; (5a84 <malloc_add_pool+0xc8>)
    5a38:	4813      	ldr	r0, [pc, #76]	; (5a88 <malloc_add_pool+0xcc>)
    5a3a:	447b      	add	r3, pc
    5a3c:	3359      	adds	r3, #89	; 0x59
    5a3e:	4479      	add	r1, pc
    5a40:	4478      	add	r0, pc
    5a42:	e7ce      	b.n	59e2 <malloc_add_pool+0x26>
raw_realloc():
/media/wen/My_Passport/Raspbian/raspbian-tee/raspbian-tee/optee_os/lib/libutils/isoc/bget_malloc.c:358
    5a44:	2500      	movs	r5, #0
    5a46:	e7eb      	b.n	5a20 <malloc_add_pool+0x64>
malloc_add_pool():
/media/wen/My_Passport/Raspbian/raspbian-tee/raspbian-tee/optee_os/lib/libutils/isoc/bget_malloc.c:905
    5a48:	4b10      	ldr	r3, [pc, #64]	; (5a8c <malloc_add_pool+0xd0>)
    5a4a:	447b      	add	r3, pc
/media/wen/My_Passport/Raspbian/raspbian-tee/raspbian-tee/optee_os/lib/libutils/isoc/bget_malloc.c:906
    5a4c:	6b9a      	ldr	r2, [r3, #56]	; 0x38
/media/wen/My_Passport/Raspbian/raspbian-tee/raspbian-tee/optee_os/lib/libutils/isoc/bget_malloc.c:905
    5a4e:	63dd      	str	r5, [r3, #60]	; 0x3c
/media/wen/My_Passport/Raspbian/raspbian-tee/raspbian-tee/optee_os/lib/libutils/isoc/bget_malloc.c:911
    5a50:	639f      	str	r7, [r3, #56]	; 0x38
/media/wen/My_Passport/Raspbian/raspbian-tee/raspbian-tee/optee_os/lib/libutils/isoc/bget_malloc.c:906
    5a52:	eb05 01c2 	add.w	r1, r5, r2, lsl #3
    5a56:	f845 6032 	str.w	r6, [r5, r2, lsl #3]
/media/wen/My_Passport/Raspbian/raspbian-tee/raspbian-tee/optee_os/lib/libutils/isoc/bget_malloc.c:907
    5a5a:	604c      	str	r4, [r1, #4]
/media/wen/My_Passport/Raspbian/raspbian-tee/raspbian-tee/optee_os/lib/libutils/isoc/bget_malloc.c:909
    5a5c:	6a99      	ldr	r1, [r3, #40]	; 0x28
    5a5e:	440c      	add	r4, r1
    5a60:	629c      	str	r4, [r3, #40]	; 0x28
    5a62:	e8bd 81f0 	ldmia.w	sp!, {r4, r5, r6, r7, r8, pc}
    5a66:	bf00      	nop
    5a68:	0000108c 	.word	0x0000108c
    5a6c:	00001112 	.word	0x00001112
    5a70:	000014f2 	.word	0x000014f2
    5a74:	0000267a 	.word	0x0000267a
    5a78:	000046bc 	.word	0x000046bc
    5a7c:	0000264a 	.word	0x0000264a
    5a80:	0000102c 	.word	0x0000102c
    5a84:	000010b2 	.word	0x000010b2
    5a88:	0000149e 	.word	0x0000149e
    5a8c:	00004672 	.word	0x00004672

00005a90 <malloc_buffer_is_within_alloced>:
malloc_buffer_is_within_alloced():
/media/wen/My_Passport/Raspbian/raspbian-tee/raspbian-tee/optee_os/lib/libutils/isoc/bget_malloc.c:927
    5a90:	1841      	adds	r1, r0, r1
/media/wen/My_Passport/Raspbian/raspbian-tee/raspbian-tee/optee_os/lib/libutils/isoc/bget_malloc.c:916
    5a92:	b5f8      	push	{r3, r4, r5, r6, r7, lr}
/media/wen/My_Passport/Raspbian/raspbian-tee/raspbian-tee/optee_os/lib/libutils/isoc/bget_malloc.c:927
    5a94:	d253      	bcs.n	5b3e <malloc_buffer_is_within_alloced+0xae>
bpool_foreach_iterator_init():
/media/wen/My_Passport/Raspbian/raspbian-tee/raspbian-tee/optee_os/lib/libutils/isoc/bget_malloc.c:230
    5a96:	4b2b      	ldr	r3, [pc, #172]	; (5b44 <malloc_buffer_is_within_alloced+0xb4>)
/media/wen/My_Passport/Raspbian/raspbian-tee/raspbian-tee/optee_os/lib/libutils/isoc/bget_malloc.c:229
    5a98:	2500      	movs	r5, #0
bget_buf_size():
/media/wen/My_Passport/Raspbian/raspbian-tee/raspbian-tee/optee_os/lib/libutils/isoc/bget_malloc.c:611
    5a9a:	f06f 0707 	mvn.w	r7, #7
bpool_foreach_iterator_init():
/media/wen/My_Passport/Raspbian/raspbian-tee/raspbian-tee/optee_os/lib/libutils/isoc/bget_malloc.c:230
    5a9e:	447b      	add	r3, pc
    5aa0:	6bde      	ldr	r6, [r3, #60]	; 0x3c
bpool_foreach():
/media/wen/My_Passport/Raspbian/raspbian-tee/raspbian-tee/optee_os/lib/libutils/isoc/bget_malloc.c:275
    5aa2:	f8d3 e038 	ldr.w	lr, [r3, #56]	; 0x38
bpool_foreach_iterator_init():
/media/wen/My_Passport/Raspbian/raspbian-tee/raspbian-tee/optee_os/lib/libutils/isoc/bget_malloc.c:230
    5aa6:	6833      	ldr	r3, [r6, #0]
bpool_foreach_pool():
/media/wen/My_Passport/Raspbian/raspbian-tee/raspbian-tee/optee_os/lib/libutils/isoc/bget_malloc.c:237
    5aa8:	685a      	ldr	r2, [r3, #4]
/media/wen/My_Passport/Raspbian/raspbian-tee/raspbian-tee/optee_os/lib/libutils/isoc/bget_malloc.c:239
    5aaa:	f1b2 4f00 	cmp.w	r2, #2147483648	; 0x80000000
    5aae:	d043      	beq.n	5b38 <malloc_buffer_is_within_alloced+0xa8>
/media/wen/My_Passport/Raspbian/raspbian-tee/raspbian-tee/optee_os/lib/libutils/isoc/bget_malloc.c:242
    5ab0:	2a00      	cmp	r2, #0
    5ab2:	da1e      	bge.n	5af2 <malloc_buffer_is_within_alloced+0x62>
/media/wen/My_Passport/Raspbian/raspbian-tee/raspbian-tee/optee_os/lib/libutils/isoc/bget_malloc.c:244
    5ab4:	4254      	negs	r4, r2
/media/wen/My_Passport/Raspbian/raspbian-tee/raspbian-tee/optee_os/lib/libutils/isoc/bget_malloc.c:246
    5ab6:	f04f 0c00 	mov.w	ip, #0
/media/wen/My_Passport/Raspbian/raspbian-tee/raspbian-tee/optee_os/lib/libutils/isoc/bget_malloc.c:259
    5aba:	441c      	add	r4, r3
bpool_foreach():
/media/wen/My_Passport/Raspbian/raspbian-tee/raspbian-tee/optee_os/lib/libutils/isoc/bget_malloc.c:270
    5abc:	f1bc 0f00 	cmp.w	ip, #0
    5ac0:	d115      	bne.n	5aee <malloc_buffer_is_within_alloced+0x5e>
bget_buf_size():
/media/wen/My_Passport/Raspbian/raspbian-tee/raspbian-tee/optee_os/lib/libutils/isoc/bget_malloc.c:611
    5ac2:	1aba      	subs	r2, r7, r2
/media/wen/My_Passport/Raspbian/raspbian-tee/raspbian-tee/optee_os/lib/libutils/isoc/bget_malloc.c:612
    5ac4:	2a00      	cmp	r2, #0
    5ac6:	dc0c      	bgt.n	5ae2 <malloc_buffer_is_within_alloced+0x52>
    5ac8:	4b1f      	ldr	r3, [pc, #124]	; (5b48 <malloc_buffer_is_within_alloced+0xb8>)
    5aca:	f44f 7219 	mov.w	r2, #612	; 0x264
    5ace:	491f      	ldr	r1, [pc, #124]	; (5b4c <malloc_buffer_is_within_alloced+0xbc>)
    5ad0:	481f      	ldr	r0, [pc, #124]	; (5b50 <malloc_buffer_is_within_alloced+0xc0>)
    5ad2:	447b      	add	r3, pc
    5ad4:	3369      	adds	r3, #105	; 0x69
    5ad6:	4479      	add	r1, pc
    5ad8:	4478      	add	r0, pc
bpool_foreach_pool():
/media/wen/My_Passport/Raspbian/raspbian-tee/raspbian-tee/optee_os/lib/libutils/isoc/bget_malloc.c:252
    5ada:	f000 f8e9 	bl	5cb0 <_assert_log>
    5ade:	f000 f8fb 	bl	5cd8 <_assert_break>
/media/wen/My_Passport/Raspbian/raspbian-tee/raspbian-tee/optee_os/lib/libutils/isoc/bget_malloc.c:256
    5ae2:	3308      	adds	r3, #8
malloc_buffer_is_within_alloced():
/media/wen/My_Passport/Raspbian/raspbian-tee/raspbian-tee/optee_os/lib/libutils/isoc/bget_malloc.c:938
    5ae4:	4298      	cmp	r0, r3
    5ae6:	d302      	bcc.n	5aee <malloc_buffer_is_within_alloced+0x5e>
/media/wen/My_Passport/Raspbian/raspbian-tee/raspbian-tee/optee_os/lib/libutils/isoc/bget_malloc.c:936 (discriminator 1)
    5ae8:	441a      	add	r2, r3
/media/wen/My_Passport/Raspbian/raspbian-tee/raspbian-tee/optee_os/lib/libutils/isoc/bget_malloc.c:938 (discriminator 1)
    5aea:	4291      	cmp	r1, r2
    5aec:	d922      	bls.n	5b34 <malloc_buffer_is_within_alloced+0xa4>
bpool_foreach():
/media/wen/My_Passport/Raspbian/raspbian-tee/raspbian-tee/optee_os/lib/libutils/isoc/bget_malloc.c:279
    5aee:	4623      	mov	r3, r4
    5af0:	e7da      	b.n	5aa8 <malloc_buffer_is_within_alloced+0x18>
bpool_foreach_pool():
/media/wen/My_Passport/Raspbian/raspbian-tee/raspbian-tee/optee_os/lib/libutils/isoc/bget_malloc.c:252
    5af2:	68dc      	ldr	r4, [r3, #12]
    5af4:	68a4      	ldr	r4, [r4, #8]
    5af6:	429c      	cmp	r4, r3
    5af8:	d008      	beq.n	5b0c <malloc_buffer_is_within_alloced+0x7c>
    5afa:	4b16      	ldr	r3, [pc, #88]	; (5b54 <malloc_buffer_is_within_alloced+0xc4>)
    5afc:	22fc      	movs	r2, #252	; 0xfc
    5afe:	4916      	ldr	r1, [pc, #88]	; (5b58 <malloc_buffer_is_within_alloced+0xc8>)
    5b00:	4816      	ldr	r0, [pc, #88]	; (5b5c <malloc_buffer_is_within_alloced+0xcc>)
    5b02:	447b      	add	r3, pc
    5b04:	3377      	adds	r3, #119	; 0x77
    5b06:	4479      	add	r1, pc
    5b08:	4478      	add	r0, pc
    5b0a:	e7e6      	b.n	5ada <malloc_buffer_is_within_alloced+0x4a>
/media/wen/My_Passport/Raspbian/raspbian-tee/raspbian-tee/optee_os/lib/libutils/isoc/bget_malloc.c:253
    5b0c:	689c      	ldr	r4, [r3, #8]
    5b0e:	68e4      	ldr	r4, [r4, #12]
    5b10:	429c      	cmp	r4, r3
    5b12:	d008      	beq.n	5b26 <malloc_buffer_is_within_alloced+0x96>
    5b14:	4b12      	ldr	r3, [pc, #72]	; (5b60 <malloc_buffer_is_within_alloced+0xd0>)
    5b16:	22fd      	movs	r2, #253	; 0xfd
    5b18:	4912      	ldr	r1, [pc, #72]	; (5b64 <malloc_buffer_is_within_alloced+0xd4>)
    5b1a:	4813      	ldr	r0, [pc, #76]	; (5b68 <malloc_buffer_is_within_alloced+0xd8>)
    5b1c:	447b      	add	r3, pc
    5b1e:	3377      	adds	r3, #119	; 0x77
    5b20:	4479      	add	r1, pc
    5b22:	4478      	add	r0, pc
    5b24:	e7d9      	b.n	5ada <malloc_buffer_is_within_alloced+0x4a>
    5b26:	4614      	mov	r4, r2
/media/wen/My_Passport/Raspbian/raspbian-tee/raspbian-tee/optee_os/lib/libutils/isoc/bget_malloc.c:249
    5b28:	f04f 0c01 	mov.w	ip, #1
    5b2c:	e7c5      	b.n	5aba <malloc_buffer_is_within_alloced+0x2a>
bpool_foreach():
/media/wen/My_Passport/Raspbian/raspbian-tee/raspbian-tee/optee_os/lib/libutils/isoc/bget_malloc.c:279
    5b2e:	f856 4035 	ldr.w	r4, [r6, r5, lsl #3]
    5b32:	e7dc      	b.n	5aee <malloc_buffer_is_within_alloced+0x5e>
malloc_buffer_is_within_alloced():
/media/wen/My_Passport/Raspbian/raspbian-tee/raspbian-tee/optee_os/lib/libutils/isoc/bget_malloc.c:939
    5b34:	2001      	movs	r0, #1
/media/wen/My_Passport/Raspbian/raspbian-tee/raspbian-tee/optee_os/lib/libutils/isoc/bget_malloc.c:947
    5b36:	bdf8      	pop	{r3, r4, r5, r6, r7, pc}
bpool_foreach():
/media/wen/My_Passport/Raspbian/raspbian-tee/raspbian-tee/optee_os/lib/libutils/isoc/bget_malloc.c:275
    5b38:	3501      	adds	r5, #1
    5b3a:	4575      	cmp	r5, lr
    5b3c:	d3f7      	bcc.n	5b2e <malloc_buffer_is_within_alloced+0x9e>
malloc_buffer_is_within_alloced():
/media/wen/My_Passport/Raspbian/raspbian-tee/raspbian-tee/optee_os/lib/libutils/isoc/bget_malloc.c:921
    5b3e:	2000      	movs	r0, #0
    5b40:	bdf8      	pop	{r3, r4, r5, r6, r7, pc}
    5b42:	bf00      	nop
    5b44:	0000461e 	.word	0x0000461e
    5b48:	00000f94 	.word	0x00000f94
    5b4c:	0000101a 	.word	0x0000101a
    5b50:	0000129b 	.word	0x0000129b
    5b54:	00000f64 	.word	0x00000f64
    5b58:	00000fea 	.word	0x00000fea
    5b5c:	0000110b 	.word	0x0000110b
    5b60:	00000f4a 	.word	0x00000f4a
    5b64:	00000fd0 	.word	0x00000fd0
    5b68:	0000110c 	.word	0x0000110c

00005b6c <malloc_buffer_overlaps_heap>:
malloc_buffer_overlaps_heap():
/media/wen/My_Passport/Raspbian/raspbian-tee/raspbian-tee/optee_os/lib/libutils/isoc/bget_malloc.c:960
    5b6c:	4b0e      	ldr	r3, [pc, #56]	; (5ba8 <malloc_buffer_overlaps_heap+0x3c>)
/media/wen/My_Passport/Raspbian/raspbian-tee/raspbian-tee/optee_os/lib/libutils/isoc/bget_malloc.c:953
    5b6e:	4401      	add	r1, r0
/media/wen/My_Passport/Raspbian/raspbian-tee/raspbian-tee/optee_os/lib/libutils/isoc/bget_malloc.c:951
    5b70:	b570      	push	{r4, r5, r6, lr}
/media/wen/My_Passport/Raspbian/raspbian-tee/raspbian-tee/optee_os/lib/libutils/isoc/bget_malloc.c:960
    5b72:	447b      	add	r3, pc
    5b74:	6b9e      	ldr	r6, [r3, #56]	; 0x38
/media/wen/My_Passport/Raspbian/raspbian-tee/raspbian-tee/optee_os/lib/libutils/isoc/bget_malloc.c:961
    5b76:	6bdd      	ldr	r5, [r3, #60]	; 0x3c
/media/wen/My_Passport/Raspbian/raspbian-tee/raspbian-tee/optee_os/lib/libutils/isoc/bget_malloc.c:960
    5b78:	2300      	movs	r3, #0
/media/wen/My_Passport/Raspbian/raspbian-tee/raspbian-tee/optee_os/lib/libutils/isoc/bget_malloc.c:960 (discriminator 1)
    5b7a:	42b3      	cmp	r3, r6
    5b7c:	d101      	bne.n	5b82 <malloc_buffer_overlaps_heap+0x16>
/media/wen/My_Passport/Raspbian/raspbian-tee/raspbian-tee/optee_os/lib/libutils/isoc/bget_malloc.c:955
    5b7e:	2000      	movs	r0, #0
    5b80:	bd70      	pop	{r4, r5, r6, pc}
/media/wen/My_Passport/Raspbian/raspbian-tee/raspbian-tee/optee_os/lib/libutils/isoc/bget_malloc.c:962
    5b82:	eb05 02c3 	add.w	r2, r5, r3, lsl #3
/media/wen/My_Passport/Raspbian/raspbian-tee/raspbian-tee/optee_os/lib/libutils/isoc/bget_malloc.c:964
    5b86:	4288      	cmp	r0, r1
/media/wen/My_Passport/Raspbian/raspbian-tee/raspbian-tee/optee_os/lib/libutils/isoc/bget_malloc.c:961
    5b88:	f855 4033 	ldr.w	r4, [r5, r3, lsl #3]
/media/wen/My_Passport/Raspbian/raspbian-tee/raspbian-tee/optee_os/lib/libutils/isoc/bget_malloc.c:962
    5b8c:	6852      	ldr	r2, [r2, #4]
    5b8e:	4422      	add	r2, r4
/media/wen/My_Passport/Raspbian/raspbian-tee/raspbian-tee/optee_os/lib/libutils/isoc/bget_malloc.c:964
    5b90:	d807      	bhi.n	5ba2 <malloc_buffer_overlaps_heap+0x36>
/media/wen/My_Passport/Raspbian/raspbian-tee/raspbian-tee/optee_os/lib/libutils/isoc/bget_malloc.c:964 (discriminator 1)
    5b92:	4294      	cmp	r4, r2
    5b94:	d805      	bhi.n	5ba2 <malloc_buffer_overlaps_heap+0x36>
/media/wen/My_Passport/Raspbian/raspbian-tee/raspbian-tee/optee_os/lib/libutils/isoc/bget_malloc.c:969
    5b96:	42a1      	cmp	r1, r4
    5b98:	d803      	bhi.n	5ba2 <malloc_buffer_overlaps_heap+0x36>
/media/wen/My_Passport/Raspbian/raspbian-tee/raspbian-tee/optee_os/lib/libutils/isoc/bget_malloc.c:969 (discriminator 1)
    5b9a:	4290      	cmp	r0, r2
    5b9c:	d301      	bcc.n	5ba2 <malloc_buffer_overlaps_heap+0x36>
/media/wen/My_Passport/Raspbian/raspbian-tee/raspbian-tee/optee_os/lib/libutils/isoc/bget_malloc.c:960 (discriminator 2)
    5b9e:	3301      	adds	r3, #1
    5ba0:	e7eb      	b.n	5b7a <malloc_buffer_overlaps_heap+0xe>
/media/wen/My_Passport/Raspbian/raspbian-tee/raspbian-tee/optee_os/lib/libutils/isoc/bget_malloc.c:965
    5ba2:	2001      	movs	r0, #1
/media/wen/My_Passport/Raspbian/raspbian-tee/raspbian-tee/optee_os/lib/libutils/isoc/bget_malloc.c:978
    5ba4:	bd70      	pop	{r4, r5, r6, pc}
    5ba6:	bf00      	nop
    5ba8:	0000454a 	.word	0x0000454a

00005bac <mempool_alloc_pool>:
mempool_alloc_pool():
/media/wen/My_Passport/Raspbian/raspbian-tee/raspbian-tee/optee_os/lib/libutils/ext/mempool.c:130
    5bac:	b538      	push	{r3, r4, r5, lr}
    5bae:	4604      	mov	r4, r0
    5bb0:	460d      	mov	r5, r1
/media/wen/My_Passport/Raspbian/raspbian-tee/raspbian-tee/optee_os/lib/libutils/ext/mempool.c:131
    5bb2:	2001      	movs	r0, #1
    5bb4:	210c      	movs	r1, #12
    5bb6:	f7ff fd63 	bl	5680 <calloc>
/media/wen/My_Passport/Raspbian/raspbian-tee/raspbian-tee/optee_os/lib/libutils/ext/mempool.c:134
    5bba:	07a3      	lsls	r3, r4, #30
    5bbc:	d00a      	beq.n	5bd4 <mempool_alloc_pool+0x28>
/media/wen/My_Passport/Raspbian/raspbian-tee/raspbian-tee/optee_os/lib/libutils/ext/mempool.c:134 (discriminator 1)
    5bbe:	4b09      	ldr	r3, [pc, #36]	; (5be4 <mempool_alloc_pool+0x38>)
    5bc0:	2286      	movs	r2, #134	; 0x86
    5bc2:	4909      	ldr	r1, [pc, #36]	; (5be8 <mempool_alloc_pool+0x3c>)
    5bc4:	4809      	ldr	r0, [pc, #36]	; (5bec <mempool_alloc_pool+0x40>)
    5bc6:	447b      	add	r3, pc
    5bc8:	4479      	add	r1, pc
    5bca:	4478      	add	r0, pc
    5bcc:	f000 f870 	bl	5cb0 <_assert_log>
    5bd0:	f000 f882 	bl	5cd8 <_assert_break>
/media/wen/My_Passport/Raspbian/raspbian-tee/raspbian-tee/optee_os/lib/libutils/ext/mempool.c:136
    5bd4:	b120      	cbz	r0, 5be0 <mempool_alloc_pool+0x34>
/media/wen/My_Passport/Raspbian/raspbian-tee/raspbian-tee/optee_os/lib/libutils/ext/mempool.c:139
    5bd6:	f04f 33ff 	mov.w	r3, #4294967295
/media/wen/My_Passport/Raspbian/raspbian-tee/raspbian-tee/optee_os/lib/libutils/ext/mempool.c:137
    5bda:	6005      	str	r5, [r0, #0]
/media/wen/My_Passport/Raspbian/raspbian-tee/raspbian-tee/optee_os/lib/libutils/ext/mempool.c:138
    5bdc:	6084      	str	r4, [r0, #8]
/media/wen/My_Passport/Raspbian/raspbian-tee/raspbian-tee/optee_os/lib/libutils/ext/mempool.c:139
    5bde:	6043      	str	r3, [r0, #4]
/media/wen/My_Passport/Raspbian/raspbian-tee/raspbian-tee/optee_os/lib/libutils/ext/mempool.c:149
    5be0:	bd38      	pop	{r3, r4, r5, pc}
    5be2:	bf00      	nop
    5be4:	0000131a 	.word	0x0000131a
    5be8:	00001339 	.word	0x00001339
    5bec:	00001352 	.word	0x00001352

00005bf0 <mempool_alloc>:
mempool_alloc():
/media/wen/My_Passport/Raspbian/raspbian-tee/raspbian-tee/optee_os/lib/libutils/ext/mempool.c:152
    5bf0:	b573      	push	{r0, r1, r4, r5, r6, lr}
/media/wen/My_Passport/Raspbian/raspbian-tee/raspbian-tee/optee_os/lib/libutils/ext/mempool.c:159
    5bf2:	6844      	ldr	r4, [r0, #4]
    5bf4:	6802      	ldr	r2, [r0, #0]
    5bf6:	2c00      	cmp	r4, #0
    5bf8:	db16      	blt.n	5c28 <mempool_alloc+0x38>
/media/wen/My_Passport/Raspbian/raspbian-tee/raspbian-tee/optee_os/lib/libutils/ext/mempool.c:162
    5bfa:	6886      	ldr	r6, [r0, #8]
/media/wen/My_Passport/Raspbian/raspbian-tee/raspbian-tee/optee_os/lib/libutils/ext/mempool.c:166
    5bfc:	1ce3      	adds	r3, r4, #3
/media/wen/My_Passport/Raspbian/raspbian-tee/raspbian-tee/optee_os/lib/libutils/ext/mempool.c:162
    5bfe:	19a5      	adds	r5, r4, r6
/media/wen/My_Passport/Raspbian/raspbian-tee/raspbian-tee/optee_os/lib/libutils/ext/mempool.c:166
    5c00:	59a6      	ldr	r6, [r4, r6]
    5c02:	4433      	add	r3, r6
    5c04:	f023 0303 	bic.w	r3, r3, #3
/media/wen/My_Passport/Raspbian/raspbian-tee/raspbian-tee/optee_os/lib/libutils/ext/mempool.c:167
    5c08:	4293      	cmp	r3, r2
    5c0a:	d90f      	bls.n	5c2c <mempool_alloc+0x3c>
/media/wen/My_Passport/Raspbian/raspbian-tee/raspbian-tee/optee_os/lib/libutils/ext/mempool.c:194
    5c0c:	4b11      	ldr	r3, [pc, #68]	; (5c54 <mempool_alloc+0x64>)
    5c0e:	4812      	ldr	r0, [pc, #72]	; (5c58 <mempool_alloc+0x68>)
    5c10:	447b      	add	r3, pc
    5c12:	9101      	str	r1, [sp, #4]
    5c14:	9300      	str	r3, [sp, #0]
    5c16:	4478      	add	r0, pc
    5c18:	2301      	movs	r3, #1
    5c1a:	3013      	adds	r0, #19
    5c1c:	461a      	mov	r2, r3
    5c1e:	21c2      	movs	r1, #194	; 0xc2
    5c20:	f7fa fcc4 	bl	5ac <trace_printf>
/media/wen/My_Passport/Raspbian/raspbian-tee/raspbian-tee/optee_os/lib/libutils/ext/mempool.c:196
    5c24:	2000      	movs	r0, #0
    5c26:	e013      	b.n	5c50 <mempool_alloc+0x60>
/media/wen/My_Passport/Raspbian/raspbian-tee/raspbian-tee/optee_os/lib/libutils/ext/mempool.c:155
    5c28:	2500      	movs	r5, #0
/media/wen/My_Passport/Raspbian/raspbian-tee/raspbian-tee/optee_os/lib/libutils/ext/mempool.c:160
    5c2a:	462b      	mov	r3, r5
/media/wen/My_Passport/Raspbian/raspbian-tee/raspbian-tee/optee_os/lib/libutils/ext/mempool.c:172
    5c2c:	310f      	adds	r1, #15
    5c2e:	f021 0103 	bic.w	r1, r1, #3
/media/wen/My_Passport/Raspbian/raspbian-tee/raspbian-tee/optee_os/lib/libutils/ext/mempool.c:173
    5c32:	185e      	adds	r6, r3, r1
    5c34:	4296      	cmp	r6, r2
    5c36:	d8e9      	bhi.n	5c0c <mempool_alloc+0x1c>
/media/wen/My_Passport/Raspbian/raspbian-tee/raspbian-tee/optee_os/lib/libutils/ext/mempool.c:176
    5c38:	6886      	ldr	r6, [r0, #8]
    5c3a:	199a      	adds	r2, r3, r6
/media/wen/My_Passport/Raspbian/raspbian-tee/raspbian-tee/optee_os/lib/libutils/ext/mempool.c:177
    5c3c:	5199      	str	r1, [r3, r6]
/media/wen/My_Passport/Raspbian/raspbian-tee/raspbian-tee/optee_os/lib/libutils/ext/mempool.c:178
    5c3e:	6054      	str	r4, [r2, #4]
/media/wen/My_Passport/Raspbian/raspbian-tee/raspbian-tee/optee_os/lib/libutils/ext/mempool.c:179
    5c40:	b105      	cbz	r5, 5c44 <mempool_alloc+0x54>
/media/wen/My_Passport/Raspbian/raspbian-tee/raspbian-tee/optee_os/lib/libutils/ext/mempool.c:180
    5c42:	60ab      	str	r3, [r5, #8]
/media/wen/My_Passport/Raspbian/raspbian-tee/raspbian-tee/optee_os/lib/libutils/ext/mempool.c:181
    5c44:	f04f 31ff 	mov.w	r1, #4294967295
    5c48:	6091      	str	r1, [r2, #8]
/media/wen/My_Passport/Raspbian/raspbian-tee/raspbian-tee/optee_os/lib/libutils/ext/mempool.c:182
    5c4a:	6043      	str	r3, [r0, #4]
/media/wen/My_Passport/Raspbian/raspbian-tee/raspbian-tee/optee_os/lib/libutils/ext/mempool.c:191
    5c4c:	f102 000c 	add.w	r0, r2, #12
/media/wen/My_Passport/Raspbian/raspbian-tee/raspbian-tee/optee_os/lib/libutils/ext/mempool.c:197
    5c50:	b002      	add	sp, #8
    5c52:	bd70      	pop	{r4, r5, r6, pc}
    5c54:	00001330 	.word	0x00001330
    5c58:	000012ca 	.word	0x000012ca

00005c5c <mempool_calloc>:
mempool_calloc():
/media/wen/My_Passport/Raspbian/raspbian-tee/raspbian-tee/optee_os/lib/libutils/ext/mempool.c:200
    5c5c:	b570      	push	{r4, r5, r6, lr}
/media/wen/My_Passport/Raspbian/raspbian-tee/raspbian-tee/optee_os/lib/libutils/ext/mempool.c:204
    5c5e:	fba1 4502 	umull	r4, r5, r1, r2
    5c62:	b935      	cbnz	r5, 5c72 <mempool_calloc+0x16>
/media/wen/My_Passport/Raspbian/raspbian-tee/raspbian-tee/optee_os/lib/libutils/ext/mempool.c:207
    5c64:	4621      	mov	r1, r4
    5c66:	f7ff ffc3 	bl	5bf0 <mempool_alloc>
/media/wen/My_Passport/Raspbian/raspbian-tee/raspbian-tee/optee_os/lib/libutils/ext/mempool.c:208
    5c6a:	4606      	mov	r6, r0
    5c6c:	b918      	cbnz	r0, 5c76 <mempool_calloc+0x1a>
/media/wen/My_Passport/Raspbian/raspbian-tee/raspbian-tee/optee_os/lib/libutils/ext/mempool.c:212
    5c6e:	4630      	mov	r0, r6
    5c70:	bd70      	pop	{r4, r5, r6, pc}
/media/wen/My_Passport/Raspbian/raspbian-tee/raspbian-tee/optee_os/lib/libutils/ext/mempool.c:205
    5c72:	2600      	movs	r6, #0
    5c74:	e7fb      	b.n	5c6e <mempool_calloc+0x12>
/media/wen/My_Passport/Raspbian/raspbian-tee/raspbian-tee/optee_os/lib/libutils/ext/mempool.c:209
    5c76:	4622      	mov	r2, r4
    5c78:	4629      	mov	r1, r5
    5c7a:	f000 f842 	bl	5d02 <memset>
    5c7e:	e7f6      	b.n	5c6e <mempool_calloc+0x12>

00005c80 <mempool_free>:
mempool_free():
/media/wen/My_Passport/Raspbian/raspbian-tee/raspbian-tee/optee_os/lib/libutils/ext/mempool.c:215
    5c80:	b510      	push	{r4, lr}
/media/wen/My_Passport/Raspbian/raspbian-tee/raspbian-tee/optee_os/lib/libutils/ext/mempool.c:221
    5c82:	b181      	cbz	r1, 5ca6 <mempool_free+0x26>
/media/wen/My_Passport/Raspbian/raspbian-tee/raspbian-tee/optee_os/lib/libutils/ext/mempool.c:224
    5c84:	390c      	subs	r1, #12
/media/wen/My_Passport/Raspbian/raspbian-tee/raspbian-tee/optee_os/lib/libutils/ext/mempool.c:226
    5c86:	684b      	ldr	r3, [r1, #4]
    5c88:	2b00      	cmp	r3, #0
    5c8a:	db0d      	blt.n	5ca8 <mempool_free+0x28>
/media/wen/My_Passport/Raspbian/raspbian-tee/raspbian-tee/optee_os/lib/libutils/ext/mempool.c:229
    5c8c:	6882      	ldr	r2, [r0, #8]
    5c8e:	688c      	ldr	r4, [r1, #8]
    5c90:	441a      	add	r2, r3
    5c92:	6094      	str	r4, [r2, #8]
    5c94:	461a      	mov	r2, r3
/media/wen/My_Passport/Raspbian/raspbian-tee/raspbian-tee/optee_os/lib/libutils/ext/mempool.c:233
    5c96:	6889      	ldr	r1, [r1, #8]
    5c98:	2900      	cmp	r1, #0
    5c9a:	db03      	blt.n	5ca4 <mempool_free+0x24>
/media/wen/My_Passport/Raspbian/raspbian-tee/raspbian-tee/optee_os/lib/libutils/ext/mempool.c:236
    5c9c:	6882      	ldr	r2, [r0, #8]
    5c9e:	440a      	add	r2, r1
    5ca0:	6053      	str	r3, [r2, #4]
/media/wen/My_Passport/Raspbian/raspbian-tee/raspbian-tee/optee_os/lib/libutils/ext/mempool.c:237
    5ca2:	6842      	ldr	r2, [r0, #4]
/media/wen/My_Passport/Raspbian/raspbian-tee/raspbian-tee/optee_os/lib/libutils/ext/mempool.c:240
    5ca4:	6042      	str	r2, [r0, #4]
    5ca6:	bd10      	pop	{r4, pc}
/media/wen/My_Passport/Raspbian/raspbian-tee/raspbian-tee/optee_os/lib/libutils/ext/mempool.c:219
    5ca8:	f04f 32ff 	mov.w	r2, #4294967295
    5cac:	e7f3      	b.n	5c96 <mempool_free+0x16>
    5cae:	bf00      	nop

00005cb0 <_assert_log>:
_assert_log():
/media/wen/My_Passport/Raspbian/raspbian-tee/raspbian-tee/optee_os/lib/libutee/assert.c:17
    5cb0:	b57f      	push	{r0, r1, r2, r3, r4, r5, r6, lr}
/media/wen/My_Passport/Raspbian/raspbian-tee/raspbian-tee/optee_os/lib/libutee/assert.c:18
    5cb2:	9304      	str	r3, [sp, #16]
    5cb4:	4b07      	ldr	r3, [pc, #28]	; (5cd4 <_assert_log+0x24>)
    5cb6:	9102      	str	r1, [sp, #8]
    5cb8:	2100      	movs	r1, #0
    5cba:	447b      	add	r3, pc
    5cbc:	9203      	str	r2, [sp, #12]
    5cbe:	9300      	str	r3, [sp, #0]
    5cc0:	2301      	movs	r3, #1
    5cc2:	9001      	str	r0, [sp, #4]
    5cc4:	461a      	mov	r2, r3
    5cc6:	4608      	mov	r0, r1
    5cc8:	f7fa fc70 	bl	5ac <trace_printf>
/media/wen/My_Passport/Raspbian/raspbian-tee/raspbian-tee/optee_os/lib/libutee/assert.c:20
    5ccc:	b007      	add	sp, #28
    5cce:	f85d fb04 	ldr.w	pc, [sp], #4
    5cd2:	bf00      	nop
    5cd4:	000012be 	.word	0x000012be

00005cd8 <_assert_break>:
_assert_break():
/media/wen/My_Passport/Raspbian/raspbian-tee/raspbian-tee/optee_os/lib/libutee/assert.c:23
    5cd8:	b508      	push	{r3, lr}
/media/wen/My_Passport/Raspbian/raspbian-tee/raspbian-tee/optee_os/lib/libutee/assert.c:24
    5cda:	4802      	ldr	r0, [pc, #8]	; (5ce4 <_assert_break+0xc>)
    5cdc:	f7fb eb9a 	blx	1414 <utee_panic>
    5ce0:	e7fe      	b.n	5ce0 <_assert_break+0x8>
    5ce2:	bf00      	nop
    5ce4:	ffff0000 	.word	0xffff0000

00005ce8 <tahead_get_trace_level>:
tahead_get_trace_level():
/media/wen/My_Passport/Raspbian/raspbian-tee/raspbian-tee/optee_os/out/arm/export-ta_arm32/src/user_ta_header.c:107
    5ce8:	2001      	movs	r0, #1
    5cea:	4770      	bx	lr

00005cec <memcpy>:
memcpy():
/media/wen/My_Passport/Raspbian/raspbian-tee/raspbian-tee/optee_os/lib/libutils/isoc/newlib/memcpy.c:87
    5cec:	1e43      	subs	r3, r0, #1
    5cee:	440a      	add	r2, r1
    5cf0:	b510      	push	{r4, lr}
/media/wen/My_Passport/Raspbian/raspbian-tee/raspbian-tee/optee_os/lib/libutils/isoc/newlib/memcpy.c:94
    5cf2:	4291      	cmp	r1, r2
    5cf4:	d100      	bne.n	5cf8 <memcpy+0xc>
/media/wen/My_Passport/Raspbian/raspbian-tee/raspbian-tee/optee_os/lib/libutils/isoc/newlib/memcpy.c:135
    5cf6:	bd10      	pop	{r4, pc}
/media/wen/My_Passport/Raspbian/raspbian-tee/raspbian-tee/optee_os/lib/libutils/isoc/newlib/memcpy.c:95
    5cf8:	f811 4b01 	ldrb.w	r4, [r1], #1
    5cfc:	f803 4f01 	strb.w	r4, [r3, #1]!
    5d00:	e7f7      	b.n	5cf2 <memcpy+0x6>

00005d02 <memset>:
memset():
/media/wen/My_Passport/Raspbian/raspbian-tee/raspbian-tee/optee_os/lib/libutils/isoc/newlib/memset.c:76
    5d02:	4402      	add	r2, r0
/media/wen/My_Passport/Raspbian/raspbian-tee/raspbian-tee/optee_os/lib/libutils/isoc/newlib/memset.c:77
    5d04:	4603      	mov	r3, r0
/media/wen/My_Passport/Raspbian/raspbian-tee/raspbian-tee/optee_os/lib/libutils/isoc/newlib/memset.c:125
    5d06:	4293      	cmp	r3, r2
    5d08:	d100      	bne.n	5d0c <memset+0xa>
/media/wen/My_Passport/Raspbian/raspbian-tee/raspbian-tee/optee_os/lib/libutils/isoc/newlib/memset.c:129
    5d0a:	4770      	bx	lr
/media/wen/My_Passport/Raspbian/raspbian-tee/raspbian-tee/optee_os/lib/libutils/isoc/newlib/memset.c:126
    5d0c:	f803 1b01 	strb.w	r1, [r3], #1
    5d10:	e7f9      	b.n	5d06 <memset+0x4>

00005d12 <__aeabi_unwind_cpp_pr0>:
__aeabi_unwind_cpp_pr0():
    5d12:	4770      	bx	lr

00005d14 <__aeabi_unwind_cpp_pr1>:
__aeabi_unwind_cpp_pr1():
    5d14:	4770      	bx	lr

00005d16 <__aeabi_unwind_cpp_pr2>:
__aeabi_unwind_cpp_pr2():
/media/wen/My_Passport/Raspbian/raspbian-tee/raspbian-tee/optee_os/lib/libutils/ext/arch/arm/aeabi_unwind.c:18
    5d16:	4770      	bx	lr

00005d18 <memchr>:
memchr():
/media/wen/My_Passport/Raspbian/raspbian-tee/raspbian-tee/optee_os/lib/libutils/isoc/newlib/memchr.c:109
    5d18:	b2c9      	uxtb	r1, r1
    5d1a:	4402      	add	r2, r0
/media/wen/My_Passport/Raspbian/raspbian-tee/raspbian-tee/optee_os/lib/libutils/isoc/newlib/memchr.c:107
    5d1c:	b510      	push	{r4, lr}
/media/wen/My_Passport/Raspbian/raspbian-tee/raspbian-tee/optee_os/lib/libutils/isoc/newlib/memchr.c:153
    5d1e:	4290      	cmp	r0, r2
    5d20:	4603      	mov	r3, r0
    5d22:	d101      	bne.n	5d28 <memchr+0x10>
/media/wen/My_Passport/Raspbian/raspbian-tee/raspbian-tee/optee_os/lib/libutils/isoc/newlib/memchr.c:159
    5d24:	2000      	movs	r0, #0
    5d26:	bd10      	pop	{r4, pc}
/media/wen/My_Passport/Raspbian/raspbian-tee/raspbian-tee/optee_os/lib/libutils/isoc/newlib/memchr.c:154
    5d28:	781c      	ldrb	r4, [r3, #0]
    5d2a:	3001      	adds	r0, #1
    5d2c:	428c      	cmp	r4, r1
    5d2e:	d1f6      	bne.n	5d1e <memchr+0x6>
    5d30:	4618      	mov	r0, r3
/media/wen/My_Passport/Raspbian/raspbian-tee/raspbian-tee/optee_os/lib/libutils/isoc/newlib/memchr.c:160
    5d32:	bd10      	pop	{r4, pc}

00005d34 <strlen>:
strlen():
/media/wen/My_Passport/Raspbian/raspbian-tee/raspbian-tee/optee_os/lib/libutils/isoc/newlib/strlen.c:92
    5d34:	4603      	mov	r3, r0
/media/wen/My_Passport/Raspbian/raspbian-tee/raspbian-tee/optee_os/lib/libutils/isoc/newlib/strlen.c:117
    5d36:	781a      	ldrb	r2, [r3, #0]
    5d38:	1c59      	adds	r1, r3, #1
    5d3a:	b90a      	cbnz	r2, 5d40 <strlen+0xc>
/media/wen/My_Passport/Raspbian/raspbian-tee/raspbian-tee/optee_os/lib/libutils/isoc/newlib/strlen.c:120
    5d3c:	1a18      	subs	r0, r3, r0
    5d3e:	4770      	bx	lr
    5d40:	460b      	mov	r3, r1
    5d42:	e7f8      	b.n	5d36 <strlen+0x2>

00005d44 <__ul_divmod>:
__ul_divmod():
/media/wen/My_Passport/Raspbian/raspbian-tee/raspbian-tee/optee_os/lib/libutils/isoc/arch/arm/arm32_aeabi_ldivmod.c:68
    5d44:	e9d0 2302 	ldrd	r2, r3, [r0, #8]
/media/wen/My_Passport/Raspbian/raspbian-tee/raspbian-tee/optee_os/lib/libutils/isoc/arch/arm/arm32_aeabi_ldivmod.c:66
    5d48:	e92d 43f0 	stmdb	sp!, {r4, r5, r6, r7, r8, r9, lr}
/media/wen/My_Passport/Raspbian/raspbian-tee/raspbian-tee/optee_os/lib/libutils/isoc/arch/arm/arm32_aeabi_ldivmod.c:67
    5d4c:	e9d0 8900 	ldrd	r8, r9, [r0]
division_lqr():
/media/wen/My_Passport/Raspbian/raspbian-tee/raspbian-tee/optee_os/lib/libutils/isoc/arch/arm/arm32_aeabi_ldivmod.c:22
    5d50:	ea52 0103 	orrs.w	r1, r2, r3
    5d54:	d02b      	beq.n	5dae <__ul_divmod+0x6a>
    5d56:	2601      	movs	r6, #1
    5d58:	2700      	movs	r7, #0
    5d5a:	4614      	mov	r4, r2
    5d5c:	461d      	mov	r5, r3
/media/wen/My_Passport/Raspbian/raspbian-tee/raspbian-tee/optee_os/lib/libutils/isoc/arch/arm/arm32_aeabi_ldivmod.c:27
    5d5e:	2c00      	cmp	r4, #0
    5d60:	f175 0300 	sbcs.w	r3, r5, #0
    5d64:	da0a      	bge.n	5d7c <__ul_divmod+0x38>
    5d66:	2200      	movs	r2, #0
    5d68:	2300      	movs	r3, #0
/media/wen/My_Passport/Raspbian/raspbian-tee/raspbian-tee/optee_os/lib/libutils/isoc/arch/arm/arm32_aeabi_ldivmod.c:32
    5d6a:	ea56 0107 	orrs.w	r1, r6, r7
    5d6e:	d10a      	bne.n	5d86 <__ul_divmod+0x42>
__ul_divmod():
/media/wen/My_Passport/Raspbian/raspbian-tee/raspbian-tee/optee_os/lib/libutils/isoc/arch/arm/arm32_aeabi_ldivmod.c:73
    5d70:	e9c0 2300 	strd	r2, r3, [r0]
/media/wen/My_Passport/Raspbian/raspbian-tee/raspbian-tee/optee_os/lib/libutils/isoc/arch/arm/arm32_aeabi_ldivmod.c:74
    5d74:	e9c0 8902 	strd	r8, r9, [r0, #8]
    5d78:	e8bd 83f0 	ldmia.w	sp!, {r4, r5, r6, r7, r8, r9, pc}
division_lqr():
/media/wen/My_Passport/Raspbian/raspbian-tee/raspbian-tee/optee_os/lib/libutils/isoc/arch/arm/arm32_aeabi_ldivmod.c:28
    5d7c:	19b6      	adds	r6, r6, r6
    5d7e:	417f      	adcs	r7, r7
/media/wen/My_Passport/Raspbian/raspbian-tee/raspbian-tee/optee_os/lib/libutils/isoc/arch/arm/arm32_aeabi_ldivmod.c:29
    5d80:	1924      	adds	r4, r4, r4
    5d82:	416d      	adcs	r5, r5
    5d84:	e7eb      	b.n	5d5e <__ul_divmod+0x1a>
/media/wen/My_Passport/Raspbian/raspbian-tee/raspbian-tee/optee_os/lib/libutils/isoc/arch/arm/arm32_aeabi_ldivmod.c:33
    5d86:	1892      	adds	r2, r2, r2
    5d88:	415b      	adcs	r3, r3
/media/wen/My_Passport/Raspbian/raspbian-tee/raspbian-tee/optee_os/lib/libutils/isoc/arch/arm/arm32_aeabi_ldivmod.c:34
    5d8a:	45a9      	cmp	r9, r5
    5d8c:	bf08      	it	eq
    5d8e:	45a0      	cmpeq	r8, r4
    5d90:	d306      	bcc.n	5da0 <__ul_divmod+0x5c>
/media/wen/My_Passport/Raspbian/raspbian-tee/raspbian-tee/optee_os/lib/libutils/isoc/arch/arm/arm32_aeabi_ldivmod.c:35
    5d92:	ebb8 0804 	subs.w	r8, r8, r4
    5d96:	eb69 0905 	sbc.w	r9, r9, r5
/media/wen/My_Passport/Raspbian/raspbian-tee/raspbian-tee/optee_os/lib/libutils/isoc/arch/arm/arm32_aeabi_ldivmod.c:36
    5d9a:	3201      	adds	r2, #1
    5d9c:	f143 0300 	adc.w	r3, r3, #0
/media/wen/My_Passport/Raspbian/raspbian-tee/raspbian-tee/optee_os/lib/libutils/isoc/arch/arm/arm32_aeabi_ldivmod.c:38
    5da0:	086d      	lsrs	r5, r5, #1
    5da2:	ea4f 0434 	mov.w	r4, r4, rrx
/media/wen/My_Passport/Raspbian/raspbian-tee/raspbian-tee/optee_os/lib/libutils/isoc/arch/arm/arm32_aeabi_ldivmod.c:39
    5da6:	087f      	lsrs	r7, r7, #1
    5da8:	ea4f 0636 	mov.w	r6, r6, rrx
    5dac:	e7dd      	b.n	5d6a <__ul_divmod+0x26>
/media/wen/My_Passport/Raspbian/raspbian-tee/raspbian-tee/optee_os/lib/libutils/isoc/arch/arm/arm32_aeabi_ldivmod.c:23
    5dae:	f04f 38ff 	mov.w	r8, #4294967295
    5db2:	f04f 39ff 	mov.w	r9, #4294967295
    5db6:	e7db      	b.n	5d70 <__ul_divmod+0x2c>

00005db8 <__l_divmod>:
__l_divmod():
/media/wen/My_Passport/Raspbian/raspbian-tee/raspbian-tee/optee_os/lib/libutils/isoc/arch/arm/arm32_aeabi_ldivmod.c:85
    5db8:	e92d 43f0 	stmdb	sp!, {r4, r5, r6, r7, r8, r9, lr}
/media/wen/My_Passport/Raspbian/raspbian-tee/raspbian-tee/optee_os/lib/libutils/isoc/arch/arm/arm32_aeabi_ldivmod.c:86
    5dbc:	e9d0 4500 	ldrd	r4, r5, [r0]
/media/wen/My_Passport/Raspbian/raspbian-tee/raspbian-tee/optee_os/lib/libutils/isoc/arch/arm/arm32_aeabi_ldivmod.c:87
    5dc0:	e9d0 2302 	ldrd	r2, r3, [r0, #8]
/media/wen/My_Passport/Raspbian/raspbian-tee/raspbian-tee/optee_os/lib/libutils/isoc/arch/arm/arm32_aeabi_ldivmod.c:90
    5dc4:	2c00      	cmp	r4, #0
    5dc6:	f175 0100 	sbcs.w	r1, r5, #0
    5dca:	da35      	bge.n	5e38 <__l_divmod+0x80>
/media/wen/My_Passport/Raspbian/raspbian-tee/raspbian-tee/optee_os/lib/libutils/isoc/arch/arm/arm32_aeabi_ldivmod.c:90 (discriminator 1)
    5dcc:	2a01      	cmp	r2, #1
    5dce:	f173 0100 	sbcs.w	r1, r3, #0
    5dd2:	f04f 0101 	mov.w	r1, #1
    5dd6:	bfb8      	it	lt
    5dd8:	2100      	movlt	r1, #0
/media/wen/My_Passport/Raspbian/raspbian-tee/raspbian-tee/optee_os/lib/libutils/isoc/arch/arm/arm32_aeabi_ldivmod.c:94 (discriminator 1)
    5dda:	4264      	negs	r4, r4
/media/wen/My_Passport/Raspbian/raspbian-tee/raspbian-tee/optee_os/lib/libutils/isoc/arch/arm/arm32_aeabi_ldivmod.c:90 (discriminator 1)
    5ddc:	468e      	mov	lr, r1
/media/wen/My_Passport/Raspbian/raspbian-tee/raspbian-tee/optee_os/lib/libutils/isoc/arch/arm/arm32_aeabi_ldivmod.c:94 (discriminator 1)
    5dde:	eb65 0545 	sbc.w	r5, r5, r5, lsl #1
division_lqr():
/media/wen/My_Passport/Raspbian/raspbian-tee/raspbian-tee/optee_os/lib/libutils/isoc/arch/arm/arm32_aeabi_ldivmod.c:22 (discriminator 1)
    5de2:	ea52 0103 	orrs.w	r1, r2, r3
__l_divmod():
/media/wen/My_Passport/Raspbian/raspbian-tee/raspbian-tee/optee_os/lib/libutils/isoc/arch/arm/arm32_aeabi_ldivmod.c:95 (discriminator 1)
    5de6:	f04f 0101 	mov.w	r1, #1
division_lqr():
/media/wen/My_Passport/Raspbian/raspbian-tee/raspbian-tee/optee_os/lib/libutils/isoc/arch/arm/arm32_aeabi_ldivmod.c:22 (discriminator 1)
    5dea:	d04b      	beq.n	5e84 <__l_divmod+0xcc>
__l_divmod():
/media/wen/My_Passport/Raspbian/raspbian-tee/raspbian-tee/optee_os/lib/libutils/isoc/arch/arm/arm32_aeabi_ldivmod.c:100
    5dec:	2a00      	cmp	r2, #0
    5dee:	f173 0600 	sbcs.w	r6, r3, #0
    5df2:	da02      	bge.n	5dfa <__l_divmod+0x42>
    5df4:	4252      	negs	r2, r2
    5df6:	eb63 0343 	sbc.w	r3, r3, r3, lsl #1
    5dfa:	4616      	mov	r6, r2
    5dfc:	461f      	mov	r7, r3
    5dfe:	f04f 0801 	mov.w	r8, #1
    5e02:	f04f 0900 	mov.w	r9, #0
division_lqr():
/media/wen/My_Passport/Raspbian/raspbian-tee/raspbian-tee/optee_os/lib/libutils/isoc/arch/arm/arm32_aeabi_ldivmod.c:27
    5e06:	2e00      	cmp	r6, #0
    5e08:	f177 0300 	sbcs.w	r3, r7, #0
    5e0c:	da1f      	bge.n	5e4e <__l_divmod+0x96>
__l_divmod():
/media/wen/My_Passport/Raspbian/raspbian-tee/raspbian-tee/optee_os/lib/libutils/isoc/arch/arm/arm32_aeabi_ldivmod.c:100
    5e0e:	2200      	movs	r2, #0
    5e10:	2300      	movs	r3, #0
division_lqr():
/media/wen/My_Passport/Raspbian/raspbian-tee/raspbian-tee/optee_os/lib/libutils/isoc/arch/arm/arm32_aeabi_ldivmod.c:32
    5e12:	ea58 0c09 	orrs.w	ip, r8, r9
    5e16:	d121      	bne.n	5e5c <__l_divmod+0xa4>
ul_div_qr():
/media/wen/My_Passport/Raspbian/raspbian-tee/raspbian-tee/optee_os/lib/libutils/isoc/arch/arm/arm32_aeabi_ldivmod.c:52
    5e18:	f1be 0f00 	cmp.w	lr, #0
    5e1c:	d002      	beq.n	5e24 <__l_divmod+0x6c>
/media/wen/My_Passport/Raspbian/raspbian-tee/raspbian-tee/optee_os/lib/libutils/isoc/arch/arm/arm32_aeabi_ldivmod.c:53
    5e1e:	4252      	negs	r2, r2
    5e20:	eb63 0343 	sbc.w	r3, r3, r3, lsl #1
/media/wen/My_Passport/Raspbian/raspbian-tee/raspbian-tee/optee_os/lib/libutils/isoc/arch/arm/arm32_aeabi_ldivmod.c:54
    5e24:	b111      	cbz	r1, 5e2c <__l_divmod+0x74>
/media/wen/My_Passport/Raspbian/raspbian-tee/raspbian-tee/optee_os/lib/libutils/isoc/arch/arm/arm32_aeabi_ldivmod.c:55
    5e26:	4264      	negs	r4, r4
    5e28:	eb65 0545 	sbc.w	r5, r5, r5, lsl #1
__l_divmod():
/media/wen/My_Passport/Raspbian/raspbian-tee/raspbian-tee/optee_os/lib/libutils/isoc/arch/arm/arm32_aeabi_ldivmod.c:102
    5e2c:	e9c0 2300 	strd	r2, r3, [r0]
/media/wen/My_Passport/Raspbian/raspbian-tee/raspbian-tee/optee_os/lib/libutils/isoc/arch/arm/arm32_aeabi_ldivmod.c:103
    5e30:	e9c0 4502 	strd	r4, r5, [r0, #8]
/media/wen/My_Passport/Raspbian/raspbian-tee/raspbian-tee/optee_os/lib/libutils/isoc/arch/arm/arm32_aeabi_ldivmod.c:104
    5e34:	e8bd 83f0 	ldmia.w	sp!, {r4, r5, r6, r7, r8, r9, pc}
/media/wen/My_Passport/Raspbian/raspbian-tee/raspbian-tee/optee_os/lib/libutils/isoc/arch/arm/arm32_aeabi_ldivmod.c:90 (discriminator 3)
    5e38:	ea54 0105 	orrs.w	r1, r4, r5
    5e3c:	d02c      	beq.n	5e98 <__l_divmod+0xe0>
/media/wen/My_Passport/Raspbian/raspbian-tee/raspbian-tee/optee_os/lib/libutils/isoc/arch/arm/arm32_aeabi_ldivmod.c:91
    5e3e:	2a00      	cmp	r2, #0
    5e40:	f173 0100 	sbcs.w	r1, r3, #0
    5e44:	da28      	bge.n	5e98 <__l_divmod+0xe0>
/media/wen/My_Passport/Raspbian/raspbian-tee/raspbian-tee/optee_os/lib/libutils/isoc/arch/arm/arm32_aeabi_ldivmod.c:88
    5e46:	2100      	movs	r1, #0
/media/wen/My_Passport/Raspbian/raspbian-tee/raspbian-tee/optee_os/lib/libutils/isoc/arch/arm/arm32_aeabi_ldivmod.c:92
    5e48:	f04f 0e01 	mov.w	lr, #1
    5e4c:	e7ce      	b.n	5dec <__l_divmod+0x34>
division_lqr():
/media/wen/My_Passport/Raspbian/raspbian-tee/raspbian-tee/optee_os/lib/libutils/isoc/arch/arm/arm32_aeabi_ldivmod.c:28
    5e4e:	eb18 0808 	adds.w	r8, r8, r8
    5e52:	eb49 0909 	adc.w	r9, r9, r9
/media/wen/My_Passport/Raspbian/raspbian-tee/raspbian-tee/optee_os/lib/libutils/isoc/arch/arm/arm32_aeabi_ldivmod.c:29
    5e56:	19b6      	adds	r6, r6, r6
    5e58:	417f      	adcs	r7, r7
    5e5a:	e7d4      	b.n	5e06 <__l_divmod+0x4e>
/media/wen/My_Passport/Raspbian/raspbian-tee/raspbian-tee/optee_os/lib/libutils/isoc/arch/arm/arm32_aeabi_ldivmod.c:33
    5e5c:	1892      	adds	r2, r2, r2
    5e5e:	415b      	adcs	r3, r3
/media/wen/My_Passport/Raspbian/raspbian-tee/raspbian-tee/optee_os/lib/libutils/isoc/arch/arm/arm32_aeabi_ldivmod.c:34
    5e60:	42bd      	cmp	r5, r7
    5e62:	bf08      	it	eq
    5e64:	42b4      	cmpeq	r4, r6
    5e66:	d305      	bcc.n	5e74 <__l_divmod+0xbc>
/media/wen/My_Passport/Raspbian/raspbian-tee/raspbian-tee/optee_os/lib/libutils/isoc/arch/arm/arm32_aeabi_ldivmod.c:35
    5e68:	1ba4      	subs	r4, r4, r6
    5e6a:	eb65 0507 	sbc.w	r5, r5, r7
/media/wen/My_Passport/Raspbian/raspbian-tee/raspbian-tee/optee_os/lib/libutils/isoc/arch/arm/arm32_aeabi_ldivmod.c:36
    5e6e:	3201      	adds	r2, #1
    5e70:	f143 0300 	adc.w	r3, r3, #0
/media/wen/My_Passport/Raspbian/raspbian-tee/raspbian-tee/optee_os/lib/libutils/isoc/arch/arm/arm32_aeabi_ldivmod.c:38
    5e74:	087f      	lsrs	r7, r7, #1
    5e76:	ea4f 0636 	mov.w	r6, r6, rrx
/media/wen/My_Passport/Raspbian/raspbian-tee/raspbian-tee/optee_os/lib/libutils/isoc/arch/arm/arm32_aeabi_ldivmod.c:39
    5e7a:	ea5f 0959 	movs.w	r9, r9, lsr #1
    5e7e:	ea4f 0838 	mov.w	r8, r8, rrx
    5e82:	e7c6      	b.n	5e12 <__l_divmod+0x5a>
/media/wen/My_Passport/Raspbian/raspbian-tee/raspbian-tee/optee_os/lib/libutils/isoc/arch/arm/arm32_aeabi_ldivmod.c:23
    5e84:	f04f 34ff 	mov.w	r4, #4294967295
    5e88:	f04f 35ff 	mov.w	r5, #4294967295
    5e8c:	e7c4      	b.n	5e18 <__l_divmod+0x60>
    5e8e:	f04f 34ff 	mov.w	r4, #4294967295
    5e92:	f04f 35ff 	mov.w	r5, #4294967295
    5e96:	e7c9      	b.n	5e2c <__l_divmod+0x74>
/media/wen/My_Passport/Raspbian/raspbian-tee/raspbian-tee/optee_os/lib/libutils/isoc/arch/arm/arm32_aeabi_ldivmod.c:22
    5e98:	ea52 0103 	orrs.w	r1, r2, r3
    5e9c:	d0f7      	beq.n	5e8e <__l_divmod+0xd6>
    5e9e:	2100      	movs	r1, #0
    5ea0:	468e      	mov	lr, r1
    5ea2:	e7a3      	b.n	5dec <__l_divmod+0x34>

00005ea4 <TEE_Panic>:
TEE_Panic():
/media/wen/My_Passport/Raspbian/raspbian-tee/raspbian-tee/optee_os/lib/libutee/tee_api_panic.c:12
    5ea4:	f000 b850 	b.w	5f48 <__utee_panic_from_thumb>

00005ea8 <snprintf>:
snprintf():
/media/wen/My_Passport/Raspbian/raspbian-tee/raspbian-tee/optee_os/lib/libutils/isoc/snprintf.c:10
    5ea8:	b40c      	push	{r2, r3}
    5eaa:	b51f      	push	{r0, r1, r2, r3, r4, lr}
/media/wen/My_Passport/Raspbian/raspbian-tee/raspbian-tee/optee_os/lib/libutils/isoc/snprintf.c:15
    5eac:	2400      	movs	r4, #0
/media/wen/My_Passport/Raspbian/raspbian-tee/raspbian-tee/optee_os/lib/libutils/isoc/snprintf.c:10
    5eae:	ab06      	add	r3, sp, #24
    5eb0:	f853 2b04 	ldr.w	r2, [r3], #4
/media/wen/My_Passport/Raspbian/raspbian-tee/raspbian-tee/optee_os/lib/libutils/isoc/snprintf.c:15
    5eb4:	9400      	str	r4, [sp, #0]
/media/wen/My_Passport/Raspbian/raspbian-tee/raspbian-tee/optee_os/lib/libutils/isoc/snprintf.c:14
    5eb6:	9303      	str	r3, [sp, #12]
/media/wen/My_Passport/Raspbian/raspbian-tee/raspbian-tee/optee_os/lib/libutils/isoc/snprintf.c:15
    5eb8:	f7fa fc1a 	bl	6f0 <__vsnprintf>
/media/wen/My_Passport/Raspbian/raspbian-tee/raspbian-tee/optee_os/lib/libutils/isoc/snprintf.c:19
    5ebc:	b004      	add	sp, #16
    5ebe:	e8bd 4010 	ldmia.w	sp!, {r4, lr}
    5ec2:	b002      	add	sp, #8
    5ec4:	4770      	bx	lr

00005ec6 <vsnprintf>:
vsnprintf():
/media/wen/My_Passport/Raspbian/raspbian-tee/raspbian-tee/optee_os/lib/libutils/isoc/snprintf.c:22
    5ec6:	b513      	push	{r0, r1, r4, lr}
/media/wen/My_Passport/Raspbian/raspbian-tee/raspbian-tee/optee_os/lib/libutils/isoc/snprintf.c:23
    5ec8:	2400      	movs	r4, #0
    5eca:	9400      	str	r4, [sp, #0]
    5ecc:	f7fa fc10 	bl	6f0 <__vsnprintf>
/media/wen/My_Passport/Raspbian/raspbian-tee/raspbian-tee/optee_os/lib/libutils/isoc/snprintf.c:24
    5ed0:	b002      	add	sp, #8
    5ed2:	bd10      	pop	{r4, pc}

00005ed4 <memcmp>:
memcmp():
/media/wen/My_Passport/Raspbian/raspbian-tee/raspbian-tee/optee_os/lib/libutils/isoc/newlib/memcmp.c:85
    5ed4:	3901      	subs	r1, #1
    5ed6:	4402      	add	r2, r0
    5ed8:	b510      	push	{r4, lr}
/media/wen/My_Passport/Raspbian/raspbian-tee/raspbian-tee/optee_os/lib/libutils/isoc/newlib/memcmp.c:90
    5eda:	4290      	cmp	r0, r2
    5edc:	d101      	bne.n	5ee2 <memcmp+0xe>
/media/wen/My_Passport/Raspbian/raspbian-tee/raspbian-tee/optee_os/lib/libutils/isoc/newlib/memcmp.c:96
    5ede:	2000      	movs	r0, #0
/media/wen/My_Passport/Raspbian/raspbian-tee/raspbian-tee/optee_os/lib/libutils/isoc/newlib/memcmp.c:136
    5ee0:	bd10      	pop	{r4, pc}
/media/wen/My_Passport/Raspbian/raspbian-tee/raspbian-tee/optee_os/lib/libutils/isoc/newlib/memcmp.c:91
    5ee2:	f810 3b01 	ldrb.w	r3, [r0], #1
    5ee6:	f811 4f01 	ldrb.w	r4, [r1, #1]!
    5eea:	42a3      	cmp	r3, r4
    5eec:	d0f5      	beq.n	5eda <memcmp+0x6>
/media/wen/My_Passport/Raspbian/raspbian-tee/raspbian-tee/optee_os/lib/libutils/isoc/newlib/memcmp.c:92
    5eee:	1b18      	subs	r0, r3, r4
    5ef0:	bd10      	pop	{r4, pc}

00005ef2 <memmove>:
memmove():
/media/wen/My_Passport/Raspbian/raspbian-tee/raspbian-tee/optee_os/lib/libutils/isoc/newlib/memmove.c:96
    5ef2:	4288      	cmp	r0, r1
/media/wen/My_Passport/Raspbian/raspbian-tee/raspbian-tee/optee_os/lib/libutils/isoc/newlib/memmove.c:91
    5ef4:	b510      	push	{r4, lr}
    5ef6:	eb01 0302 	add.w	r3, r1, r2
/media/wen/My_Passport/Raspbian/raspbian-tee/raspbian-tee/optee_os/lib/libutils/isoc/newlib/memmove.c:96
    5efa:	d803      	bhi.n	5f04 <memmove+0x12>
    5efc:	1e42      	subs	r2, r0, #1
/media/wen/My_Passport/Raspbian/raspbian-tee/raspbian-tee/optee_os/lib/libutils/isoc/newlib/memmove.c:103
    5efe:	4299      	cmp	r1, r3
    5f00:	d10c      	bne.n	5f1c <memmove+0x2a>
/media/wen/My_Passport/Raspbian/raspbian-tee/raspbian-tee/optee_os/lib/libutils/isoc/newlib/memmove.c:157
    5f02:	bd10      	pop	{r4, pc}
/media/wen/My_Passport/Raspbian/raspbian-tee/raspbian-tee/optee_os/lib/libutils/isoc/newlib/memmove.c:96 (discriminator 1)
    5f04:	4298      	cmp	r0, r3
    5f06:	d2f9      	bcs.n	5efc <memmove+0xa>
/media/wen/My_Passport/Raspbian/raspbian-tee/raspbian-tee/optee_os/lib/libutils/isoc/newlib/memmove.c:99
    5f08:	1881      	adds	r1, r0, r2
    5f0a:	1ad2      	subs	r2, r2, r3
/media/wen/My_Passport/Raspbian/raspbian-tee/raspbian-tee/optee_os/lib/libutils/isoc/newlib/memmove.c:100
    5f0c:	42d3      	cmn	r3, r2
    5f0e:	d100      	bne.n	5f12 <memmove+0x20>
    5f10:	bd10      	pop	{r4, pc}
/media/wen/My_Passport/Raspbian/raspbian-tee/raspbian-tee/optee_os/lib/libutils/isoc/newlib/memmove.c:101
    5f12:	f813 4d01 	ldrb.w	r4, [r3, #-1]!
    5f16:	f801 4d01 	strb.w	r4, [r1, #-1]!
    5f1a:	e7f7      	b.n	5f0c <memmove+0x1a>
/media/wen/My_Passport/Raspbian/raspbian-tee/raspbian-tee/optee_os/lib/libutils/isoc/newlib/memmove.c:104
    5f1c:	f811 4b01 	ldrb.w	r4, [r1], #1
    5f20:	f802 4f01 	strb.w	r4, [r2, #1]!
    5f24:	e7eb      	b.n	5efe <memmove+0xc>
	...

00005f28 <__utee_cache_operation_from_thumb>:
__utee_cache_operation_from_thumb():
    5f28:	4778      	bx	pc
    5f2a:	46c0      	nop			; (mov r8, r8)
    5f2c:	e59fc000 	ldr	ip, [pc]	; 5f34 <__utee_cache_operation_from_thumb+0xc>
    5f30:	e08cf00f 	add	pc, ip, pc
    5f34:	ffffb978 	.word	0xffffb978

00005f38 <__utee_check_access_rights_from_thumb>:
__utee_check_access_rights_from_thumb():
    5f38:	4778      	bx	pc
    5f3a:	46c0      	nop			; (mov r8, r8)
    5f3c:	e59fc000 	ldr	ip, [pc]	; 5f44 <__utee_check_access_rights_from_thumb+0xc>
    5f40:	e08cf00f 	add	pc, ip, pc
    5f44:	ffffb5a0 	.word	0xffffb5a0

00005f48 <__utee_panic_from_thumb>:
__utee_panic_from_thumb():
    5f48:	4778      	bx	pc
    5f4a:	46c0      	nop			; (mov r8, r8)
    5f4c:	e59fc000 	ldr	ip, [pc]	; 5f54 <__utee_panic_from_thumb+0xc>
    5f50:	e08cf00f 	add	pc, ip, pc
    5f54:	ffffb4bc 	.word	0xffffb4bc

00005f58 <__utee_log_from_thumb>:
__utee_log_from_thumb():
    5f58:	4778      	bx	pc
    5f5a:	46c0      	nop			; (mov r8, r8)
    5f5c:	e59fc000 	ldr	ip, [pc]	; 5f64 <__utee_log_from_thumb+0xc>
    5f60:	e08cf00f 	add	pc, ip, pc
    5f64:	ffffb4d4 	.word	0xffffb4d4
