
84a7e37d-9583-4eb0-94bc-cfd416148fa8.elf:     file format elf32-littlearm
84a7e37d-9583-4eb0-94bc-cfd416148fa8.elf
architecture: arm, flags 0x00000150:
HAS_SYMS, DYNAMIC, D_PAGED
start address 0x00000020

Program Header:
0x70000001 off    0x000170a0 vaddr 0x000070a0 paddr 0x000070a0 align 2**2
         filesz 0x000004b0 memsz 0x000004b0 flags r--
    LOAD off    0x00010000 vaddr 0x00000000 paddr 0x00000000 align 2**16
         filesz 0x00005f68 memsz 0x00005f68 flags r-x
    LOAD off    0x00015f68 vaddr 0x00005f68 paddr 0x00005f68 align 2**16
         filesz 0x0000193c memsz 0x0000193c flags r--
    LOAD off    0x00018000 vaddr 0x00008000 paddr 0x00008000 align 2**16
         filesz 0x00000090 memsz 0x0000a100 flags rw-
 DYNAMIC off    0x0001766c vaddr 0x0000766c paddr 0x0000766c align 2**2
         filesz 0x00000080 memsz 0x00000080 flags rw-

Dynamic Section:
  HASH                 0x0000785c
  STRTAB               0x000077bc
  SYMTAB               0x000076ec
  STRSZ                0x0000009f
  SYMENT               0x00000010
  DEBUG                0x00000000
  REL                  0x00007584
  RELSZ                0x000000e8
  RELENT               0x00000008
  FLAGS_1              0x08000000
  RELCOUNT             0x00000013
private flags = 5000400: [Version5 EABI] [hard-float ABI]

Sections:
Idx Name          Size      VMA       LMA       File off  Algn
  0 .ta_head      00000020  00000000  00000000  00010000  2**3
                  CONTENTS, ALLOC, LOAD, DATA
  1 .text         00005f48  00000020  00000020  00010020  2**3
                  CONTENTS, ALLOC, LOAD, READONLY, CODE
  2 .rodata       0000103b  00005f68  00005f68  00015f68  2**2
                  CONTENTS, ALLOC, LOAD, READONLY, DATA
  3 .ARM.extab    000000cc  00006fa4  00006fa4  00016fa4  2**2
                  CONTENTS, ALLOC, LOAD, READONLY, DATA
  4 .ARM.extab.text.__aeabi_ldivmod 0000000c  00007070  00007070  00017070  2**2
                  CONTENTS, ALLOC, LOAD, READONLY, DATA
  5 .ARM.extab.text.__aeabi_uldivmod 0000000c  0000707c  0000707c  0001707c  2**2
                  CONTENTS, ALLOC, LOAD, READONLY, DATA
  6 .ARM.extab.text.utee_panic 0000000c  00007088  00007088  00017088  2**2
                  CONTENTS, ALLOC, LOAD, READONLY, DATA
  7 .ARM.extab.text.unlikely 0000000c  00007094  00007094  00017094  2**2
                  CONTENTS, ALLOC, LOAD, READONLY, DATA
  8 .ARM.exidx    000004b0  000070a0  000070a0  000170a0  2**2
                  CONTENTS, ALLOC, LOAD, READONLY, DATA
  9 .got          00000034  00007550  00007550  00017550  2**2
                  CONTENTS, ALLOC, LOAD, DATA
 10 .dynsym       000000d0  000076ec  000076ec  000176ec  2**2
                  CONTENTS, ALLOC, LOAD, READONLY, DATA
 11 .rel.got      00000050  0000761c  0000761c  0001761c  2**2
                  CONTENTS, ALLOC, LOAD, READONLY, DATA
 12 .dynamic      00000080  0000766c  0000766c  0001766c  2**2
                  CONTENTS, ALLOC, LOAD, DATA
 13 .dynstr       0000009f  000077bc  000077bc  000177bc  2**0
                  CONTENTS, ALLOC, LOAD, READONLY, DATA
 14 .hash         00000048  0000785c  0000785c  0001785c  2**2
                  CONTENTS, ALLOC, LOAD, READONLY, DATA
 15 .data         00000090  00008000  00008000  00018000  2**2
                  CONTENTS, ALLOC, LOAD, DATA
 16 .bss          0000a070  00008090  00008090  00018090  2**2
                  ALLOC
 17 .debug_info   0000dfb5  00000000  00000000  00018090  2**0
                  CONTENTS, READONLY, DEBUGGING
 18 .debug_abbrev 00002720  00000000  00000000  00026045  2**0
                  CONTENTS, READONLY, DEBUGGING
 19 .debug_loc    0000d52a  00000000  00000000  00028765  2**0
                  CONTENTS, READONLY, DEBUGGING
 20 .debug_aranges 000004f0  00000000  00000000  00035c90  2**3
                  CONTENTS, READONLY, DEBUGGING
 21 .debug_ranges 00000790  00000000  00000000  00036180  2**3
                  CONTENTS, READONLY, DEBUGGING
 22 .debug_macro  0000f7a1  00000000  00000000  00036910  2**0
                  CONTENTS, READONLY, DEBUGGING
 23 .debug_line   00004bf0  00000000  00000000  000460b1  2**0
                  CONTENTS, READONLY, DEBUGGING
 24 .debug_str    00010951  00000000  00000000  0004aca1  2**0
                  CONTENTS, READONLY, DEBUGGING
 25 .comment      0000002d  00000000  00000000  0005b5f2  2**0
                  CONTENTS, READONLY
 26 .ARM.attributes 00000036  00000000  00000000  0005b61f  2**0
                  CONTENTS, READONLY
 27 .debug_frame  000016cc  00000000  00000000  0005b658  2**2
                  CONTENTS, READONLY, DEBUGGING
 28 .rel.dyn      00000098  00007584  00007584  00017584  2**2
                  CONTENTS, ALLOC, LOAD, READONLY, DATA
SYMBOL TABLE:
00000000 l    d  .ta_head	00000000 .ta_head
00000020 l    d  .text	00000000 .text
00005f68 l    d  .rodata	00000000 .rodata
00006fa4 l    d  .ARM.extab	00000000 .ARM.extab
00007070 l    d  .ARM.extab.text.__aeabi_ldivmod	00000000 .ARM.extab.text.__aeabi_ldivmod
0000707c l    d  .ARM.extab.text.__aeabi_uldivmod	00000000 .ARM.extab.text.__aeabi_uldivmod
00007088 l    d  .ARM.extab.text.utee_panic	00000000 .ARM.extab.text.utee_panic
00007094 l    d  .ARM.extab.text.unlikely	00000000 .ARM.extab.text.unlikely
000070a0 l    d  .ARM.exidx	00000000 .ARM.exidx
00007550 l    d  .got	00000000 .got
0000761c l    d  .rel.got	00000000 .rel.got
0000766c l    d  .dynamic	00000000 .dynamic
000076ec l    d  .dynsym	00000000 .dynsym
000077bc l    d  .dynstr	00000000 .dynstr
0000785c l    d  .hash	00000000 .hash
00008000 l    d  .data	00000000 .data
00008090 l    d  .bss	00000000 .bss
00000000 l    d  .debug_info	00000000 .debug_info
00000000 l    d  .debug_abbrev	00000000 .debug_abbrev
00000000 l    d  .debug_loc	00000000 .debug_loc
00000000 l    d  .debug_aranges	00000000 .debug_aranges
00000000 l    d  .debug_ranges	00000000 .debug_ranges
00000000 l    d  .debug_macro	00000000 .debug_macro
00000000 l    d  .debug_line	00000000 .debug_line
00000000 l    d  .debug_str	00000000 .debug_str
00000000 l    d  .comment	00000000 .comment
00000000 l    d  .ARM.attributes	00000000 .ARM.attributes
00000000 l    d  .debug_frame	00000000 .debug_frame
00007584 l    d  .rel.dyn	00000000 .rel.dyn
00000000 l    df *ABS*	00000000 user_ta_header.c
00005fd8 l     O .rodata	00000004 __compound_literal.4
00005fdc l     O .rodata	00000004 __compound_literal.3
00005fe0 l     O .rodata	00000001 __compound_literal.2
00005fe1 l     O .rodata	00000001 __compound_literal.1
00005fe2 l     O .rodata	00000001 __compound_literal.0
00000000 l    df *ABS*	00000000 socket_test_ta.c
00000332 l     F .text	000000d2 socket_send
00005fbc l     O .rodata	0000000c __func__.6286
00005fc8 l     O .rodata	0000000c __func__.6298
00000000 l    df *ABS*	00000000 trace.c
0000637e l     O .rodata	00000005 lvl_strs.5409
00000000 l    df *ABS*	00000000 snprintk.c
0000639d l     O .rodata	00000011 HEXDIGITS
000063ae l     O .rodata	00000011 hexdigits
00000000 l    df *ABS*	00000000 arm32_aeabi_ldivmod_a32.o
00000000 l    df *ABS*	00000000 trace_ext.c
00000000 l    df *ABS*	00000000 tee_api.c
000063f7 l     O .rodata	0000000b __func__.6576
00008090 l     O .bss	00000004 tee_api_instance_data
00000000 l    df *ABS*	00000000 user_ta_entry.c
00001200 l     F .text	0000001c ta_header_get_session
0000121c l     F .text	00000068 ta_header_remove_session
00008094 l     O .bss	00000001 init_done
0000806c l     O .data	00000008 ta_sessions
00000000 l    df *ABS*	00000000 utee_syscalls_a32.o
00000000 l    df *ABS*	00000000 gprof_a32.o
00000000 l    df *ABS*	00000000 tee_api_arith_mpi.c
000028e8 l     F .text	00000020 api_panic
000018d0 l     F .text	00000020 mpi_panic
000018f0 l     F .text	00000044 get_const_mpi
00001934 l     F .text	00000010 mpi_is_odd
00001944 l     F .text	00000016 rng_read
0000195a l     F .text	0000001c put_mpi
00001976 l     F .text	0000045a mpi_egcd
00001dd0 l     F .text	00000024 get_mpi
00001df4 l     F .text	00000088 bigint_binary
00002082 l     F .text	000000ea bigint_binary_mod
00006413 l     O .rodata	0000000e __func__.6605
00006421 l     O .rodata	00000009 __func__.6844
0000642a l     O .rodata	0000000e __func__.6704
00006438 l     O .rodata	00000012 __func__.6577
0000644a l     O .rodata	0000000f __func__.6615
00006459 l     O .rodata	0000001f __func__.6633
00006478 l     O .rodata	00000019 __func__.6640
00006491 l     O .rodata	00000012 __func__.6715
000064a3 l     O .rodata	00000015 __func__.6670
000064b8 l     O .rodata	0000000e __func__.6742
000064c6 l     O .rodata	0000000e __func__.6770
000064d4 l     O .rodata	0000000e __func__.6776
000064e2 l     O .rodata	00000011 __func__.6805
000064f3 l     O .rodata	00000018 __func__.6821
0000650b l     O .rodata	0000001d __func__.6901
00006528 l     O .rodata	00000019 __func__.6951
00006541 l     O .rodata	00000015 __func__.6965
000080bc l     O .bss	00002000 data.6576
00000000 l    df *ABS*	00000000 bignum.c
00002908 l     F .text	00000038 mpi_get_digit
00002940 l     F .text	0000005a mpi_sub_hlp
0000299a l     F .text	00000384 mpi_mul_hlp
00002d1e l     F .text	00000048 mbedtls_mpi_mod_int.part.1
00003dbe l     F .text	0000006c mpi_write_hlp
00003f64 l     F .text	00000050 mpi_check_small_factors
00004650 l     F .text	00000216 mpi_miller_rabin
00005fec l     O .rodata	000002a0 small_prime
0000628c l     O .rodata	00000024 gcd_pairs
00000000 l    df *ABS*	00000000 bget_malloc.c
00004ff4 l     F .text	00000030 raw_malloc_return_hook.isra.3
00005024 l     F .text	000000d8 create_free_block.constprop.11
00005230 l     F .text	00000038 raw_malloc.constprop.15
00006a6a l     O .rodata	00000012 __func__.5703
00006a7c l     O .rodata	00000005 __func__.5558
00006a81 l     O .rodata	00000006 __func__.5573
00006a87 l     O .rodata	00000005 __func__.5590
00006a8c l     O .rodata	00000006 __func__.5582
00006a92 l     O .rodata	00000006 __func__.5599
00006a98 l     O .rodata	00000007 __func__.5609
00006a9f l     O .rodata	0000000d __func__.5739
00006aac l     O .rodata	0000000c __func__.5713
00006ab8 l     O .rodata	0000000b __func__.5724
00006ac3 l     O .rodata	00000010 __func__.5791
00006ad3 l     O .rodata	0000000e __func__.5745
00006ae1 l     O .rodata	00000013 __func__.5650
0000a0c0 l     O .bss	00000038 mstats
0000a0f8 l     O .bss	00000004 malloc_pool_len
0000a0fc l     O .bss	00000004 malloc_pool
00008074 l     O .data	0000001c malloc_poolset
00000000 l    df *ABS*	00000000 mempool.c
00006ee4 l     O .rodata	00000013 __func__.5466
00006ef7 l     O .rodata	0000000e __func__.5475
00000000 l    df *ABS*	00000000 assert.c
00000000 l    df *ABS*	00000000 memcpy.c
00000000 l    df *ABS*	00000000 memset.c
00000000 l    df *ABS*	00000000 aeabi_unwind.c
00000000 l    df *ABS*	00000000 memchr.c
00000000 l    df *ABS*	00000000 strlen.c
00000000 l    df *ABS*	00000000 arm32_aeabi_ldivmod.c
00000000 l    df *ABS*	00000000 tee_api_panic.c
00000000 l    df *ABS*	00000000 snprintf.c
00000000 l    df *ABS*	00000000 memcmp.c
00000000 l    df *ABS*	00000000 memmove.c
00000000 l    df *ABS*	00000000 
0000766c l     O *ABS*	00000000 _DYNAMIC
00007550 l     O *ABS*	00000000 _GLOBAL_OFFSET_TABLE_
00005f28 l     F .text	00000010 __utee_cache_operation_from_thumb
00005f38 l     F .text	00000010 __utee_check_access_rights_from_thumb
00005f48 l     F .text	00000010 __utee_panic_from_thumb
00005f58 l     F .text	00000010 __utee_log_from_thumb
00000ef4 g     F .text	00000022 putchar
000027fa g     F .text	00000004 TEE_BigIntConvertToFMM
00002538 g     F .text	00000008 TEE_BigIntSquareMod
0000216c g     F .text	000000f4 TEE_BigIntShiftRight
000017a8 g     F .text	00000018 utee_storage_obj_create
00002dfc g     F .text	000000a8 mbedtls_mpi_grow
00005db8 g     F .text	000000ec __l_divmod
00001428 g     F .text	00000014 utee_return
000011e4 g     F .text	00000004 TEE_Realloc
00000e96 g     F .text	0000003a printf
0000143c g     F .text	00000014 utee_log
00008000 g     O .data	00000010 uuid
00001002 g     F .text	00000066 TEE_InvokeTACommand
00002d78 g     F .text	00000024 mbedtls_mpi_init_mempool
00003276 g     F .text	00000046 mbedtls_mpi_write_binary
00000e24 g     F .text	0000000e vsnprintk
000036fa g     F .text	00000030 mbedtls_mpi_sub_int
00005ef2 g     F .text	00000034 memmove
00005ea8 g     F .text	0000001e snprintf
0000205c g     F .text	00000026 TEE_BigIntCmpS32
00002ea4 g     F .text	000000d0 mbedtls_mpi_shrink
00005d12 g     F .text	00000002 __aeabi_unwind_cpp_pr0
000022ac g     F .text	0000001c TEE_BigIntAdd
0000147c g     F .text	00000014 utee_get_property_name_to_index
00005fe4 g     O .rodata	00000004 ta_heap_size
00001560 g     F .text	00000018 utee_cryp_state_alloc
00001730 g     F .text	00000018 utee_authenc_enc_final
00003824 g     F .text	0000012c mbedtls_mpi_read_string
000022e4 g     F .text	00000058 TEE_BigIntNeg
00000020 g       .text	00000000 __text_start
00003354 g     F .text	00000078 mbedtls_mpi_shift_r
00005b6c g     F .text	00000040 malloc_buffer_overlaps_heap
00002500 g     F .text	0000001c TEE_BigIntSubMod
00004b92 g     F .text	00000136 mbedtls_mpi_gen_prime
00003122 g     F .text	00000020 mbedtls_mpi_get_bit
00003210 g     F .text	00000066 mbedtls_mpi_read_binary
000005ac g     F .text	00000140 trace_printf
00003fdc g     F .text	000000c4 mbedtls_mpi_montmul
00005cec g     F .text	00000016 memcpy
0000158c g     F .text	00000014 utee_cryp_state_free
000027fe g     F .text	0000004a TEE_BigIntConvertFromFMM
00005ea4 g     F .text	00000004 TEE_Panic
00000e64 g     F .text	00000018 __aeabi_uldivmod
00000ed0 g     F .text	00000024 puts
00002848 g     F .text	000000a0 TEE_BigIntComputeFMM
0000564c g     F .text	00000020 malloc_get_stats
0000160c g     F .text	00000018 utee_cipher_final
00001184 g     F .text	00000016 TEE_GetREETime
00008014 g     O .data	00000054 ta_props
0000566c g     F .text	00000002 malloc
00001674 g     F .text	00000014 utee_cryp_obj_close
00005ec6 g     F .text	0000000e vsnprintf
00008010 g     O .data	00000004 trace_level
00002028 g     F .text	00000034 TEE_BigIntCmp
00005fd4 g     O .rodata	00000004 ta_num_props
000054bc g     F .text	0000007c bgetr
00000020 g     F .text	00000238 sha1digest
00001718 g     F .text	00000018 utee_authenc_update_payload
00005c80 g     F .text	0000002e mempool_free
00001f40 g     F .text	00000058 TEE_BigIntConvertToOctetString
000018b0 g     F .text	00000014 utee_cache_operation
000031c0 g     F .text	00000044 mbedtls_mpi_bitlen
000016ec g     F .text	00000018 utee_authenc_init
00002260 g     F .text	0000002a TEE_BigIntGetBit
00005fe8 g     O .rodata	00000003 trace_ext_prefix
00005268 g     F .text	0000005c bgetz
000010d4 g     F .text	0000000c TEE_GetInstanceData
00001102 g     F .text	0000001e TEE_Wait
00000318 g     F .text	0000001a string_cmp
00001860 g     F .text	00000014 utee_storage_obj_write
0000372a g     F .text	000000dc mbedtls_mpi_mul_mpi
00005d16 g     F .text	00000002 __aeabi_unwind_cpp_pr2
000011f2 g     F .text	00000006 TEE_CacheFlush
00000258 g     F .text	000000c0 hmac_sha1
00000408 g     F .text	00000002 TA_DestroyEntryPoint
00002d66 g     F .text	00000012 mbedtls_mpi_init
00003192 g     F .text	0000002e mbedtls_mpi_lsb
00005cb0 g     F .text	00000028 _assert_log
000027f6 g     F .text	00000004 TEE_BigIntFMMContextSizeInU32
00001e7c g     F .text	00000044 _TEE_MathAPI_Init
00003636 g     F .text	00000048 mbedtls_mpi_add_mpi
00001838 g     F .text	00000014 utee_storage_next_enum
0000a100 g     O .bss	00008000 ta_heap
00002540 g     F .text	000000a4 TEE_BigIntInvMod
00000434 g     F .text	00000004 TA_CloseSessionEntryPoint
0000367e g     F .text	0000004c mbedtls_mpi_sub_mpi
00001450 g     F .text	00000014 __utee_panic
00001578 g     F .text	00000014 utee_cryp_state_copy
00000438 g     F .text	00000140 TA_InvokeCommandEntryPoint
00005bf0 g     F .text	0000006c mempool_alloc
00001660 g     F .text	00000014 utee_cryp_obj_alloc
0000154c g     F .text	00000014 utee_set_ta_time
0000164c g     F .text	00000014 utee_cryp_obj_get_attr
00005c5c g     F .text	00000024 mempool_calloc
00005680 g     F .text	00000048 calloc
0000119a g     F .text	0000004a TEE_Malloc
00001510 g     F .text	00000014 utee_mask_cancellation
00001688 g     F .text	00000014 utee_cryp_obj_reset
000010bc g     F .text	0000000a TEE_CheckMemoryAccessRights
00012100 g       .bss	00000000 __gprof_buf_end
00005d44 g     F .text	00000074 __ul_divmod
000030ea g     F .text	00000038 mbedtls_mpi_lset
0000040a g     F .text	0000002a TA_OpenSessionEntryPoint
00001824 g     F .text	00000014 utee_storage_start_enum
000017d4 g     F .text	00000014 utee_storage_obj_rename
00008098 g     O .bss	00000004 ta_param_types
00003cf2 g     F .text	0000002e mbedtls_mpi_div_int
000027b8 g     F .text	00000030 TEE_BigIntIsProbablePrime
00003806 g     F .text	0000001e mbedtls_mpi_mul_int
000040c4 g     F .text	00000446 mbedtls_mpi_exp_mod
00002ff8 g     F .text	0000006c mbedtls_mpi_safe_cond_assign
00001464 g     F .text	00000018 utee_get_property
00001ec0 g     F .text	00000040 TEE_BigIntInit
000010e0 g     F .text	00000004 TEE_MemMove
00001f00 g     F .text	00000040 TEE_BigIntConvertFromOctetString
00008068 g     O .data	00000004 _ref__utee_mcount
000033cc g     F .text	0000006e mbedtls_mpi_cmp_abs
00005d18 g     F .text	0000001c memchr
00001084 g     F .text	0000001c TEE_UnmaskCancellation
00004cc8 g     F .text	0000032c mbedtls_mpi_self_test
000017c0 g     F .text	00000014 utee_storage_obj_del
00001888 g     F .text	00000014 utee_storage_obj_seek
000034d0 g     F .text	00000030 mbedtls_mpi_cmp_int
000015b4 g     F .text	00000014 utee_hash_update
000018c4  w    F .text	0000000c __utee_mcount
00002494 g     F .text	00000050 TEE_BigIntMod
00003d84 g     F .text	0000003a mbedtls_mpi_mod_int
000014a8 g     F .text	00000014 utee_close_ta_session
000023e6 g     F .text	000000ae TEE_BigIntDiv
00002f74 g     F .text	00000056 mbedtls_mpi_copy
00005638 g     F .text	00000014 malloc_reset_stats
000015f4 g     F .text	00000018 utee_cipher_update
000056c8 g     F .text	00000038 realloc
00002fca g     F .text	0000002e mbedtls_mpi_swap
00005bac g     F .text	00000044 mempool_alloc_pool
00001778 g     F .text	00000018 utee_asymm_verify
0000233c g     F .text	000000a4 TEE_BigIntMul
000032bc g     F .text	00000098 mbedtls_mpi_shift_l
0000343a g     F .text	00000096 mbedtls_mpi_cmp_mpi
000010e8 g     F .text	00000004 TEE_MemFill
00005ed4 g     F .text	0000001e memcmp
000059bc g     F .text	000000d4 malloc_add_pool
00000598 g     F .text	00000014 trace_get_level
00003500 g     F .text	000000b6 mbedtls_mpi_add_abs
000016d8 g     F .text	00000014 utee_cryp_random_number_generate
000027ee g     F .text	00000008 TEE_BigIntFMMSizeInU32
000027e8 g     F .text	00000004 TEE_BigIntInitFMM
00001760 g     F .text	00000018 utee_asymm_operate
00001284 g     F .text	00000190 __utee_entry
00005f68 g       .text	00000000 __text_end
000025e4 g     F .text	00000080 TEE_BigIntRelativePrime
00003d20 g     F .text	00000064 mbedtls_mpi_mod_mpi
00005538 g     F .text	0000009c bpool
00001068 g     F .text	0000001c TEE_GetCancellationFlag
0000450a g     F .text	00000114 mbedtls_mpi_gcd
0000115c g     F .text	00000028 TEE_SetTAPersistentTime
00005d02 g     F .text	00000010 memset
00001120 g     F .text	0000003c TEE_GetTAPersistentTime
000006ec g     F .text	00000002 dhex_dump
000010a0 g     F .text	0000001c TEE_MaskCancellation
0000184c g     F .text	00000014 utee_storage_obj_read
0000169c g     F .text	00000014 utee_cryp_obj_populate
00000578 g     F .text	00000020 trace_set_level
00001624 g     F .text	00000014 utee_cryp_obj_get_info
000017e8 g     F .text	00000014 utee_storage_alloc_enum
00001810 g     F .text	00000014 utee_storage_reset_enum
00001874 g     F .text	00000014 utee_storage_obj_trunc
00001fd0 g     F .text	00000058 TEE_BigIntConvertToS32
000022c8 g     F .text	0000001c TEE_BigIntSub
000014d4 g     F .text	00000014 utee_get_cancellation_flag
000015a0 g     F .text	00000014 utee_hash_init
00005ce8 g     F .text	00000004 tahead_get_trace_level
00000f18 g     F .text	00000052 __utee_from_param
00000f6a g     F .text	00000040 __utee_to_param
000040a0 g     F .text	00000024 mbedtls_mpi_montred
00005700 g     F .text	000002bc memalign
00001f98 g     F .text	00000038 TEE_BigIntConvertFromS32
000036ca g     F .text	00000030 mbedtls_mpi_add_int
00001638 g     F .text	00000014 utee_cryp_obj_restrict_usage
00005a90 g     F .text	000000dc malloc_buffer_is_within_alloced
000016b0 g     F .text	00000014 utee_cryp_obj_copy
000027ec g     F .text	00000002 TEE_BigIntInitFMMContext
000016c4 g     F .text	00000014 utee_cryp_derive_key
00001748 g     F .text	00000018 utee_authenc_dec_final
000023e0 g     F .text	00000006 TEE_BigIntSquare
00000404 g     F .text	00000004 TA_CreateEntryPoint
00003fb4 g     F .text	00000028 mbedtls_mpi_montg_init
00000e32 g     F .text	0000001a snprintk
0000228a g     F .text	00000022 TEE_BigIntGetBitCount
0000251c g     F .text	0000001c TEE_BigIntMulMod
00004866 g     F .text	000002d0 mbedtls_mpi_inv_mod
0000809c g     O .bss	00000020 ta_params
00003950 g     F .text	000003a2 mbedtls_mpi_div_mpi
00003204 g     F .text	0000000c mbedtls_mpi_size
000050fc g     F .text	00000134 bget
00003142 g     F .text	00000050 mbedtls_mpi_set_bit
00002d9c g     F .text	00000012 mbedtls_mpi_init_static
000011e8 g     F .text	00000004 TEE_Free
00004b36 g     F .text	0000005c mbedtls_mpi_is_prime
000011f8 g     F .text	00000006 TEE_CacheInvalidate
000015e0 g     F .text	00000014 utee_cipher_init
00005cd8 g     F .text	00000010 _assert_break
000024e4 g     F .text	0000001c TEE_BigIntAddMod
000017fc g     F .text	00000014 utee_storage_free_enum
00001704 g     F .text	00000014 utee_authenc_update_aad
000010e4 g     F .text	00000004 TEE_MemCompare
000006f0 g     F .text	00000734 __vsnprintf
00001414 g     F .text	00000014 utee_panic
00000faa g     F .text	00000044 TEE_OpenTASession
00000e7c g     F .text	00000014 trace_ext_puts
00000e90 g     F .text	00000006 trace_ext_get_thread_id
00002dae g     F .text	0000004e mbedtls_mpi_free
000011ec g     F .text	00000006 TEE_CacheClean
00001490 g     F .text	00000018 utee_open_ta_session
00003064 g     F .text	00000086 mbedtls_mpi_safe_cond_swap
000015c8 g     F .text	00000018 utee_hash_final
00005d34 g     F .text	00000010 strlen
00002664 g     F .text	00000154 TEE_BigIntComputeExtendedGcd
00005d14 g     F .text	00000002 __aeabi_unwind_cpp_pr1
00001790 g     F .text	00000018 utee_storage_obj_open
000014bc g     F .text	00000018 utee_invoke_ta_command
00001524 g     F .text	00000014 utee_wait
000010ec g     F .text	00000016 TEE_GetSystemTime
00000000 g     O .ta_head	00000020 ta_head
000052c4 g     F .text	000001f8 brel
000035b6 g     F .text	00000080 mbedtls_mpi_sub_abs
00001538 g     F .text	00000014 utee_get_time
0000461e g     F .text	00000032 mbedtls_mpi_fill_random
000010c6 g     F .text	0000000e TEE_SetInstanceData
000014fc g     F .text	00000014 utee_unmask_cancellation
00000e4c g     F .text	00000018 __aeabi_ldivmod
000014e8 g     F .text	00000014 utee_check_access_rights
00003e2a g     F .text	0000013a mbedtls_mpi_write_string
0000189c g     F .text	00000014 utee_cryp_obj_generate_key
00000fee g     F .text	00000014 TEE_CloseTASession
00012100 g       .bss	00000000 __gprof_buf_start
0000566e g     F .text	00000012 free
000055d4 g     F .text	00000064 bstats
0000a0bc g     O .bss	00000004 mbedtls_mpi_mempool



Disassembly of section .text:

00000020 <sha1digest>:
sha1digest():
/media/wen/My_Passport/Raspbian/raspbian-tee/raspbian-tee/optee_examples/socket_test/ta/socket_test_ta.c:34
      20:	e92d 4ff0 	stmdb	sp!, {r4, r5, r6, r7, r8, r9, sl, fp, lr}
      24:	4616      	mov	r6, r2
/media/wen/My_Passport/Raspbian/raspbian-tee/raspbian-tee/optee_examples/socket_test/ta/socket_test_ta.c:38
      26:	4d87      	ldr	r5, [pc, #540]	; (244 <sha1digest+0x224>)
/media/wen/My_Passport/Raspbian/raspbian-tee/raspbian-tee/optee_examples/socket_test/ta/socket_test_ta.c:34
      28:	b0ff      	sub	sp, #508	; 0x1fc
/media/wen/My_Passport/Raspbian/raspbian-tee/raspbian-tee/optee_examples/socket_test/ta/socket_test_ta.c:61
      2a:	f04f 0880 	mov.w	r8, #128	; 0x80
/media/wen/My_Passport/Raspbian/raspbian-tee/raspbian-tee/optee_examples/socket_test/ta/socket_test_ta.c:38
      2e:	447d      	add	r5, pc
      30:	ac09      	add	r4, sp, #36	; 0x24
/media/wen/My_Passport/Raspbian/raspbian-tee/raspbian-tee/optee_examples/socket_test/ta/socket_test_ta.c:58
      32:	ea4f 7956 	mov.w	r9, r6, lsr #29
      36:	00f7      	lsls	r7, r6, #3
/media/wen/My_Passport/Raspbian/raspbian-tee/raspbian-tee/optee_examples/socket_test/ta/socket_test_ta.c:34
      38:	9006      	str	r0, [sp, #24]
      3a:	9107      	str	r1, [sp, #28]
/media/wen/My_Passport/Raspbian/raspbian-tee/raspbian-tee/optee_examples/socket_test/ta/socket_test_ta.c:38
      3c:	cd0f      	ldmia	r5!, {r0, r1, r2, r3}
      3e:	c40f      	stmia	r4!, {r0, r1, r2, r3}
/media/wen/My_Passport/Raspbian/raspbian-tee/raspbian-tee/optee_examples/socket_test/ta/socket_test_ta.c:61
      40:	4642      	mov	r2, r8
/media/wen/My_Passport/Raspbian/raspbian-tee/raspbian-tee/optee_examples/socket_test/ta/socket_test_ta.c:38
      42:	682b      	ldr	r3, [r5, #0]
/media/wen/My_Passport/Raspbian/raspbian-tee/raspbian-tee/optee_examples/socket_test/ta/socket_test_ta.c:61
      44:	ad0e      	add	r5, sp, #56	; 0x38
      46:	4628      	mov	r0, r5
/media/wen/My_Passport/Raspbian/raspbian-tee/raspbian-tee/optee_examples/socket_test/ta/socket_test_ta.c:38
      48:	6023      	str	r3, [r4, #0]
/media/wen/My_Passport/Raspbian/raspbian-tee/raspbian-tee/optee_examples/socket_test/ta/socket_test_ta.c:59
      4a:	f106 0308 	add.w	r3, r6, #8
/media/wen/My_Passport/Raspbian/raspbian-tee/raspbian-tee/optee_examples/socket_test/ta/socket_test_ta.c:58
      4e:	2400      	movs	r4, #0
/media/wen/My_Passport/Raspbian/raspbian-tee/raspbian-tee/optee_examples/socket_test/ta/socket_test_ta.c:59
      50:	099b      	lsrs	r3, r3, #6
/media/wen/My_Passport/Raspbian/raspbian-tee/raspbian-tee/optee_examples/socket_test/ta/socket_test_ta.c:61
      52:	4621      	mov	r1, r4
/media/wen/My_Passport/Raspbian/raspbian-tee/raspbian-tee/optee_examples/socket_test/ta/socket_test_ta.c:59
      54:	3301      	adds	r3, #1
      56:	9301      	str	r3, [sp, #4]
/media/wen/My_Passport/Raspbian/raspbian-tee/raspbian-tee/optee_examples/socket_test/ta/socket_test_ta.c:60
      58:	ebc6 1a83 	rsb	sl, r6, r3, lsl #6
/media/wen/My_Passport/Raspbian/raspbian-tee/raspbian-tee/optee_examples/socket_test/ta/socket_test_ta.c:61
      5c:	f005 fe51 	bl	5d02 <memset>
/media/wen/My_Passport/Raspbian/raspbian-tee/raspbian-tee/optee_examples/socket_test/ta/socket_test_ta.c:63
      60:	9b06      	ldr	r3, [sp, #24]
      62:	2b00      	cmp	r3, #0
      64:	f000 80eb 	beq.w	23e <sha1digest+0x21e>
/media/wen/My_Passport/Raspbian/raspbian-tee/raspbian-tee/optee_examples/socket_test/ta/socket_test_ta.c:66
      68:	9b07      	ldr	r3, [sp, #28]
      6a:	2b00      	cmp	r3, #0
      6c:	f000 80e7 	beq.w	23e <sha1digest+0x21e>
/media/wen/My_Passport/Raspbian/raspbian-tee/raspbian-tee/optee_examples/socket_test/ta/socket_test_ta.c:72
      70:	f885 8000 	strb.w	r8, [r5]
/media/wen/My_Passport/Raspbian/raspbian-tee/raspbian-tee/optee_examples/socket_test/ta/socket_test_ta.c:73
      74:	4455      	add	r5, sl
/media/wen/My_Passport/Raspbian/raspbian-tee/raspbian-tee/optee_examples/socket_test/ta/socket_test_ta.c:77
      76:	0e3b      	lsrs	r3, r7, #24
/media/wen/My_Passport/Raspbian/raspbian-tee/raspbian-tee/optee_examples/socket_test/ta/socket_test_ta.c:83
      78:	46a0      	mov	r8, r4
/media/wen/My_Passport/Raspbian/raspbian-tee/raspbian-tee/optee_examples/socket_test/ta/socket_test_ta.c:77
      7a:	f805 3c04 	strb.w	r3, [r5, #-4]
/media/wen/My_Passport/Raspbian/raspbian-tee/raspbian-tee/optee_examples/socket_test/ta/socket_test_ta.c:78
      7e:	0c3b      	lsrs	r3, r7, #16
      80:	f805 3c03 	strb.w	r3, [r5, #-3]
/media/wen/My_Passport/Raspbian/raspbian-tee/raspbian-tee/optee_examples/socket_test/ta/socket_test_ta.c:79
      84:	0a3b      	lsrs	r3, r7, #8
/media/wen/My_Passport/Raspbian/raspbian-tee/raspbian-tee/optee_examples/socket_test/ta/socket_test_ta.c:73
      86:	f805 4c08 	strb.w	r4, [r5, #-8]
/media/wen/My_Passport/Raspbian/raspbian-tee/raspbian-tee/optee_examples/socket_test/ta/socket_test_ta.c:74
      8a:	f805 4c07 	strb.w	r4, [r5, #-7]
/media/wen/My_Passport/Raspbian/raspbian-tee/raspbian-tee/optee_examples/socket_test/ta/socket_test_ta.c:75
      8e:	f805 4c06 	strb.w	r4, [r5, #-6]
/media/wen/My_Passport/Raspbian/raspbian-tee/raspbian-tee/optee_examples/socket_test/ta/socket_test_ta.c:76
      92:	f805 9c05 	strb.w	r9, [r5, #-5]
/media/wen/My_Passport/Raspbian/raspbian-tee/raspbian-tee/optee_examples/socket_test/ta/socket_test_ta.c:79
      96:	f805 3c02 	strb.w	r3, [r5, #-2]
/media/wen/My_Passport/Raspbian/raspbian-tee/raspbian-tee/optee_examples/socket_test/ta/socket_test_ta.c:80
      9a:	f805 7c01 	strb.w	r7, [r5, #-1]
/media/wen/My_Passport/Raspbian/raspbian-tee/raspbian-tee/optee_examples/socket_test/ta/socket_test_ta.c:86
      9e:	ad2e      	add	r5, sp, #184	; 0xb8
      a0:	f44f 72a0 	mov.w	r2, #320	; 0x140
      a4:	2100      	movs	r1, #0
      a6:	4628      	mov	r0, r5
      a8:	f005 fe2b 	bl	5d02 <memset>
/media/wen/My_Passport/Raspbian/raspbian-tee/raspbian-tee/optee_examples/socket_test/ta/socket_test_ta.c:89
      ac:	2200      	movs	r2, #0
      ae:	f10d 0e38 	add.w	lr, sp, #56	; 0x38
/media/wen/My_Passport/Raspbian/raspbian-tee/raspbian-tee/optee_examples/socket_test/ta/socket_test_ta.c:83
      b2:	2318      	movs	r3, #24
      b4:	e00a      	b.n	cc <sha1digest+0xac>
/media/wen/My_Passport/Raspbian/raspbian-tee/raspbian-tee/optee_examples/socket_test/ta/socket_test_ta.c:96
      b6:	9907      	ldr	r1, [sp, #28]
      b8:	5d09      	ldrb	r1, [r1, r4]
/media/wen/My_Passport/Raspbian/raspbian-tee/raspbian-tee/optee_examples/socket_test/ta/socket_test_ta.c:97
      ba:	3401      	adds	r4, #1
/media/wen/My_Passport/Raspbian/raspbian-tee/raspbian-tee/optee_examples/socket_test/ta/socket_test_ta.c:96
      bc:	fa01 f003 	lsl.w	r0, r1, r3
      c0:	f855 1022 	ldr.w	r1, [r5, r2, lsl #2]
/media/wen/My_Passport/Raspbian/raspbian-tee/raspbian-tee/optee_examples/socket_test/ta/socket_test_ta.c:98
      c4:	3b08      	subs	r3, #8
/media/wen/My_Passport/Raspbian/raspbian-tee/raspbian-tee/optee_examples/socket_test/ta/socket_test_ta.c:96
      c6:	4401      	add	r1, r0
      c8:	f845 1022 	str.w	r1, [r5, r2, lsl #2]
/media/wen/My_Passport/Raspbian/raspbian-tee/raspbian-tee/optee_examples/socket_test/ta/socket_test_ta.c:94
      cc:	42b4      	cmp	r4, r6
      ce:	d30b      	bcc.n	e8 <sha1digest+0xc8>
      d0:	1ba0      	subs	r0, r4, r6
      d2:	469c      	mov	ip, r3
      d4:	3801      	subs	r0, #1
      d6:	4470      	add	r0, lr
/media/wen/My_Passport/Raspbian/raspbian-tee/raspbian-tee/optee_examples/socket_test/ta/socket_test_ta.c:101
      d8:	f1bc 0f00 	cmp.w	ip, #0
      dc:	f280 8082 	bge.w	1e4 <sha1digest+0x1c4>
      e0:	3308      	adds	r3, #8
      e2:	eb04 04d3 	add.w	r4, r4, r3, lsr #3
      e6:	e002      	b.n	ee <sha1digest+0xce>
/media/wen/My_Passport/Raspbian/raspbian-tee/raspbian-tee/optee_examples/socket_test/ta/socket_test_ta.c:94 (discriminator 1)
      e8:	f113 0f08 	cmn.w	r3, #8
      ec:	d1e3      	bne.n	b6 <sha1digest+0x96>
/media/wen/My_Passport/Raspbian/raspbian-tee/raspbian-tee/optee_examples/socket_test/ta/socket_test_ta.c:89 (discriminator 2)
      ee:	3201      	adds	r2, #1
      f0:	2a10      	cmp	r2, #16
      f2:	d1de      	bne.n	b2 <sha1digest+0x92>
      f4:	aa2d      	add	r2, sp, #180	; 0xb4
      f6:	ad3d      	add	r5, sp, #244	; 0xf4
/media/wen/My_Passport/Raspbian/raspbian-tee/raspbian-tee/optee_examples/socket_test/ta/socket_test_ta.c:89
      f8:	4610      	mov	r0, r2
/media/wen/My_Passport/Raspbian/raspbian-tee/raspbian-tee/optee_examples/socket_test/ta/socket_test_ta.c:113 (discriminator 3)
      fa:	6a41      	ldr	r1, [r0, #36]	; 0x24
      fc:	6b83      	ldr	r3, [r0, #56]	; 0x38
      fe:	404b      	eors	r3, r1
     100:	68c1      	ldr	r1, [r0, #12]
     102:	404b      	eors	r3, r1
     104:	f850 1f04 	ldr.w	r1, [r0, #4]!
     108:	404b      	eors	r3, r1
/media/wen/My_Passport/Raspbian/raspbian-tee/raspbian-tee/optee_examples/socket_test/ta/socket_test_ta.c:111 (discriminator 3)
     10a:	4285      	cmp	r5, r0
/media/wen/My_Passport/Raspbian/raspbian-tee/raspbian-tee/optee_examples/socket_test/ta/socket_test_ta.c:113 (discriminator 3)
     10c:	ea4f 73f3 	mov.w	r3, r3, ror #31
     110:	6403      	str	r3, [r0, #64]	; 0x40
/media/wen/My_Passport/Raspbian/raspbian-tee/raspbian-tee/optee_examples/socket_test/ta/socket_test_ta.c:111 (discriminator 3)
     112:	d1f2      	bne.n	fa <sha1digest+0xda>
     114:	a85d      	add	r0, sp, #372	; 0x174
/media/wen/My_Passport/Raspbian/raspbian-tee/raspbian-tee/optee_examples/socket_test/ta/socket_test_ta.c:117 (discriminator 3)
     116:	6c51      	ldr	r1, [r2, #68]	; 0x44
     118:	6ed3      	ldr	r3, [r2, #108]	; 0x6c
     11a:	404b      	eors	r3, r1
     11c:	6951      	ldr	r1, [r2, #20]
     11e:	404b      	eors	r3, r1
     120:	f852 1f04 	ldr.w	r1, [r2, #4]!
     124:	404b      	eors	r3, r1
/media/wen/My_Passport/Raspbian/raspbian-tee/raspbian-tee/optee_examples/socket_test/ta/socket_test_ta.c:115 (discriminator 3)
     126:	4290      	cmp	r0, r2
/media/wen/My_Passport/Raspbian/raspbian-tee/raspbian-tee/optee_examples/socket_test/ta/socket_test_ta.c:117 (discriminator 3)
     128:	ea4f 73b3 	mov.w	r3, r3, ror #30
     12c:	f8c2 3080 	str.w	r3, [r2, #128]	; 0x80
/media/wen/My_Passport/Raspbian/raspbian-tee/raspbian-tee/optee_examples/socket_test/ta/socket_test_ta.c:115 (discriminator 3)
     130:	d1f1      	bne.n	116 <sha1digest+0xf6>
/media/wen/My_Passport/Raspbian/raspbian-tee/raspbian-tee/optee_examples/socket_test/ta/socket_test_ta.c:122
     132:	9a0a      	ldr	r2, [sp, #40]	; 0x28
/media/wen/My_Passport/Raspbian/raspbian-tee/raspbian-tee/optee_examples/socket_test/ta/socket_test_ta.c:127
     134:	2500      	movs	r5, #0
/media/wen/My_Passport/Raspbian/raspbian-tee/raspbian-tee/optee_examples/socket_test/ta/socket_test_ta.c:125
     136:	9b0d      	ldr	r3, [sp, #52]	; 0x34
/media/wen/My_Passport/Raspbian/raspbian-tee/raspbian-tee/optee_examples/socket_test/ta/socket_test_ta.c:149
     138:	f10d 0bb8 	add.w	fp, sp, #184	; 0xb8
/media/wen/My_Passport/Raspbian/raspbian-tee/raspbian-tee/optee_examples/socket_test/ta/socket_test_ta.c:122
     13c:	9202      	str	r2, [sp, #8]
/media/wen/My_Passport/Raspbian/raspbian-tee/raspbian-tee/optee_examples/socket_test/ta/socket_test_ta.c:123
     13e:	9a0b      	ldr	r2, [sp, #44]	; 0x2c
/media/wen/My_Passport/Raspbian/raspbian-tee/raspbian-tee/optee_examples/socket_test/ta/socket_test_ta.c:125
     140:	469a      	mov	sl, r3
/media/wen/My_Passport/Raspbian/raspbian-tee/raspbian-tee/optee_examples/socket_test/ta/socket_test_ta.c:121
     142:	f8dd c024 	ldr.w	ip, [sp, #36]	; 0x24
/media/wen/My_Passport/Raspbian/raspbian-tee/raspbian-tee/optee_examples/socket_test/ta/socket_test_ta.c:123
     146:	9203      	str	r2, [sp, #12]
/media/wen/My_Passport/Raspbian/raspbian-tee/raspbian-tee/optee_examples/socket_test/ta/socket_test_ta.c:124
     148:	9a0c      	ldr	r2, [sp, #48]	; 0x30
/media/wen/My_Passport/Raspbian/raspbian-tee/raspbian-tee/optee_examples/socket_test/ta/socket_test_ta.c:121
     14a:	46e6      	mov	lr, ip
/media/wen/My_Passport/Raspbian/raspbian-tee/raspbian-tee/optee_examples/socket_test/ta/socket_test_ta.c:123
     14c:	9803      	ldr	r0, [sp, #12]
/media/wen/My_Passport/Raspbian/raspbian-tee/raspbian-tee/optee_examples/socket_test/ta/socket_test_ta.c:122
     14e:	9f02      	ldr	r7, [sp, #8]
/media/wen/My_Passport/Raspbian/raspbian-tee/raspbian-tee/optee_examples/socket_test/ta/socket_test_ta.c:124
     150:	4611      	mov	r1, r2
     152:	9204      	str	r2, [sp, #16]
/media/wen/My_Passport/Raspbian/raspbian-tee/raspbian-tee/optee_examples/socket_test/ta/socket_test_ta.c:125
     154:	9305      	str	r3, [sp, #20]
/media/wen/My_Passport/Raspbian/raspbian-tee/raspbian-tee/optee_examples/socket_test/ta/socket_test_ta.c:129
     156:	2d13      	cmp	r5, #19
     158:	d854      	bhi.n	204 <sha1digest+0x1e4>
/media/wen/My_Passport/Raspbian/raspbian-tee/raspbian-tee/optee_examples/socket_test/ta/socket_test_ta.c:131
     15a:	ea80 0301 	eor.w	r3, r0, r1
/media/wen/My_Passport/Raspbian/raspbian-tee/raspbian-tee/optee_examples/socket_test/ta/socket_test_ta.c:132
     15e:	f8df 90e8 	ldr.w	r9, [pc, #232]	; 248 <sha1digest+0x228>
/media/wen/My_Passport/Raspbian/raspbian-tee/raspbian-tee/optee_examples/socket_test/ta/socket_test_ta.c:131
     162:	403b      	ands	r3, r7
     164:	404b      	eors	r3, r1
/media/wen/My_Passport/Raspbian/raspbian-tee/raspbian-tee/optee_examples/socket_test/ta/socket_test_ta.c:149 (discriminator 2)
     166:	f85b 2025 	ldr.w	r2, [fp, r5, lsl #2]
/media/wen/My_Passport/Raspbian/raspbian-tee/raspbian-tee/optee_examples/socket_test/ta/socket_test_ta.c:127 (discriminator 2)
     16a:	3501      	adds	r5, #1
     16c:	2d50      	cmp	r5, #80	; 0x50
/media/wen/My_Passport/Raspbian/raspbian-tee/raspbian-tee/optee_examples/socket_test/ta/socket_test_ta.c:149 (discriminator 2)
     16e:	eb02 62fe 	add.w	r2, r2, lr, ror #27
     172:	441a      	add	r2, r3
/media/wen/My_Passport/Raspbian/raspbian-tee/raspbian-tee/optee_examples/socket_test/ta/socket_test_ta.c:152 (discriminator 2)
     174:	ea4f 03b7 	mov.w	r3, r7, ror #2
/media/wen/My_Passport/Raspbian/raspbian-tee/raspbian-tee/optee_examples/socket_test/ta/socket_test_ta.c:149 (discriminator 2)
     178:	4491      	add	r9, r2
     17a:	4677      	mov	r7, lr
     17c:	44d1      	add	r9, sl
     17e:	468a      	mov	sl, r1
/media/wen/My_Passport/Raspbian/raspbian-tee/raspbian-tee/optee_examples/socket_test/ta/socket_test_ta.c:127 (discriminator 2)
     180:	d13c      	bne.n	1fc <sha1digest+0x1dc>
/media/wen/My_Passport/Raspbian/raspbian-tee/raspbian-tee/optee_examples/socket_test/ta/socket_test_ta.c:157 (discriminator 2)
     182:	ad09      	add	r5, sp, #36	; 0x24
     184:	eb0c 0209 	add.w	r2, ip, r9
/media/wen/My_Passport/Raspbian/raspbian-tee/raspbian-tee/optee_examples/socket_test/ta/socket_test_ta.c:83 (discriminator 2)
     188:	f108 0801 	add.w	r8, r8, #1
/media/wen/My_Passport/Raspbian/raspbian-tee/raspbian-tee/optee_examples/socket_test/ta/socket_test_ta.c:157 (discriminator 2)
     18c:	602a      	str	r2, [r5, #0]
/media/wen/My_Passport/Raspbian/raspbian-tee/raspbian-tee/optee_examples/socket_test/ta/socket_test_ta.c:158 (discriminator 2)
     18e:	9a02      	ldr	r2, [sp, #8]
     190:	4472      	add	r2, lr
     192:	606a      	str	r2, [r5, #4]
/media/wen/My_Passport/Raspbian/raspbian-tee/raspbian-tee/optee_examples/socket_test/ta/socket_test_ta.c:159 (discriminator 2)
     194:	9a03      	ldr	r2, [sp, #12]
     196:	441a      	add	r2, r3
/media/wen/My_Passport/Raspbian/raspbian-tee/raspbian-tee/optee_examples/socket_test/ta/socket_test_ta.c:160 (discriminator 2)
     198:	9b04      	ldr	r3, [sp, #16]
/media/wen/My_Passport/Raspbian/raspbian-tee/raspbian-tee/optee_examples/socket_test/ta/socket_test_ta.c:159 (discriminator 2)
     19a:	60aa      	str	r2, [r5, #8]
/media/wen/My_Passport/Raspbian/raspbian-tee/raspbian-tee/optee_examples/socket_test/ta/socket_test_ta.c:160 (discriminator 2)
     19c:	4403      	add	r3, r0
     19e:	60eb      	str	r3, [r5, #12]
/media/wen/My_Passport/Raspbian/raspbian-tee/raspbian-tee/optee_examples/socket_test/ta/socket_test_ta.c:161 (discriminator 2)
     1a0:	9b05      	ldr	r3, [sp, #20]
     1a2:	440b      	add	r3, r1
     1a4:	612b      	str	r3, [r5, #16]
/media/wen/My_Passport/Raspbian/raspbian-tee/raspbian-tee/optee_examples/socket_test/ta/socket_test_ta.c:83 (discriminator 2)
     1a6:	9b01      	ldr	r3, [sp, #4]
     1a8:	4543      	cmp	r3, r8
     1aa:	f63f af78 	bhi.w	9e <sha1digest+0x7e>
     1ae:	9b06      	ldr	r3, [sp, #24]
/media/wen/My_Passport/Raspbian/raspbian-tee/raspbian-tee/optee_examples/socket_test/ta/socket_test_ta.c:83
     1b0:	2200      	movs	r2, #0
/media/wen/My_Passport/Raspbian/raspbian-tee/raspbian-tee/optee_examples/socket_test/ta/socket_test_ta.c:169 (discriminator 3)
     1b2:	f855 1022 	ldr.w	r1, [r5, r2, lsl #2]
/media/wen/My_Passport/Raspbian/raspbian-tee/raspbian-tee/optee_examples/socket_test/ta/socket_test_ta.c:167 (discriminator 3)
     1b6:	3201      	adds	r2, #1
     1b8:	2a05      	cmp	r2, #5
     1ba:	f103 0304 	add.w	r3, r3, #4
/media/wen/My_Passport/Raspbian/raspbian-tee/raspbian-tee/optee_examples/socket_test/ta/socket_test_ta.c:172 (discriminator 3)
     1be:	f803 1c01 	strb.w	r1, [r3, #-1]
/media/wen/My_Passport/Raspbian/raspbian-tee/raspbian-tee/optee_examples/socket_test/ta/socket_test_ta.c:169 (discriminator 3)
     1c2:	ea4f 6011 	mov.w	r0, r1, lsr #24
     1c6:	f803 0c04 	strb.w	r0, [r3, #-4]
/media/wen/My_Passport/Raspbian/raspbian-tee/raspbian-tee/optee_examples/socket_test/ta/socket_test_ta.c:170 (discriminator 3)
     1ca:	ea4f 4011 	mov.w	r0, r1, lsr #16
     1ce:	f803 0c03 	strb.w	r0, [r3, #-3]
/media/wen/My_Passport/Raspbian/raspbian-tee/raspbian-tee/optee_examples/socket_test/ta/socket_test_ta.c:171 (discriminator 3)
     1d2:	ea4f 2011 	mov.w	r0, r1, lsr #8
     1d6:	f803 0c02 	strb.w	r0, [r3, #-2]
/media/wen/My_Passport/Raspbian/raspbian-tee/raspbian-tee/optee_examples/socket_test/ta/socket_test_ta.c:167 (discriminator 3)
     1da:	d1ea      	bne.n	1b2 <sha1digest+0x192>
/media/wen/My_Passport/Raspbian/raspbian-tee/raspbian-tee/optee_examples/socket_test/ta/socket_test_ta.c:176
     1dc:	2000      	movs	r0, #0
/media/wen/My_Passport/Raspbian/raspbian-tee/raspbian-tee/optee_examples/socket_test/ta/socket_test_ta.c:177
     1de:	b07f      	add	sp, #508	; 0x1fc
     1e0:	e8bd 8ff0 	ldmia.w	sp!, {r4, r5, r6, r7, r8, r9, sl, fp, pc}
/media/wen/My_Passport/Raspbian/raspbian-tee/raspbian-tee/optee_examples/socket_test/ta/socket_test_ta.c:103
     1e4:	f810 7f01 	ldrb.w	r7, [r0, #1]!
     1e8:	f855 1022 	ldr.w	r1, [r5, r2, lsl #2]
     1ec:	fa07 f70c 	lsl.w	r7, r7, ip
/media/wen/My_Passport/Raspbian/raspbian-tee/raspbian-tee/optee_examples/socket_test/ta/socket_test_ta.c:105
     1f0:	f1ac 0c08 	sub.w	ip, ip, #8
/media/wen/My_Passport/Raspbian/raspbian-tee/raspbian-tee/optee_examples/socket_test/ta/socket_test_ta.c:103
     1f4:	4439      	add	r1, r7
     1f6:	f845 1022 	str.w	r1, [r5, r2, lsl #2]
     1fa:	e76d      	b.n	d8 <sha1digest+0xb8>
     1fc:	4601      	mov	r1, r0
/media/wen/My_Passport/Raspbian/raspbian-tee/raspbian-tee/optee_examples/socket_test/ta/socket_test_ta.c:149
     1fe:	46ce      	mov	lr, r9
/media/wen/My_Passport/Raspbian/raspbian-tee/raspbian-tee/optee_examples/socket_test/ta/socket_test_ta.c:152
     200:	4618      	mov	r0, r3
     202:	e7a8      	b.n	156 <sha1digest+0x136>
/media/wen/My_Passport/Raspbian/raspbian-tee/raspbian-tee/optee_examples/socket_test/ta/socket_test_ta.c:134
     204:	f1a5 0314 	sub.w	r3, r5, #20
     208:	2b13      	cmp	r3, #19
     20a:	d805      	bhi.n	218 <sha1digest+0x1f8>
/media/wen/My_Passport/Raspbian/raspbian-tee/raspbian-tee/optee_examples/socket_test/ta/socket_test_ta.c:136
     20c:	ea87 0300 	eor.w	r3, r7, r0
/media/wen/My_Passport/Raspbian/raspbian-tee/raspbian-tee/optee_examples/socket_test/ta/socket_test_ta.c:137
     210:	f8df 9038 	ldr.w	r9, [pc, #56]	; 24c <sha1digest+0x22c>
/media/wen/My_Passport/Raspbian/raspbian-tee/raspbian-tee/optee_examples/socket_test/ta/socket_test_ta.c:136
     214:	404b      	eors	r3, r1
     216:	e7a6      	b.n	166 <sha1digest+0x146>
/media/wen/My_Passport/Raspbian/raspbian-tee/raspbian-tee/optee_examples/socket_test/ta/socket_test_ta.c:139
     218:	f1a5 0328 	sub.w	r3, r5, #40	; 0x28
     21c:	2b13      	cmp	r3, #19
     21e:	d808      	bhi.n	232 <sha1digest+0x212>
/media/wen/My_Passport/Raspbian/raspbian-tee/raspbian-tee/optee_examples/socket_test/ta/socket_test_ta.c:141
     220:	ea40 0301 	orr.w	r3, r0, r1
     224:	ea00 0201 	and.w	r2, r0, r1
     228:	403b      	ands	r3, r7
/media/wen/My_Passport/Raspbian/raspbian-tee/raspbian-tee/optee_examples/socket_test/ta/socket_test_ta.c:142
     22a:	f8df 9024 	ldr.w	r9, [pc, #36]	; 250 <sha1digest+0x230>
/media/wen/My_Passport/Raspbian/raspbian-tee/raspbian-tee/optee_examples/socket_test/ta/socket_test_ta.c:141
     22e:	4313      	orrs	r3, r2
     230:	e799      	b.n	166 <sha1digest+0x146>
/media/wen/My_Passport/Raspbian/raspbian-tee/raspbian-tee/optee_examples/socket_test/ta/socket_test_ta.c:146
     232:	ea87 0300 	eor.w	r3, r7, r0
/media/wen/My_Passport/Raspbian/raspbian-tee/raspbian-tee/optee_examples/socket_test/ta/socket_test_ta.c:147
     236:	f8df 901c 	ldr.w	r9, [pc, #28]	; 254 <sha1digest+0x234>
/media/wen/My_Passport/Raspbian/raspbian-tee/raspbian-tee/optee_examples/socket_test/ta/socket_test_ta.c:146
     23a:	404b      	eors	r3, r1
     23c:	e793      	b.n	166 <sha1digest+0x146>
/media/wen/My_Passport/Raspbian/raspbian-tee/raspbian-tee/optee_examples/socket_test/ta/socket_test_ta.c:64
     23e:	f04f 30ff 	mov.w	r0, #4294967295
     242:	e7cc      	b.n	1de <sha1digest+0x1be>
     244:	00005f36 	.word	0x00005f36
     248:	5a827999 	.word	0x5a827999
     24c:	6ed9eba1 	.word	0x6ed9eba1
     250:	8f1bbcdc 	.word	0x8f1bbcdc
     254:	ca62c1d6 	.word	0xca62c1d6

00000258 <hmac_sha1>:
hmac_sha1():
/media/wen/My_Passport/Raspbian/raspbian-tee/raspbian-tee/optee_examples/socket_test/ta/socket_test_ta.c:185
     258:	e92d 41f0 	stmdb	sp!, {r4, r5, r6, r7, r8, lr}
     25c:	460f      	mov	r7, r1
/media/wen/My_Passport/Raspbian/raspbian-tee/raspbian-tee/optee_examples/socket_test/ta/socket_test_ta.c:198
     25e:	492d      	ldr	r1, [pc, #180]	; (314 <hmac_sha1+0xbc>)
/media/wen/My_Passport/Raspbian/raspbian-tee/raspbian-tee/optee_examples/socket_test/ta/socket_test_ta.c:185
     260:	f5ad 5d8e 	sub.w	sp, sp, #4544	; 0x11c0
     264:	4604      	mov	r4, r0
     266:	b086      	sub	sp, #24
/media/wen/My_Passport/Raspbian/raspbian-tee/raspbian-tee/optee_examples/socket_test/ta/socket_test_ta.c:198
     268:	4479      	add	r1, pc
     26a:	f10d 08c4 	add.w	r8, sp, #196	; 0xc4
/media/wen/My_Passport/Raspbian/raspbian-tee/raspbian-tee/optee_examples/socket_test/ta/socket_test_ta.c:185
     26e:	4616      	mov	r6, r2
/media/wen/My_Passport/Raspbian/raspbian-tee/raspbian-tee/optee_examples/socket_test/ta/socket_test_ta.c:198
     270:	3114      	adds	r1, #20
     272:	2240      	movs	r2, #64	; 0x40
     274:	4640      	mov	r0, r8
/media/wen/My_Passport/Raspbian/raspbian-tee/raspbian-tee/optee_examples/socket_test/ta/socket_test_ta.c:212
     276:	ad01      	add	r5, sp, #4
/media/wen/My_Passport/Raspbian/raspbian-tee/raspbian-tee/optee_examples/socket_test/ta/socket_test_ta.c:198
     278:	f005 fd38 	bl	5cec <memcpy>
/media/wen/My_Passport/Raspbian/raspbian-tee/raspbian-tee/optee_examples/socket_test/ta/socket_test_ta.c:210
     27c:	2300      	movs	r3, #0
/media/wen/My_Passport/Raspbian/raspbian-tee/raspbian-tee/optee_examples/socket_test/ta/socket_test_ta.c:212
     27e:	461a      	mov	r2, r3
/media/wen/My_Passport/Raspbian/raspbian-tee/raspbian-tee/optee_examples/socket_test/ta/socket_test_ta.c:212 (discriminator 3)
     280:	555a      	strb	r2, [r3, r5]
/media/wen/My_Passport/Raspbian/raspbian-tee/raspbian-tee/optee_examples/socket_test/ta/socket_test_ta.c:210 (discriminator 3)
     282:	3301      	adds	r3, #1
     284:	2b40      	cmp	r3, #64	; 0x40
     286:	d1fb      	bne.n	280 <hmac_sha1+0x28>
     288:	2300      	movs	r3, #0
/media/wen/My_Passport/Raspbian/raspbian-tee/raspbian-tee/optee_examples/socket_test/ta/socket_test_ta.c:240 (discriminator 3)
     28a:	f818 2003 	ldrb.w	r2, [r8, r3]
     28e:	54ea      	strb	r2, [r5, r3]
/media/wen/My_Passport/Raspbian/raspbian-tee/raspbian-tee/optee_examples/socket_test/ta/socket_test_ta.c:238 (discriminator 3)
     290:	3301      	adds	r3, #1
     292:	2b40      	cmp	r3, #64	; 0x40
     294:	d1f9      	bne.n	28a <hmac_sha1+0x32>
     296:	2300      	movs	r3, #0
/media/wen/My_Passport/Raspbian/raspbian-tee/raspbian-tee/optee_examples/socket_test/ta/socket_test_ta.c:246 (discriminator 3)
     298:	a811      	add	r0, sp, #68	; 0x44
     29a:	5cea      	ldrb	r2, [r5, r3]
     29c:	f082 0236 	eor.w	r2, r2, #54	; 0x36
     2a0:	541a      	strb	r2, [r3, r0]
/media/wen/My_Passport/Raspbian/raspbian-tee/raspbian-tee/optee_examples/socket_test/ta/socket_test_ta.c:244 (discriminator 3)
     2a2:	3301      	adds	r3, #1
     2a4:	2b40      	cmp	r3, #64	; 0x40
     2a6:	d1f8      	bne.n	29a <hmac_sha1+0x42>
     2a8:	2300      	movs	r3, #0
/media/wen/My_Passport/Raspbian/raspbian-tee/raspbian-tee/optee_examples/socket_test/ta/socket_test_ta.c:251 (discriminator 3)
     2aa:	a956      	add	r1, sp, #344	; 0x158
     2ac:	5cc2      	ldrb	r2, [r0, r3]
     2ae:	545a      	strb	r2, [r3, r1]
/media/wen/My_Passport/Raspbian/raspbian-tee/raspbian-tee/optee_examples/socket_test/ta/socket_test_ta.c:249 (discriminator 3)
     2b0:	3301      	adds	r3, #1
     2b2:	2b40      	cmp	r3, #64	; 0x40
     2b4:	d1fa      	bne.n	2ac <hmac_sha1+0x54>
     2b6:	2300      	movs	r3, #0
/media/wen/My_Passport/Raspbian/raspbian-tee/raspbian-tee/optee_examples/socket_test/ta/socket_test_ta.c:253 (discriminator 1)
     2b8:	42b3      	cmp	r3, r6
     2ba:	db25      	blt.n	308 <hmac_sha1+0xb0>
/media/wen/My_Passport/Raspbian/raspbian-tee/raspbian-tee/optee_examples/socket_test/ta/socket_test_ta.c:259
     2bc:	f106 0240 	add.w	r2, r6, #64	; 0x40
     2c0:	4620      	mov	r0, r4
     2c2:	f7ff fead 	bl	20 <sha1digest>
/media/wen/My_Passport/Raspbian/raspbian-tee/raspbian-tee/optee_examples/socket_test/ta/socket_test_ta.c:262
     2c6:	2300      	movs	r3, #0
/media/wen/My_Passport/Raspbian/raspbian-tee/raspbian-tee/optee_examples/socket_test/ta/socket_test_ta.c:264
     2c8:	a821      	add	r0, sp, #132	; 0x84
/media/wen/My_Passport/Raspbian/raspbian-tee/raspbian-tee/optee_examples/socket_test/ta/socket_test_ta.c:264 (discriminator 3)
     2ca:	5cea      	ldrb	r2, [r5, r3]
     2cc:	f082 025c 	eor.w	r2, r2, #92	; 0x5c
     2d0:	541a      	strb	r2, [r3, r0]
/media/wen/My_Passport/Raspbian/raspbian-tee/raspbian-tee/optee_examples/socket_test/ta/socket_test_ta.c:262 (discriminator 3)
     2d2:	3301      	adds	r3, #1
     2d4:	2b40      	cmp	r3, #64	; 0x40
     2d6:	d1f8      	bne.n	2ca <hmac_sha1+0x72>
     2d8:	2300      	movs	r3, #0
/media/wen/My_Passport/Raspbian/raspbian-tee/raspbian-tee/optee_examples/socket_test/ta/socket_test_ta.c:270 (discriminator 3)
     2da:	a941      	add	r1, sp, #260	; 0x104
     2dc:	5cc2      	ldrb	r2, [r0, r3]
     2de:	545a      	strb	r2, [r3, r1]
/media/wen/My_Passport/Raspbian/raspbian-tee/raspbian-tee/optee_examples/socket_test/ta/socket_test_ta.c:268 (discriminator 3)
     2e0:	3301      	adds	r3, #1
     2e2:	2b40      	cmp	r3, #64	; 0x40
     2e4:	d1fa      	bne.n	2dc <hmac_sha1+0x84>
     2e6:	2300      	movs	r3, #0
/media/wen/My_Passport/Raspbian/raspbian-tee/raspbian-tee/optee_examples/socket_test/ta/socket_test_ta.c:274 (discriminator 3)
     2e8:	18ca      	adds	r2, r1, r3
     2ea:	5ce0      	ldrb	r0, [r4, r3]
/media/wen/My_Passport/Raspbian/raspbian-tee/raspbian-tee/optee_examples/socket_test/ta/socket_test_ta.c:272 (discriminator 3)
     2ec:	3301      	adds	r3, #1
     2ee:	2b14      	cmp	r3, #20
/media/wen/My_Passport/Raspbian/raspbian-tee/raspbian-tee/optee_examples/socket_test/ta/socket_test_ta.c:274 (discriminator 3)
     2f0:	f882 0040 	strb.w	r0, [r2, #64]	; 0x40
/media/wen/My_Passport/Raspbian/raspbian-tee/raspbian-tee/optee_examples/socket_test/ta/socket_test_ta.c:272 (discriminator 3)
     2f4:	d1f8      	bne.n	2e8 <hmac_sha1+0x90>
/media/wen/My_Passport/Raspbian/raspbian-tee/raspbian-tee/optee_examples/socket_test/ta/socket_test_ta.c:278
     2f6:	2254      	movs	r2, #84	; 0x54
     2f8:	4620      	mov	r0, r4
     2fa:	f7ff fe91 	bl	20 <sha1digest>
/media/wen/My_Passport/Raspbian/raspbian-tee/raspbian-tee/optee_examples/socket_test/ta/socket_test_ta.c:279
     2fe:	f50d 5d8e 	add.w	sp, sp, #4544	; 0x11c0
     302:	b006      	add	sp, #24
     304:	e8bd 81f0 	ldmia.w	sp!, {r4, r5, r6, r7, r8, pc}
/media/wen/My_Passport/Raspbian/raspbian-tee/raspbian-tee/optee_examples/socket_test/ta/socket_test_ta.c:255 (discriminator 3)
     308:	18ca      	adds	r2, r1, r3
     30a:	5cf8      	ldrb	r0, [r7, r3]
/media/wen/My_Passport/Raspbian/raspbian-tee/raspbian-tee/optee_examples/socket_test/ta/socket_test_ta.c:253 (discriminator 3)
     30c:	3301      	adds	r3, #1
/media/wen/My_Passport/Raspbian/raspbian-tee/raspbian-tee/optee_examples/socket_test/ta/socket_test_ta.c:255 (discriminator 3)
     30e:	f882 0040 	strb.w	r0, [r2, #64]	; 0x40
     312:	e7d1      	b.n	2b8 <hmac_sha1+0x60>
     314:	00005cfc 	.word	0x00005cfc

00000318 <string_cmp>:
string_cmp():
/media/wen/My_Passport/Raspbian/raspbian-tee/raspbian-tee/optee_examples/socket_test/ta/socket_test_ta.c:284
     318:	1e42      	subs	r2, r0, #1
     31a:	3901      	subs	r1, #1
/media/wen/My_Passport/Raspbian/raspbian-tee/raspbian-tee/optee_examples/socket_test/ta/socket_test_ta.c:286 (discriminator 1)
     31c:	f812 0f01 	ldrb.w	r0, [r2, #1]!
     320:	f811 3f01 	ldrb.w	r3, [r1, #1]!
     324:	4298      	cmp	r0, r3
     326:	d001      	beq.n	32c <string_cmp+0x14>
/media/wen/My_Passport/Raspbian/raspbian-tee/raspbian-tee/optee_examples/socket_test/ta/socket_test_ta.c:289
     328:	1ac0      	subs	r0, r0, r3
     32a:	e001      	b.n	330 <string_cmp+0x18>
/media/wen/My_Passport/Raspbian/raspbian-tee/raspbian-tee/optee_examples/socket_test/ta/socket_test_ta.c:287
     32c:	2800      	cmp	r0, #0
     32e:	d1f5      	bne.n	31c <string_cmp+0x4>
/media/wen/My_Passport/Raspbian/raspbian-tee/raspbian-tee/optee_examples/socket_test/ta/socket_test_ta.c:290
     330:	4770      	bx	lr

00000332 <socket_send>:
socket_send():
/media/wen/My_Passport/Raspbian/raspbian-tee/raspbian-tee/optee_examples/socket_test/ta/socket_test_ta.c:458
     332:	f242 5325 	movw	r3, #9509	; 0x2525
/media/wen/My_Passport/Raspbian/raspbian-tee/raspbian-tee/optee_examples/socket_test/ta/socket_test_ta.c:440
     336:	e92d 43f0 	stmdb	sp!, {r4, r5, r6, r7, r8, r9, lr}
/media/wen/My_Passport/Raspbian/raspbian-tee/raspbian-tee/optee_examples/socket_test/ta/socket_test_ta.c:458
     33a:	4299      	cmp	r1, r3
/media/wen/My_Passport/Raspbian/raspbian-tee/raspbian-tee/optee_examples/socket_test/ta/socket_test_ta.c:440
     33c:	f5ad 5d83 	sub.w	sp, sp, #4192	; 0x1060
     340:	4607      	mov	r7, r0
     342:	b087      	sub	sp, #28
     344:	4614      	mov	r4, r2
/media/wen/My_Passport/Raspbian/raspbian-tee/raspbian-tee/optee_examples/socket_test/ta/socket_test_ta.c:458
     346:	d155      	bne.n	3f4 <socket_send+0xc2>
/media/wen/My_Passport/Raspbian/raspbian-tee/raspbian-tee/optee_examples/socket_test/ta/socket_test_ta.c:471
     348:	6815      	ldr	r5, [r2, #0]
     34a:	ae12      	add	r6, sp, #72	; 0x48
     34c:	f640 020c 	movw	r2, #2060	; 0x80c
     350:	4630      	mov	r0, r6
     352:	4629      	mov	r1, r5
/media/wen/My_Passport/Raspbian/raspbian-tee/raspbian-tee/optee_examples/socket_test/ta/socket_test_ta.c:472
     354:	f60d 0858 	addw	r8, sp, #2136	; 0x858
/media/wen/My_Passport/Raspbian/raspbian-tee/raspbian-tee/optee_examples/socket_test/ta/socket_test_ta.c:471
     358:	f005 fcc8 	bl	5cec <memcpy>
/media/wen/My_Passport/Raspbian/raspbian-tee/raspbian-tee/optee_examples/socket_test/ta/socket_test_ta.c:472
     35c:	4629      	mov	r1, r5
     35e:	f640 020c 	movw	r2, #2060	; 0x80c
     362:	4640      	mov	r0, r8
     364:	f005 fcc2 	bl	5cec <memcpy>
/media/wen/My_Passport/Raspbian/raspbian-tee/raspbian-tee/optee_examples/socket_test/ta/socket_test_ta.c:481
     368:	ad06      	add	r5, sp, #24
/media/wen/My_Passport/Raspbian/raspbian-tee/raspbian-tee/optee_examples/socket_test/ta/socket_test_ta.c:473
     36a:	f50d 5083 	add.w	r0, sp, #4192	; 0x1060
     36e:	2214      	movs	r2, #20
     370:	6921      	ldr	r1, [r4, #16]
/media/wen/My_Passport/Raspbian/raspbian-tee/raspbian-tee/optee_examples/socket_test/ta/socket_test_ta.c:481
     372:	f1a5 0908 	sub.w	r9, r5, #8
/media/wen/My_Passport/Raspbian/raspbian-tee/raspbian-tee/optee_examples/socket_test/ta/socket_test_ta.c:473
     376:	3004      	adds	r0, #4
     378:	f005 fcb8 	bl	5cec <memcpy>
/media/wen/My_Passport/Raspbian/raspbian-tee/raspbian-tee/optee_examples/socket_test/ta/socket_test_ta.c:481
     37c:	4631      	mov	r1, r6
     37e:	f640 020c 	movw	r2, #2060	; 0x80c
     382:	4648      	mov	r0, r9
     384:	f7ff ff68 	bl	258 <hmac_sha1>
/media/wen/My_Passport/Raspbian/raspbian-tee/raspbian-tee/optee_examples/socket_test/ta/socket_test_ta.c:484
     388:	6921      	ldr	r1, [r4, #16]
     38a:	4648      	mov	r0, r9
     38c:	ae0a      	add	r6, sp, #40	; 0x28
     38e:	f7ff ffc3 	bl	318 <string_cmp>
     392:	b128      	cbz	r0, 3a0 <socket_send+0x6e>
/media/wen/My_Passport/Raspbian/raspbian-tee/raspbian-tee/optee_examples/socket_test/ta/socket_test_ta.c:486
     394:	2300      	movs	r3, #0
/media/wen/My_Passport/Raspbian/raspbian-tee/raspbian-tee/optee_examples/socket_test/ta/socket_test_ta.c:502
     396:	60a3      	str	r3, [r4, #8]
/media/wen/My_Passport/Raspbian/raspbian-tee/raspbian-tee/optee_examples/socket_test/ta/socket_test_ta.c:509
     398:	2500      	movs	r5, #0
/media/wen/My_Passport/Raspbian/raspbian-tee/raspbian-tee/optee_examples/socket_test/ta/socket_test_ta.c:507
     39a:	6933      	ldr	r3, [r6, #16]
     39c:	61a3      	str	r3, [r4, #24]
/media/wen/My_Passport/Raspbian/raspbian-tee/raspbian-tee/optee_examples/socket_test/ta/socket_test_ta.c:509
     39e:	e021      	b.n	3e4 <socket_send+0xb2>
/media/wen/My_Passport/Raspbian/raspbian-tee/raspbian-tee/optee_examples/socket_test/ta/socket_test_ta.c:489
     3a0:	683a      	ldr	r2, [r7, #0]
/media/wen/My_Passport/Raspbian/raspbian-tee/raspbian-tee/optee_examples/socket_test/ta/socket_test_ta.c:490
     3a2:	f04f 31ff 	mov.w	r1, #4294967295
/media/wen/My_Passport/Raspbian/raspbian-tee/raspbian-tee/optee_examples/socket_test/ta/socket_test_ta.c:492
     3a6:	f44f 6302 	mov.w	r3, #2080	; 0x820
/media/wen/My_Passport/Raspbian/raspbian-tee/raspbian-tee/optee_examples/socket_test/ta/socket_test_ta.c:494
     3aa:	3d0c      	subs	r5, #12
/media/wen/My_Passport/Raspbian/raspbian-tee/raspbian-tee/optee_examples/socket_test/ta/socket_test_ta.c:492
     3ac:	60f3      	str	r3, [r6, #12]
/media/wen/My_Passport/Raspbian/raspbian-tee/raspbian-tee/optee_examples/socket_test/ta/socket_test_ta.c:494
     3ae:	f240 2351 	movw	r3, #593	; 0x251
/media/wen/My_Passport/Raspbian/raspbian-tee/raspbian-tee/optee_examples/socket_test/ta/socket_test_ta.c:490
     3b2:	6071      	str	r1, [r6, #4]
/media/wen/My_Passport/Raspbian/raspbian-tee/raspbian-tee/optee_examples/socket_test/ta/socket_test_ta.c:491
     3b4:	f8c6 8008 	str.w	r8, [r6, #8]
/media/wen/My_Passport/Raspbian/raspbian-tee/raspbian-tee/optee_examples/socket_test/ta/socket_test_ta.c:494
     3b8:	9501      	str	r5, [sp, #4]
     3ba:	9600      	str	r6, [sp, #0]
/media/wen/My_Passport/Raspbian/raspbian-tee/raspbian-tee/optee_examples/socket_test/ta/socket_test_ta.c:489
     3bc:	920a      	str	r2, [sp, #40]	; 0x28
/media/wen/My_Passport/Raspbian/raspbian-tee/raspbian-tee/optee_examples/socket_test/ta/socket_test_ta.c:494
     3be:	2203      	movs	r2, #3
     3c0:	6878      	ldr	r0, [r7, #4]
     3c2:	f000 fe1e 	bl	1002 <TEE_InvokeTACommand>
/media/wen/My_Passport/Raspbian/raspbian-tee/raspbian-tee/optee_examples/socket_test/ta/socket_test_ta.c:496
     3c6:	4605      	mov	r5, r0
     3c8:	b190      	cbz	r0, 3f0 <socket_send+0xbe>
/media/wen/My_Passport/Raspbian/raspbian-tee/raspbian-tee/optee_examples/socket_test/ta/socket_test_ta.c:498
     3ca:	4b0c      	ldr	r3, [pc, #48]	; (3fc <socket_send+0xca>)
     3cc:	f44f 71f9 	mov.w	r1, #498	; 0x1f2
     3d0:	9001      	str	r0, [sp, #4]
     3d2:	480b      	ldr	r0, [pc, #44]	; (400 <socket_send+0xce>)
     3d4:	447b      	add	r3, pc
     3d6:	9300      	str	r3, [sp, #0]
     3d8:	2301      	movs	r3, #1
     3da:	4478      	add	r0, pc
     3dc:	461a      	mov	r2, r3
     3de:	3054      	adds	r0, #84	; 0x54
     3e0:	f000 f8e4 	bl	5ac <trace_printf>
/media/wen/My_Passport/Raspbian/raspbian-tee/raspbian-tee/optee_examples/socket_test/ta/socket_test_ta.c:510
     3e4:	4628      	mov	r0, r5
     3e6:	f50d 5d83 	add.w	sp, sp, #4192	; 0x1060
     3ea:	b007      	add	sp, #28
     3ec:	e8bd 83f0 	ldmia.w	sp!, {r4, r5, r6, r7, r8, r9, pc}
/media/wen/My_Passport/Raspbian/raspbian-tee/raspbian-tee/optee_examples/socket_test/ta/socket_test_ta.c:502
     3f0:	2301      	movs	r3, #1
     3f2:	e7d0      	b.n	396 <socket_send+0x64>
/media/wen/My_Passport/Raspbian/raspbian-tee/raspbian-tee/optee_examples/socket_test/ta/socket_test_ta.c:459
     3f4:	4d00      	ldr	r5, [pc, #0]	; (3f8 <socket_send+0xc6>)
     3f6:	e7f5      	b.n	3e4 <socket_send+0xb2>
     3f8:	ffff0006 	.word	0xffff0006
     3fc:	00005ed8 	.word	0x00005ed8
     400:	00005b8a 	.word	0x00005b8a

00000404 <TA_CreateEntryPoint>:
TA_CreateEntryPoint():
/media/wen/My_Passport/Raspbian/raspbian-tee/raspbian-tee/optee_examples/socket_test/ta/socket_test_ta.c:301
     404:	2000      	movs	r0, #0
     406:	4770      	bx	lr

00000408 <TA_DestroyEntryPoint>:
TA_DestroyEntryPoint():
/media/wen/My_Passport/Raspbian/raspbian-tee/raspbian-tee/optee_examples/socket_test/ta/socket_test_ta.c:304
     408:	4770      	bx	lr

0000040a <TA_OpenSessionEntryPoint>:
TA_OpenSessionEntryPoint():
/media/wen/My_Passport/Raspbian/raspbian-tee/raspbian-tee/optee_examples/socket_test/ta/socket_test_ta.c:311
     40a:	b538      	push	{r3, r4, r5, lr}
     40c:	4615      	mov	r5, r2
/media/wen/My_Passport/Raspbian/raspbian-tee/raspbian-tee/optee_examples/socket_test/ta/socket_test_ta.c:316
     40e:	4604      	mov	r4, r0
     410:	b940      	cbnz	r0, 424 <TA_OpenSessionEntryPoint+0x1a>
/media/wen/My_Passport/Raspbian/raspbian-tee/raspbian-tee/optee_examples/socket_test/ta/socket_test_ta.c:324
     412:	4601      	mov	r1, r0
     414:	2004      	movs	r0, #4
     416:	f000 fec0 	bl	119a <TEE_Malloc>
/media/wen/My_Passport/Raspbian/raspbian-tee/raspbian-tee/optee_examples/socket_test/ta/socket_test_ta.c:325
     41a:	b128      	cbz	r0, 428 <TA_OpenSessionEntryPoint+0x1e>
/media/wen/My_Passport/Raspbian/raspbian-tee/raspbian-tee/optee_examples/socket_test/ta/socket_test_ta.c:328
     41c:	6004      	str	r4, [r0, #0]
/media/wen/My_Passport/Raspbian/raspbian-tee/raspbian-tee/optee_examples/socket_test/ta/socket_test_ta.c:329
     41e:	6028      	str	r0, [r5, #0]
/media/wen/My_Passport/Raspbian/raspbian-tee/raspbian-tee/optee_examples/socket_test/ta/socket_test_ta.c:332
     420:	4620      	mov	r0, r4
     422:	bd38      	pop	{r3, r4, r5, pc}
/media/wen/My_Passport/Raspbian/raspbian-tee/raspbian-tee/optee_examples/socket_test/ta/socket_test_ta.c:317
     424:	4801      	ldr	r0, [pc, #4]	; (42c <TA_OpenSessionEntryPoint+0x22>)
     426:	bd38      	pop	{r3, r4, r5, pc}
/media/wen/My_Passport/Raspbian/raspbian-tee/raspbian-tee/optee_examples/socket_test/ta/socket_test_ta.c:326
     428:	4801      	ldr	r0, [pc, #4]	; (430 <TA_OpenSessionEntryPoint+0x26>)
/media/wen/My_Passport/Raspbian/raspbian-tee/raspbian-tee/optee_examples/socket_test/ta/socket_test_ta.c:333
     42a:	bd38      	pop	{r3, r4, r5, pc}
     42c:	ffff0006 	.word	0xffff0006
     430:	ffff000c 	.word	0xffff000c

00000434 <TA_CloseSessionEntryPoint>:
TA_CloseSessionEntryPoint():
/media/wen/My_Passport/Raspbian/raspbian-tee/raspbian-tee/optee_examples/socket_test/ta/socket_test_ta.c:338
     434:	f000 bed8 	b.w	11e8 <TEE_Free>

00000438 <TA_InvokeCommandEntryPoint>:
TA_InvokeCommandEntryPoint():
/media/wen/My_Passport/Raspbian/raspbian-tee/raspbian-tee/optee_examples/socket_test/ta/socket_test_ta.c:596
     438:	b5f0      	push	{r4, r5, r6, r7, lr}
     43a:	4605      	mov	r5, r0
     43c:	4617      	mov	r7, r2
     43e:	b08d      	sub	sp, #52	; 0x34
     440:	461e      	mov	r6, r3
/media/wen/My_Passport/Raspbian/raspbian-tee/raspbian-tee/optee_examples/socket_test/ta/socket_test_ta.c:598
     442:	2904      	cmp	r1, #4
     444:	f200 808b 	bhi.w	55e <TA_InvokeCommandEntryPoint+0x126>
     448:	e8df f001 	tbb	[pc, r1]
     44c:	4c462f03 	.word	0x4c462f03
     450:	71          	.byte	0x71
     451:	00          	.byte	0x00
socket_open():
/media/wen/My_Passport/Raspbian/raspbian-tee/raspbian-tee/optee_examples/socket_test/ta/socket_test_ta.c:355
     452:	2f51      	cmp	r7, #81	; 0x51
     454:	f040 8081 	bne.w	55a <TA_InvokeCommandEntryPoint+0x122>
/media/wen/My_Passport/Raspbian/raspbian-tee/raspbian-tee/optee_examples/socket_test/ta/socket_test_ta.c:358
     458:	1d03      	adds	r3, r0, #4
     45a:	4844      	ldr	r0, [pc, #272]	; (56c <TA_InvokeCommandEntryPoint+0x134>)
     45c:	9300      	str	r3, [sp, #0]
     45e:	af03      	add	r7, sp, #12
     460:	2300      	movs	r3, #0
     462:	9701      	str	r7, [sp, #4]
     464:	461a      	mov	r2, r3
     466:	f04f 31ff 	mov.w	r1, #4294967295
     46a:	4478      	add	r0, pc
     46c:	f000 fd9d 	bl	faa <TEE_OpenTASession>
/media/wen/My_Passport/Raspbian/raspbian-tee/raspbian-tee/optee_examples/socket_test/ta/socket_test_ta.c:361
     470:	4604      	mov	r4, r0
     472:	b9b8      	cbnz	r0, 4a4 <TA_InvokeCommandEntryPoint+0x6c>
/media/wen/My_Passport/Raspbian/raspbian-tee/raspbian-tee/optee_examples/socket_test/ta/socket_test_ta.c:372
     474:	6833      	ldr	r3, [r6, #0]
/media/wen/My_Passport/Raspbian/raspbian-tee/raspbian-tee/optee_examples/socket_test/ta/socket_test_ta.c:371
     476:	2201      	movs	r2, #1
/media/wen/My_Passport/Raspbian/raspbian-tee/raspbian-tee/optee_examples/socket_test/ta/socket_test_ta.c:382
     478:	9701      	str	r7, [sp, #4]
     47a:	f04f 31ff 	mov.w	r1, #4294967295
/media/wen/My_Passport/Raspbian/raspbian-tee/raspbian-tee/optee_examples/socket_test/ta/socket_test_ta.c:372
     47e:	9305      	str	r3, [sp, #20]
/media/wen/My_Passport/Raspbian/raspbian-tee/raspbian-tee/optee_examples/socket_test/ta/socket_test_ta.c:373
     480:	68b3      	ldr	r3, [r6, #8]
/media/wen/My_Passport/Raspbian/raspbian-tee/raspbian-tee/optee_examples/socket_test/ta/socket_test_ta.c:382
     482:	6868      	ldr	r0, [r5, #4]
/media/wen/My_Passport/Raspbian/raspbian-tee/raspbian-tee/optee_examples/socket_test/ta/socket_test_ta.c:373
     484:	9306      	str	r3, [sp, #24]
/media/wen/My_Passport/Raspbian/raspbian-tee/raspbian-tee/optee_examples/socket_test/ta/socket_test_ta.c:374
     486:	68f3      	ldr	r3, [r6, #12]
/media/wen/My_Passport/Raspbian/raspbian-tee/raspbian-tee/optee_examples/socket_test/ta/socket_test_ta.c:371
     488:	9204      	str	r2, [sp, #16]
/media/wen/My_Passport/Raspbian/raspbian-tee/raspbian-tee/optee_examples/socket_test/ta/socket_test_ta.c:374
     48a:	9307      	str	r3, [sp, #28]
/media/wen/My_Passport/Raspbian/raspbian-tee/raspbian-tee/optee_examples/socket_test/ta/socket_test_ta.c:375
     48c:	2365      	movs	r3, #101	; 0x65
     48e:	9308      	str	r3, [sp, #32]
/media/wen/My_Passport/Raspbian/raspbian-tee/raspbian-tee/optee_examples/socket_test/ta/socket_test_ta.c:382
     490:	ab04      	add	r3, sp, #16
     492:	9300      	str	r3, [sp, #0]
     494:	f242 1351 	movw	r3, #8529	; 0x2151
     498:	f000 fdb3 	bl	1002 <TEE_InvokeTACommand>
/media/wen/My_Passport/Raspbian/raspbian-tee/raspbian-tee/optee_examples/socket_test/ta/socket_test_ta.c:386
     49c:	4604      	mov	r4, r0
     49e:	b908      	cbnz	r0, 4a4 <TA_InvokeCommandEntryPoint+0x6c>
/media/wen/My_Passport/Raspbian/raspbian-tee/raspbian-tee/optee_examples/socket_test/ta/socket_test_ta.c:389
     4a0:	9b0a      	ldr	r3, [sp, #40]	; 0x28
     4a2:	602b      	str	r3, [r5, #0]
TA_InvokeCommandEntryPoint():
/media/wen/My_Passport/Raspbian/raspbian-tee/raspbian-tee/optee_examples/socket_test/ta/socket_test_ta.c:613
     4a4:	4620      	mov	r0, r4
     4a6:	b00d      	add	sp, #52	; 0x34
     4a8:	bdf0      	pop	{r4, r5, r6, r7, pc}
socket_close():
/media/wen/My_Passport/Raspbian/raspbian-tee/raspbian-tee/optee_examples/socket_test/ta/socket_test_ta.c:410
     4aa:	2f00      	cmp	r7, #0
     4ac:	d155      	bne.n	55a <TA_InvokeCommandEntryPoint+0x122>
/media/wen/My_Passport/Raspbian/raspbian-tee/raspbian-tee/optee_examples/socket_test/ta/socket_test_ta.c:421
     4ae:	6803      	ldr	r3, [r0, #0]
/media/wen/My_Passport/Raspbian/raspbian-tee/raspbian-tee/optee_examples/socket_test/ta/socket_test_ta.c:425
     4b0:	2202      	movs	r2, #2
     4b2:	f04f 31ff 	mov.w	r1, #4294967295
/media/wen/My_Passport/Raspbian/raspbian-tee/raspbian-tee/optee_examples/socket_test/ta/socket_test_ta.c:421
     4b6:	9304      	str	r3, [sp, #16]
/media/wen/My_Passport/Raspbian/raspbian-tee/raspbian-tee/optee_examples/socket_test/ta/socket_test_ta.c:425
     4b8:	ab03      	add	r3, sp, #12
     4ba:	9301      	str	r3, [sp, #4]
     4bc:	ab04      	add	r3, sp, #16
     4be:	9300      	str	r3, [sp, #0]
     4c0:	2301      	movs	r3, #1
     4c2:	6840      	ldr	r0, [r0, #4]
     4c4:	f000 fd9d 	bl	1002 <TEE_InvokeTACommand>
/media/wen/My_Passport/Raspbian/raspbian-tee/raspbian-tee/optee_examples/socket_test/ta/socket_test_ta.c:429
     4c8:	4604      	mov	r4, r0
     4ca:	2800      	cmp	r0, #0
     4cc:	d1ea      	bne.n	4a4 <TA_InvokeCommandEntryPoint+0x6c>
/media/wen/My_Passport/Raspbian/raspbian-tee/raspbian-tee/optee_examples/socket_test/ta/socket_test_ta.c:432
     4ce:	6868      	ldr	r0, [r5, #4]
     4d0:	f000 fd8d 	bl	fee <TEE_CloseTASession>
/media/wen/My_Passport/Raspbian/raspbian-tee/raspbian-tee/optee_examples/socket_test/ta/socket_test_ta.c:433
     4d4:	602f      	str	r7, [r5, #0]
     4d6:	e7e5      	b.n	4a4 <TA_InvokeCommandEntryPoint+0x6c>
TA_InvokeCommandEntryPoint():
/media/wen/My_Passport/Raspbian/raspbian-tee/raspbian-tee/optee_examples/socket_test/ta/socket_test_ta.c:604
     4d8:	4632      	mov	r2, r6
     4da:	4639      	mov	r1, r7
     4dc:	f7ff ff29 	bl	332 <socket_send>
socket_ioctl():
/media/wen/My_Passport/Raspbian/raspbian-tee/raspbian-tee/optee_examples/socket_test/ta/socket_test_ta.c:583
     4e0:	4604      	mov	r4, r0
     4e2:	e7df      	b.n	4a4 <TA_InvokeCommandEntryPoint+0x6c>
socket_recv():
/media/wen/My_Passport/Raspbian/raspbian-tee/raspbian-tee/optee_examples/socket_test/ta/socket_test_ta.c:526
     4e4:	2f06      	cmp	r7, #6
     4e6:	d138      	bne.n	55a <TA_InvokeCommandEntryPoint+0x122>
/media/wen/My_Passport/Raspbian/raspbian-tee/raspbian-tee/optee_examples/socket_test/ta/socket_test_ta.c:535
     4e8:	6803      	ldr	r3, [r0, #0]
/media/wen/My_Passport/Raspbian/raspbian-tee/raspbian-tee/optee_examples/socket_test/ta/socket_test_ta.c:536
     4ea:	f04f 31ff 	mov.w	r1, #4294967295
/media/wen/My_Passport/Raspbian/raspbian-tee/raspbian-tee/optee_examples/socket_test/ta/socket_test_ta.c:540
     4ee:	2204      	movs	r2, #4
/media/wen/My_Passport/Raspbian/raspbian-tee/raspbian-tee/optee_examples/socket_test/ta/socket_test_ta.c:536
     4f0:	9105      	str	r1, [sp, #20]
/media/wen/My_Passport/Raspbian/raspbian-tee/raspbian-tee/optee_examples/socket_test/ta/socket_test_ta.c:535
     4f2:	9304      	str	r3, [sp, #16]
/media/wen/My_Passport/Raspbian/raspbian-tee/raspbian-tee/optee_examples/socket_test/ta/socket_test_ta.c:537
     4f4:	6833      	ldr	r3, [r6, #0]
     4f6:	9306      	str	r3, [sp, #24]
/media/wen/My_Passport/Raspbian/raspbian-tee/raspbian-tee/optee_examples/socket_test/ta/socket_test_ta.c:538
     4f8:	6873      	ldr	r3, [r6, #4]
     4fa:	9307      	str	r3, [sp, #28]
/media/wen/My_Passport/Raspbian/raspbian-tee/raspbian-tee/optee_examples/socket_test/ta/socket_test_ta.c:540
     4fc:	ab03      	add	r3, sp, #12
     4fe:	9301      	str	r3, [sp, #4]
     500:	ab04      	add	r3, sp, #16
     502:	9300      	str	r3, [sp, #0]
     504:	2361      	movs	r3, #97	; 0x61
     506:	6840      	ldr	r0, [r0, #4]
     508:	f000 fd7b 	bl	1002 <TEE_InvokeTACommand>
/media/wen/My_Passport/Raspbian/raspbian-tee/raspbian-tee/optee_examples/socket_test/ta/socket_test_ta.c:545
     50c:	4604      	mov	r4, r0
     50e:	2800      	cmp	r0, #0
     510:	d0c8      	beq.n	4a4 <TA_InvokeCommandEntryPoint+0x6c>
/media/wen/My_Passport/Raspbian/raspbian-tee/raspbian-tee/optee_examples/socket_test/ta/socket_test_ta.c:547
     512:	4b17      	ldr	r3, [pc, #92]	; (570 <TA_InvokeCommandEntryPoint+0x138>)
     514:	f240 2123 	movw	r1, #547	; 0x223
     518:	9001      	str	r0, [sp, #4]
     51a:	4816      	ldr	r0, [pc, #88]	; (574 <TA_InvokeCommandEntryPoint+0x13c>)
     51c:	447b      	add	r3, pc
     51e:	9300      	str	r3, [sp, #0]
     520:	2301      	movs	r3, #1
     522:	4478      	add	r0, pc
     524:	461a      	mov	r2, r3
     526:	3060      	adds	r0, #96	; 0x60
     528:	f000 f840 	bl	5ac <trace_printf>
     52c:	e7ba      	b.n	4a4 <TA_InvokeCommandEntryPoint+0x6c>
socket_ioctl():
/media/wen/My_Passport/Raspbian/raspbian-tee/raspbian-tee/optee_examples/socket_test/ta/socket_test_ta.c:568
     52e:	2f71      	cmp	r7, #113	; 0x71
     530:	d113      	bne.n	55a <TA_InvokeCommandEntryPoint+0x122>
/media/wen/My_Passport/Raspbian/raspbian-tee/raspbian-tee/optee_examples/socket_test/ta/socket_test_ta.c:578
     532:	6803      	ldr	r3, [r0, #0]
/media/wen/My_Passport/Raspbian/raspbian-tee/raspbian-tee/optee_examples/socket_test/ta/socket_test_ta.c:583
     534:	2205      	movs	r2, #5
     536:	f04f 31ff 	mov.w	r1, #4294967295
/media/wen/My_Passport/Raspbian/raspbian-tee/raspbian-tee/optee_examples/socket_test/ta/socket_test_ta.c:578
     53a:	9304      	str	r3, [sp, #16]
/media/wen/My_Passport/Raspbian/raspbian-tee/raspbian-tee/optee_examples/socket_test/ta/socket_test_ta.c:579
     53c:	6833      	ldr	r3, [r6, #0]
     53e:	9305      	str	r3, [sp, #20]
/media/wen/My_Passport/Raspbian/raspbian-tee/raspbian-tee/optee_examples/socket_test/ta/socket_test_ta.c:580
     540:	68b3      	ldr	r3, [r6, #8]
     542:	9306      	str	r3, [sp, #24]
/media/wen/My_Passport/Raspbian/raspbian-tee/raspbian-tee/optee_examples/socket_test/ta/socket_test_ta.c:581
     544:	68f3      	ldr	r3, [r6, #12]
     546:	9307      	str	r3, [sp, #28]
/media/wen/My_Passport/Raspbian/raspbian-tee/raspbian-tee/optee_examples/socket_test/ta/socket_test_ta.c:583
     548:	ab03      	add	r3, sp, #12
     54a:	9301      	str	r3, [sp, #4]
     54c:	ab04      	add	r3, sp, #16
     54e:	9300      	str	r3, [sp, #0]
     550:	463b      	mov	r3, r7
     552:	6840      	ldr	r0, [r0, #4]
     554:	f000 fd55 	bl	1002 <TEE_InvokeTACommand>
     558:	e7c2      	b.n	4e0 <TA_InvokeCommandEntryPoint+0xa8>
/media/wen/My_Passport/Raspbian/raspbian-tee/raspbian-tee/optee_examples/socket_test/ta/socket_test_ta.c:569
     55a:	4c02      	ldr	r4, [pc, #8]	; (564 <TA_InvokeCommandEntryPoint+0x12c>)
TA_InvokeCommandEntryPoint():
/media/wen/My_Passport/Raspbian/raspbian-tee/raspbian-tee/optee_examples/socket_test/ta/socket_test_ta.c:608
     55c:	e7a2      	b.n	4a4 <TA_InvokeCommandEntryPoint+0x6c>
/media/wen/My_Passport/Raspbian/raspbian-tee/raspbian-tee/optee_examples/socket_test/ta/socket_test_ta.c:611
     55e:	4c02      	ldr	r4, [pc, #8]	; (568 <TA_InvokeCommandEntryPoint+0x130>)
     560:	e7a0      	b.n	4a4 <TA_InvokeCommandEntryPoint+0x6c>
     562:	bf00      	nop
     564:	ffff0006 	.word	0xffff0006
     568:	ffff000a 	.word	0xffff000a
     56c:	00007b92 	.word	0x00007b92
     570:	00005dac 	.word	0x00005dac
     574:	00005a42 	.word	0x00005a42

00000578 <trace_set_level>:
trace_set_level():
/media/wen/My_Passport/Raspbian/raspbian-tee/raspbian-tee/optee_os/lib/libutils/ext/trace.c:25
     578:	4b05      	ldr	r3, [pc, #20]	; (590 <trace_set_level+0x18>)
/media/wen/My_Passport/Raspbian/raspbian-tee/raspbian-tee/optee_os/lib/libutils/ext/trace.c:26
     57a:	2804      	cmp	r0, #4
     57c:	4a05      	ldr	r2, [pc, #20]	; (594 <trace_set_level+0x1c>)
/media/wen/My_Passport/Raspbian/raspbian-tee/raspbian-tee/optee_os/lib/libutils/ext/trace.c:25
     57e:	447b      	add	r3, pc
     580:	589b      	ldr	r3, [r3, r2]
/media/wen/My_Passport/Raspbian/raspbian-tee/raspbian-tee/optee_os/lib/libutils/ext/trace.c:26
     582:	d801      	bhi.n	588 <trace_set_level+0x10>
/media/wen/My_Passport/Raspbian/raspbian-tee/raspbian-tee/optee_os/lib/libutils/ext/trace.c:27
     584:	6018      	str	r0, [r3, #0]
     586:	4770      	bx	lr
/media/wen/My_Passport/Raspbian/raspbian-tee/raspbian-tee/optee_os/lib/libutils/ext/trace.c:29
     588:	2204      	movs	r2, #4
     58a:	601a      	str	r2, [r3, #0]
     58c:	4770      	bx	lr
     58e:	bf00      	nop
     590:	00006fce 	.word	0x00006fce
     594:	00000010 	.word	0x00000010

00000598 <trace_get_level>:
trace_get_level():
/media/wen/My_Passport/Raspbian/raspbian-tee/raspbian-tee/optee_os/lib/libutils/ext/trace.c:33
     598:	4b02      	ldr	r3, [pc, #8]	; (5a4 <trace_get_level+0xc>)
/media/wen/My_Passport/Raspbian/raspbian-tee/raspbian-tee/optee_os/lib/libutils/ext/trace.c:34
     59a:	4a03      	ldr	r2, [pc, #12]	; (5a8 <trace_get_level+0x10>)
/media/wen/My_Passport/Raspbian/raspbian-tee/raspbian-tee/optee_os/lib/libutils/ext/trace.c:33
     59c:	447b      	add	r3, pc
/media/wen/My_Passport/Raspbian/raspbian-tee/raspbian-tee/optee_os/lib/libutils/ext/trace.c:34
     59e:	589b      	ldr	r3, [r3, r2]
/media/wen/My_Passport/Raspbian/raspbian-tee/raspbian-tee/optee_os/lib/libutils/ext/trace.c:35
     5a0:	6818      	ldr	r0, [r3, #0]
     5a2:	4770      	bx	lr
     5a4:	00006fb0 	.word	0x00006fb0
     5a8:	00000010 	.word	0x00000010

000005ac <trace_printf>:
trace_printf():
/media/wen/My_Passport/Raspbian/raspbian-tee/raspbian-tee/optee_os/lib/libutils/ext/trace.c:97
     5ac:	e92d 47f0 	stmdb	sp!, {r4, r5, r6, r7, r8, r9, sl, lr}
     5b0:	4607      	mov	r7, r0
     5b2:	f8df 9110 	ldr.w	r9, [pc, #272]	; 6c4 <trace_printf+0x118>
     5b6:	b0c6      	sub	sp, #280	; 0x118
     5b8:	4688      	mov	r8, r1
     5ba:	44f9      	add	r9, pc
     5bc:	4614      	mov	r4, r2
/media/wen/My_Passport/Raspbian/raspbian-tee/raspbian-tee/optee_os/lib/libutils/ext/trace.c:103
     5be:	469a      	mov	sl, r3
     5c0:	2b00      	cmp	r3, #0
     5c2:	d06b      	beq.n	69c <trace_printf+0xf0>
/media/wen/My_Passport/Raspbian/raspbian-tee/raspbian-tee/optee_os/lib/libutils/ext/trace.c:103 (discriminator 1)
     5c4:	4b40      	ldr	r3, [pc, #256]	; (6c8 <trace_printf+0x11c>)
     5c6:	f859 3003 	ldr.w	r3, [r9, r3]
     5ca:	681b      	ldr	r3, [r3, #0]
     5cc:	4293      	cmp	r3, r2
     5ce:	db62      	blt.n	696 <trace_printf+0xea>
trace_level_to_string():
/media/wen/My_Passport/Raspbian/raspbian-tee/raspbian-tee/optee_os/lib/libutils/ext/trace.c:52
     5d0:	4613      	mov	r3, r2
     5d2:	2a04      	cmp	r2, #4
/media/wen/My_Passport/Raspbian/raspbian-tee/raspbian-tee/optee_os/lib/libutils/ext/trace.c:55
     5d4:	4a3d      	ldr	r2, [pc, #244]	; (6cc <trace_printf+0x120>)
/media/wen/My_Passport/Raspbian/raspbian-tee/raspbian-tee/optee_os/lib/libutils/ext/trace.c:52
     5d6:	bf88      	it	hi
     5d8:	2300      	movhi	r3, #0
/media/wen/My_Passport/Raspbian/raspbian-tee/raspbian-tee/optee_os/lib/libutils/ext/trace.c:55
     5da:	447a      	add	r2, pc
     5dc:	5cd3      	ldrb	r3, [r2, r3]
trace_printf():
/media/wen/My_Passport/Raspbian/raspbian-tee/raspbian-tee/optee_os/lib/libutils/ext/trace.c:107
     5de:	4a3c      	ldr	r2, [pc, #240]	; (6d0 <trace_printf+0x124>)
     5e0:	ad06      	add	r5, sp, #24
     5e2:	f44f 7180 	mov.w	r1, #256	; 0x100
     5e6:	4628      	mov	r0, r5
     5e8:	447a      	add	r2, pc
     5ea:	f000 fc22 	bl	e32 <snprintk>
/media/wen/My_Passport/Raspbian/raspbian-tee/raspbian-tee/optee_os/lib/libutils/ext/trace.c:109
     5ee:	1e06      	subs	r6, r0, #0
     5f0:	db51      	blt.n	696 <trace_printf+0xea>
/media/wen/My_Passport/Raspbian/raspbian-tee/raspbian-tee/optee_os/lib/libutils/ext/trace.c:114
     5f2:	4b38      	ldr	r3, [pc, #224]	; (6d4 <trace_printf+0x128>)
     5f4:	f5c6 7180 	rsb	r1, r6, #256	; 0x100
     5f8:	4a37      	ldr	r2, [pc, #220]	; (6d8 <trace_printf+0x12c>)
     5fa:	19a8      	adds	r0, r5, r6
     5fc:	447a      	add	r2, pc
     5fe:	f859 3003 	ldr.w	r3, [r9, r3]
     602:	9303      	str	r3, [sp, #12]
     604:	f000 fc15 	bl	e32 <snprintk>
/media/wen/My_Passport/Raspbian/raspbian-tee/raspbian-tee/optee_os/lib/libutils/ext/trace.c:116
     608:	2800      	cmp	r0, #0
     60a:	db44      	blt.n	696 <trace_printf+0xea>
/media/wen/My_Passport/Raspbian/raspbian-tee/raspbian-tee/optee_os/lib/libutils/ext/trace.c:118
     60c:	4406      	add	r6, r0
/media/wen/My_Passport/Raspbian/raspbian-tee/raspbian-tee/optee_os/lib/libutils/ext/trace.c:120
     60e:	f1ba 0f00 	cmp.w	sl, #0
     612:	d04c      	beq.n	6ae <trace_printf+0x102>
/media/wen/My_Passport/Raspbian/raspbian-tee/raspbian-tee/optee_os/lib/libutils/ext/trace.c:120 (discriminator 1)
     614:	231a      	movs	r3, #26
     616:	fa23 f404 	lsr.w	r4, r3, r4
     61a:	07e3      	lsls	r3, r4, #31
     61c:	d547      	bpl.n	6ae <trace_printf+0x102>
print_thread_id():
/media/wen/My_Passport/Raspbian/raspbian-tee/raspbian-tee/optee_os/lib/libutils/ext/trace.c:65
     61e:	f000 fc37 	bl	e90 <trace_ext_get_thread_id>
/media/wen/My_Passport/Raspbian/raspbian-tee/raspbian-tee/optee_os/lib/libutils/ext/trace.c:67
     622:	2800      	cmp	r0, #0
trace_printf():
/media/wen/My_Passport/Raspbian/raspbian-tee/raspbian-tee/optee_os/lib/libutils/ext/trace.c:122
     624:	eb05 0406 	add.w	r4, r5, r6
     628:	f5c6 7980 	rsb	r9, r6, #256	; 0x100
print_thread_id():
/media/wen/My_Passport/Raspbian/raspbian-tee/raspbian-tee/optee_os/lib/libutils/ext/trace.c:67
     62c:	db38      	blt.n	6a0 <trace_printf+0xf4>
/media/wen/My_Passport/Raspbian/raspbian-tee/raspbian-tee/optee_os/lib/libutils/ext/trace.c:68
     62e:	4a2b      	ldr	r2, [pc, #172]	; (6dc <trace_printf+0x130>)
     630:	2301      	movs	r3, #1
     632:	9000      	str	r0, [sp, #0]
     634:	447a      	add	r2, pc
/media/wen/My_Passport/Raspbian/raspbian-tee/raspbian-tee/optee_os/lib/libutils/ext/trace.c:70
     636:	4649      	mov	r1, r9
     638:	4620      	mov	r0, r4
     63a:	f000 fbfa 	bl	e32 <snprintk>
trace_printf():
/media/wen/My_Passport/Raspbian/raspbian-tee/raspbian-tee/optee_os/lib/libutils/ext/trace.c:129
     63e:	2800      	cmp	r0, #0
     640:	db29      	blt.n	696 <trace_printf+0xea>
/media/wen/My_Passport/Raspbian/raspbian-tee/raspbian-tee/optee_os/lib/libutils/ext/trace.c:131
     642:	1984      	adds	r4, r0, r6
/media/wen/My_Passport/Raspbian/raspbian-tee/raspbian-tee/optee_os/lib/libutils/ext/trace.c:133
     644:	b167      	cbz	r7, 660 <trace_printf+0xb4>
/media/wen/My_Passport/Raspbian/raspbian-tee/raspbian-tee/optee_os/lib/libutils/ext/trace.c:134
     646:	4a26      	ldr	r2, [pc, #152]	; (6e0 <trace_printf+0x134>)
     648:	463b      	mov	r3, r7
     64a:	f8cd 8000 	str.w	r8, [sp]
     64e:	f5c4 7180 	rsb	r1, r4, #256	; 0x100
     652:	447a      	add	r2, pc
     654:	1928      	adds	r0, r5, r4
     656:	f000 fbec 	bl	e32 <snprintk>
/media/wen/My_Passport/Raspbian/raspbian-tee/raspbian-tee/optee_os/lib/libutils/ext/trace.c:136
     65a:	2800      	cmp	r0, #0
     65c:	db1b      	blt.n	696 <trace_printf+0xea>
/media/wen/My_Passport/Raspbian/raspbian-tee/raspbian-tee/optee_os/lib/libutils/ext/trace.c:138
     65e:	4404      	add	r4, r0
/media/wen/My_Passport/Raspbian/raspbian-tee/raspbian-tee/optee_os/lib/libutils/ext/trace.c:148
     660:	ab4f      	add	r3, sp, #316	; 0x13c
/media/wen/My_Passport/Raspbian/raspbian-tee/raspbian-tee/optee_os/lib/libutils/ext/trace.c:149
     662:	f5c4 7180 	rsb	r1, r4, #256	; 0x100
     666:	1928      	adds	r0, r5, r4
     668:	9a4e      	ldr	r2, [sp, #312]	; 0x138
/media/wen/My_Passport/Raspbian/raspbian-tee/raspbian-tee/optee_os/lib/libutils/ext/trace.c:148
     66a:	9305      	str	r3, [sp, #20]
/media/wen/My_Passport/Raspbian/raspbian-tee/raspbian-tee/optee_os/lib/libutils/ext/trace.c:149
     66c:	f000 fbda 	bl	e24 <vsnprintk>
/media/wen/My_Passport/Raspbian/raspbian-tee/raspbian-tee/optee_os/lib/libutils/ext/trace.c:151
     670:	2800      	cmp	r0, #0
/media/wen/My_Passport/Raspbian/raspbian-tee/raspbian-tee/optee_os/lib/libutils/ext/trace.c:157
     672:	f04f 030a 	mov.w	r3, #10
/media/wen/My_Passport/Raspbian/raspbian-tee/raspbian-tee/optee_os/lib/libutils/ext/trace.c:152
     676:	bfc8      	it	gt
     678:	1824      	addgt	r4, r4, r0
     67a:	2cfe      	cmp	r4, #254	; 0xfe
     67c:	bf28      	it	cs
     67e:	24fe      	movcs	r4, #254	; 0xfe
/media/wen/My_Passport/Raspbian/raspbian-tee/raspbian-tee/optee_os/lib/libutils/ext/trace.c:157
     680:	552b      	strb	r3, [r5, r4]
/media/wen/My_Passport/Raspbian/raspbian-tee/raspbian-tee/optee_os/lib/libutils/ext/trace.c:158
     682:	b114      	cbz	r4, 68a <trace_printf+0xde>
/media/wen/My_Passport/Raspbian/raspbian-tee/raspbian-tee/optee_os/lib/libutils/ext/trace.c:158 (discriminator 1)
     684:	5d2b      	ldrb	r3, [r5, r4]
     686:	2b0a      	cmp	r3, #10
     688:	d019      	beq.n	6be <trace_printf+0x112>
/media/wen/My_Passport/Raspbian/raspbian-tee/raspbian-tee/optee_os/lib/libutils/ext/trace.c:161
     68a:	442c      	add	r4, r5
     68c:	2300      	movs	r3, #0
/media/wen/My_Passport/Raspbian/raspbian-tee/raspbian-tee/optee_os/lib/libutils/ext/trace.c:163
     68e:	4628      	mov	r0, r5
/media/wen/My_Passport/Raspbian/raspbian-tee/raspbian-tee/optee_os/lib/libutils/ext/trace.c:161
     690:	70a3      	strb	r3, [r4, #2]
/media/wen/My_Passport/Raspbian/raspbian-tee/raspbian-tee/optee_os/lib/libutils/ext/trace.c:163
     692:	f000 fbf3 	bl	e7c <trace_ext_puts>
/media/wen/My_Passport/Raspbian/raspbian-tee/raspbian-tee/optee_os/lib/libutils/ext/trace.c:164
     696:	b046      	add	sp, #280	; 0x118
     698:	e8bd 87f0 	ldmia.w	sp!, {r4, r5, r6, r7, r8, r9, sl, pc}
trace_level_to_string():
/media/wen/My_Passport/Raspbian/raspbian-tee/raspbian-tee/optee_os/lib/libutils/ext/trace.c:50
     69c:	234d      	movs	r3, #77	; 0x4d
     69e:	e79e      	b.n	5de <trace_printf+0x32>
print_thread_id():
/media/wen/My_Passport/Raspbian/raspbian-tee/raspbian-tee/optee_os/lib/libutils/ext/trace.c:70
     6a0:	4b10      	ldr	r3, [pc, #64]	; (6e4 <trace_printf+0x138>)
     6a2:	4a11      	ldr	r2, [pc, #68]	; (6e8 <trace_printf+0x13c>)
     6a4:	447b      	add	r3, pc
     6a6:	9300      	str	r3, [sp, #0]
     6a8:	447a      	add	r2, pc
     6aa:	2301      	movs	r3, #1
     6ac:	e7c3      	b.n	636 <trace_printf+0x8a>
trace_printf():
/media/wen/My_Passport/Raspbian/raspbian-tee/raspbian-tee/optee_os/lib/libutils/ext/trace.c:142
     6ae:	2efe      	cmp	r6, #254	; 0xfe
     6b0:	d8f1      	bhi.n	696 <trace_printf+0xea>
/media/wen/My_Passport/Raspbian/raspbian-tee/raspbian-tee/optee_os/lib/libutils/ext/trace.c:144
     6b2:	1c74      	adds	r4, r6, #1
     6b4:	2320      	movs	r3, #32
     6b6:	55ab      	strb	r3, [r5, r6]
/media/wen/My_Passport/Raspbian/raspbian-tee/raspbian-tee/optee_os/lib/libutils/ext/trace.c:145
     6b8:	2300      	movs	r3, #0
     6ba:	552b      	strb	r3, [r5, r4]
     6bc:	e7d0      	b.n	660 <trace_printf+0xb4>
/media/wen/My_Passport/Raspbian/raspbian-tee/raspbian-tee/optee_os/lib/libutils/ext/trace.c:159
     6be:	3c01      	subs	r4, #1
     6c0:	e7df      	b.n	682 <trace_printf+0xd6>
     6c2:	bf00      	nop
     6c4:	00006f92 	.word	0x00006f92
     6c8:	00000010 	.word	0x00000010
     6cc:	00005da0 	.word	0x00005da0
     6d0:	00005d97 	.word	0x00005d97
     6d4:	00000014 	.word	0x00000014
     6d8:	00005d87 	.word	0x00005d87
     6dc:	00005d53 	.word	0x00005d53
     6e0:	00005d40 	.word	0x00005d40
     6e4:	000063c1 	.word	0x000063c1
     6e8:	00005ce5 	.word	0x00005ce5

000006ec <dhex_dump>:
dhex_dump():
/media/wen/My_Passport/Raspbian/raspbian-tee/raspbian-tee/optee_os/lib/libutils/ext/trace.c:275
     6ec:	4770      	bx	lr
     6ee:	bf00      	nop

000006f0 <__vsnprintf>:
__vsnprintf():
/media/wen/My_Passport/Raspbian/raspbian-tee/raspbian-tee/optee_os/lib/libutils/ext/snprintk.c:137
     6f0:	e92d 4ff0 	stmdb	sp!, {r4, r5, r6, r7, r8, r9, sl, fp, lr}
     6f4:	461f      	mov	r7, r3
/media/wen/My_Passport/Raspbian/raspbian-tee/raspbian-tee/optee_os/lib/libutils/ext/snprintk.c:141
     6f6:	4680      	mov	r8, r0
/media/wen/My_Passport/Raspbian/raspbian-tee/raspbian-tee/optee_os/lib/libutils/ext/snprintk.c:137
     6f8:	b09f      	sub	sp, #124	; 0x7c
kprintf():
/media/wen/My_Passport/Raspbian/raspbian-tee/raspbian-tee/optee_os/lib/libutils/ext/snprintk.c:269
     6fa:	2300      	movs	r3, #0
__vsnprintf():
/media/wen/My_Passport/Raspbian/raspbian-tee/raspbian-tee/optee_os/lib/libutils/ext/snprintk.c:137
     6fc:	920b      	str	r2, [sp, #44]	; 0x2c
     6fe:	f89d 20a0 	ldrb.w	r2, [sp, #160]	; 0xa0
     702:	9010      	str	r0, [sp, #64]	; 0x40
     704:	9213      	str	r2, [sp, #76]	; 0x4c
/media/wen/My_Passport/Raspbian/raspbian-tee/raspbian-tee/optee_os/lib/libutils/ext/snprintk.c:141
     706:	4602      	mov	r2, r0
     708:	440a      	add	r2, r1
/media/wen/My_Passport/Raspbian/raspbian-tee/raspbian-tee/optee_os/lib/libutils/ext/snprintk.c:137
     70a:	9112      	str	r1, [sp, #72]	; 0x48
/media/wen/My_Passport/Raspbian/raspbian-tee/raspbian-tee/optee_os/lib/libutils/ext/snprintk.c:141
     70c:	920e      	str	r2, [sp, #56]	; 0x38
kprintf():
/media/wen/My_Passport/Raspbian/raspbian-tee/raspbian-tee/optee_os/lib/libutils/ext/snprintk.c:269
     70e:	930f      	str	r3, [sp, #60]	; 0x3c
/media/wen/My_Passport/Raspbian/raspbian-tee/raspbian-tee/optee_os/lib/libutils/ext/snprintk.c:267
     710:	930c      	str	r3, [sp, #48]	; 0x30
/media/wen/My_Passport/Raspbian/raspbian-tee/raspbian-tee/optee_os/lib/libutils/ext/snprintk.c:275
     712:	9b0b      	ldr	r3, [sp, #44]	; 0x2c
     714:	781b      	ldrb	r3, [r3, #0]
     716:	2b25      	cmp	r3, #37	; 0x25
     718:	d024      	beq.n	764 <__vsnprintf+0x74>
     71a:	b993      	cbnz	r3, 742 <__vsnprintf+0x52>
__vsnprintf():
/media/wen/My_Passport/Raspbian/raspbian-tee/raspbian-tee/optee_os/lib/libutils/ext/snprintk.c:143
     71c:	9b10      	ldr	r3, [sp, #64]	; 0x40
     71e:	b163      	cbz	r3, 73a <__vsnprintf+0x4a>
/media/wen/My_Passport/Raspbian/raspbian-tee/raspbian-tee/optee_os/lib/libutils/ext/snprintk.c:143 (discriminator 1)
     720:	9b12      	ldr	r3, [sp, #72]	; 0x48
     722:	b153      	cbz	r3, 73a <__vsnprintf+0x4a>
/media/wen/My_Passport/Raspbian/raspbian-tee/raspbian-tee/optee_os/lib/libutils/ext/snprintk.c:145
     724:	9a0c      	ldr	r2, [sp, #48]	; 0x30
     726:	4293      	cmp	r3, r2
     728:	f04f 0300 	mov.w	r3, #0
/media/wen/My_Passport/Raspbian/raspbian-tee/raspbian-tee/optee_os/lib/libutils/ext/snprintk.c:146
     72c:	9a10      	ldr	r2, [sp, #64]	; 0x40
/media/wen/My_Passport/Raspbian/raspbian-tee/raspbian-tee/optee_os/lib/libutils/ext/snprintk.c:145
     72e:	f200 835f 	bhi.w	df0 <__vsnprintf+0x700>
/media/wen/My_Passport/Raspbian/raspbian-tee/raspbian-tee/optee_os/lib/libutils/ext/snprintk.c:146
     732:	9912      	ldr	r1, [sp, #72]	; 0x48
     734:	440a      	add	r2, r1
     736:	f802 3c01 	strb.w	r3, [r2, #-1]
/media/wen/My_Passport/Raspbian/raspbian-tee/raspbian-tee/optee_os/lib/libutils/ext/snprintk.c:151
     73a:	980c      	ldr	r0, [sp, #48]	; 0x30
     73c:	b01f      	add	sp, #124	; 0x7c
     73e:	e8bd 8ff0 	ldmia.w	sp!, {r4, r5, r6, r7, r8, r9, sl, fp, pc}
kprintf():
/media/wen/My_Passport/Raspbian/raspbian-tee/raspbian-tee/optee_os/lib/libutils/ext/snprintk.c:276
     742:	9a0c      	ldr	r2, [sp, #48]	; 0x30
     744:	3201      	adds	r2, #1
     746:	920c      	str	r2, [sp, #48]	; 0x30
/media/wen/My_Passport/Raspbian/raspbian-tee/raspbian-tee/optee_os/lib/libutils/ext/snprintk.c:277
     748:	f1b8 0f00 	cmp.w	r8, #0
     74c:	d006      	beq.n	75c <__vsnprintf+0x6c>
     74e:	9a0e      	ldr	r2, [sp, #56]	; 0x38
     750:	4542      	cmp	r2, r8
     752:	d903      	bls.n	75c <__vsnprintf+0x6c>
     754:	f888 3000 	strb.w	r3, [r8]
     758:	f108 0801 	add.w	r8, r8, #1
/media/wen/My_Passport/Raspbian/raspbian-tee/raspbian-tee/optee_os/lib/libutils/ext/snprintk.c:275
     75c:	9b0b      	ldr	r3, [sp, #44]	; 0x2c
     75e:	3301      	adds	r3, #1
     760:	930b      	str	r3, [sp, #44]	; 0x2c
     762:	e7d6      	b.n	712 <__vsnprintf+0x22>
/media/wen/My_Passport/Raspbian/raspbian-tee/raspbian-tee/optee_os/lib/libutils/ext/snprintk.c:282
     764:	9b0b      	ldr	r3, [sp, #44]	; 0x2c
/media/wen/My_Passport/Raspbian/raspbian-tee/raspbian-tee/optee_os/lib/libutils/ext/snprintk.c:288
     766:	f04f 0a00 	mov.w	sl, #0
/media/wen/My_Passport/Raspbian/raspbian-tee/raspbian-tee/optee_os/lib/libutils/ext/snprintk.c:282
     76a:	463a      	mov	r2, r7
/media/wen/My_Passport/Raspbian/raspbian-tee/raspbian-tee/optee_os/lib/libutils/ext/snprintk.c:287
     76c:	f04f 3bff 	mov.w	fp, #4294967295
/media/wen/My_Passport/Raspbian/raspbian-tee/raspbian-tee/optee_os/lib/libutils/ext/snprintk.c:282
     770:	3301      	adds	r3, #1
/media/wen/My_Passport/Raspbian/raspbian-tee/raspbian-tee/optee_os/lib/libutils/ext/snprintk.c:284
     772:	4656      	mov	r6, sl
/media/wen/My_Passport/Raspbian/raspbian-tee/raspbian-tee/optee_os/lib/libutils/ext/snprintk.c:286
     774:	f8cd a034 	str.w	sl, [sp, #52]	; 0x34
/media/wen/My_Passport/Raspbian/raspbian-tee/raspbian-tee/optee_os/lib/libutils/ext/snprintk.c:290
     778:	f893 9000 	ldrb.w	r9, [r3]
     77c:	1c59      	adds	r1, r3, #1
     77e:	910b      	str	r1, [sp, #44]	; 0x2c
/media/wen/My_Passport/Raspbian/raspbian-tee/raspbian-tee/optee_os/lib/libutils/ext/snprintk.c:291
     780:	f1b9 0f63 	cmp.w	r9, #99	; 0x63
     784:	f000 8163 	beq.w	a4e <__vsnprintf+0x35e>
     788:	f300 8095 	bgt.w	8b6 <__vsnprintf+0x1c6>
     78c:	f1b9 0f30 	cmp.w	r9, #48	; 0x30
     790:	f000 8147 	beq.w	a22 <__vsnprintf+0x332>
     794:	dc26      	bgt.n	7e4 <__vsnprintf+0xf4>
     796:	f1b9 0f2a 	cmp.w	r9, #42	; 0x2a
     79a:	f000 8119 	beq.w	9d0 <__vsnprintf+0x2e0>
     79e:	dc13      	bgt.n	7c8 <__vsnprintf+0xd8>
     7a0:	f1b9 0f20 	cmp.w	r9, #32
     7a4:	f000 810a 	beq.w	9bc <__vsnprintf+0x2cc>
     7a8:	f1b9 0f23 	cmp.w	r9, #35	; 0x23
     7ac:	f000 810d 	beq.w	9ca <__vsnprintf+0x2da>
/media/wen/My_Passport/Raspbian/raspbian-tee/raspbian-tee/optee_os/lib/libutils/ext/snprintk.c:541
     7b0:	f1b9 0f00 	cmp.w	r9, #0
     7b4:	d0b2      	beq.n	71c <__vsnprintf+0x2c>
/media/wen/My_Passport/Raspbian/raspbian-tee/raspbian-tee/optee_os/lib/libutils/ext/snprintk.c:545
     7b6:	ab1e      	add	r3, sp, #120	; 0x78
     7b8:	4617      	mov	r7, r2
/media/wen/My_Passport/Raspbian/raspbian-tee/raspbian-tee/optee_os/lib/libutils/ext/snprintk.c:546
     7ba:	f04f 0b01 	mov.w	fp, #1
/media/wen/My_Passport/Raspbian/raspbian-tee/raspbian-tee/optee_os/lib/libutils/ext/snprintk.c:545
     7be:	f803 9d28 	strb.w	r9, [r3, #-40]!
     7c2:	e0c0      	b.n	946 <__vsnprintf+0x256>
/media/wen/My_Passport/Raspbian/raspbian-tee/raspbian-tee/optee_os/lib/libutils/ext/snprintk.c:311
     7c4:	461a      	mov	r2, r3
     7c6:	e00b      	b.n	7e0 <__vsnprintf+0xf0>
/media/wen/My_Passport/Raspbian/raspbian-tee/raspbian-tee/optee_os/lib/libutils/ext/snprintk.c:291
     7c8:	f1b9 0f2d 	cmp.w	r9, #45	; 0x2d
     7cc:	f000 8109 	beq.w	9e2 <__vsnprintf+0x2f2>
     7d0:	f1b9 0f2e 	cmp.w	r9, #46	; 0x2e
     7d4:	f000 8108 	beq.w	9e8 <__vsnprintf+0x2f8>
     7d8:	f1b9 0f2b 	cmp.w	r9, #43	; 0x2b
     7dc:	d1e8      	bne.n	7b0 <__vsnprintf+0xc0>
/media/wen/My_Passport/Raspbian/raspbian-tee/raspbian-tee/optee_os/lib/libutils/ext/snprintk.c:319
     7de:	46ca      	mov	sl, r9
/media/wen/My_Passport/Raspbian/raspbian-tee/raspbian-tee/optee_os/lib/libutils/ext/snprintk.c:322
     7e0:	9b0b      	ldr	r3, [sp, #44]	; 0x2c
     7e2:	e7c9      	b.n	778 <__vsnprintf+0x88>
/media/wen/My_Passport/Raspbian/raspbian-tee/raspbian-tee/optee_os/lib/libutils/ext/snprintk.c:291
     7e4:	f1b9 0f44 	cmp.w	r9, #68	; 0x44
     7e8:	f000 818a 	beq.w	b00 <__vsnprintf+0x410>
     7ec:	dc14      	bgt.n	818 <__vsnprintf+0x128>
     7ee:	f1b9 0f39 	cmp.w	r9, #57	; 0x39
     7f2:	dcdd      	bgt.n	7b0 <__vsnprintf+0xc0>
     7f4:	2300      	movs	r3, #0
     7f6:	930d      	str	r3, [sp, #52]	; 0x34
/media/wen/My_Passport/Raspbian/raspbian-tee/raspbian-tee/optee_os/lib/libutils/ext/snprintk.c:346
     7f8:	9b0d      	ldr	r3, [sp, #52]	; 0x34
     7fa:	210a      	movs	r1, #10
     7fc:	f1a9 0930 	sub.w	r9, r9, #48	; 0x30
     800:	fb01 9303 	mla	r3, r1, r3, r9
     804:	930d      	str	r3, [sp, #52]	; 0x34
/media/wen/My_Passport/Raspbian/raspbian-tee/raspbian-tee/optee_os/lib/libutils/ext/snprintk.c:347
     806:	9b0b      	ldr	r3, [sp, #44]	; 0x2c
     808:	f813 9b01 	ldrb.w	r9, [r3], #1
     80c:	930b      	str	r3, [sp, #44]	; 0x2c
/media/wen/My_Passport/Raspbian/raspbian-tee/raspbian-tee/optee_os/lib/libutils/ext/snprintk.c:348
     80e:	f1a9 0330 	sub.w	r3, r9, #48	; 0x30
     812:	2b09      	cmp	r3, #9
     814:	d9f0      	bls.n	7f8 <__vsnprintf+0x108>
     816:	e7b3      	b.n	780 <__vsnprintf+0x90>
/media/wen/My_Passport/Raspbian/raspbian-tee/raspbian-tee/optee_os/lib/libutils/ext/snprintk.c:291
     818:	f1b9 0f55 	cmp.w	r9, #85	; 0x55
     81c:	f000 823d 	beq.w	c9a <__vsnprintf+0x5aa>
     820:	f1b9 0f58 	cmp.w	r9, #88	; 0x58
     824:	f000 80ab 	beq.w	97e <__vsnprintf+0x28e>
     828:	f1b9 0f4f 	cmp.w	r9, #79	; 0x4f
     82c:	d1c0      	bne.n	7b0 <__vsnprintf+0xc0>
/media/wen/My_Passport/Raspbian/raspbian-tee/raspbian-tee/optee_os/lib/libutils/ext/snprintk.c:408
     82e:	f046 0610 	orr.w	r6, r6, #16
/media/wen/My_Passport/Raspbian/raspbian-tee/raspbian-tee/optee_os/lib/libutils/ext/snprintk.c:411
     832:	0635      	lsls	r5, r6, #24
     834:	f140 81c0 	bpl.w	bb8 <__vsnprintf+0x4c8>
     838:	3207      	adds	r2, #7
     83a:	f022 0207 	bic.w	r2, r2, #7
     83e:	f102 0708 	add.w	r7, r2, #8
     842:	e9d2 4500 	ldrd	r4, r5, [r2]
/media/wen/My_Passport/Raspbian/raspbian-tee/raspbian-tee/optee_os/lib/libutils/ext/snprintk.c:488
     846:	f1bb 3fff 	cmp.w	fp, #4294967295
     84a:	f04f 0a00 	mov.w	sl, #0
     84e:	d011      	beq.n	874 <__vsnprintf+0x184>
     850:	4653      	mov	r3, sl
/media/wen/My_Passport/Raspbian/raspbian-tee/raspbian-tee/optee_os/lib/libutils/ext/snprintk.c:497
     852:	ea54 0205 	orrs.w	r2, r4, r5
/media/wen/My_Passport/Raspbian/raspbian-tee/raspbian-tee/optee_os/lib/libutils/ext/snprintk.c:489
     856:	f426 6680 	bic.w	r6, r6, #1024	; 0x400
/media/wen/My_Passport/Raspbian/raspbian-tee/raspbian-tee/optee_os/lib/libutils/ext/snprintk.c:497
     85a:	d105      	bne.n	868 <__vsnprintf+0x178>
     85c:	f1bb 0f00 	cmp.w	fp, #0
     860:	f000 8269 	beq.w	d36 <__vsnprintf+0x646>
     864:	2400      	movs	r4, #0
     866:	2500      	movs	r5, #0
/media/wen/My_Passport/Raspbian/raspbian-tee/raspbian-tee/optee_os/lib/libutils/ext/snprintk.c:503
     868:	2b01      	cmp	r3, #1
     86a:	f000 8161 	beq.w	b30 <__vsnprintf+0x440>
     86e:	2b02      	cmp	r3, #2
     870:	f000 81f8 	beq.w	c64 <__vsnprintf+0x574>
/media/wen/My_Passport/Raspbian/raspbian-tee/raspbian-tee/optee_os/lib/libutils/ext/snprintk.c:488
     874:	f10d 0275 	add.w	r2, sp, #117	; 0x75
/media/wen/My_Passport/Raspbian/raspbian-tee/raspbian-tee/optee_os/lib/libutils/ext/snprintk.c:507
     878:	08e0      	lsrs	r0, r4, #3
     87a:	ea4f 0ed5 	mov.w	lr, r5, lsr #3
/media/wen/My_Passport/Raspbian/raspbian-tee/raspbian-tee/optee_os/lib/libutils/ext/snprintk.c:506
     87e:	f004 0107 	and.w	r1, r4, #7
     882:	1e53      	subs	r3, r2, #1
/media/wen/My_Passport/Raspbian/raspbian-tee/raspbian-tee/optee_os/lib/libutils/ext/snprintk.c:507
     884:	ea40 7045 	orr.w	r0, r0, r5, lsl #29
     888:	4675      	mov	r5, lr
     88a:	4604      	mov	r4, r0
/media/wen/My_Passport/Raspbian/raspbian-tee/raspbian-tee/optee_os/lib/libutils/ext/snprintk.c:506
     88c:	3130      	adds	r1, #48	; 0x30
/media/wen/My_Passport/Raspbian/raspbian-tee/raspbian-tee/optee_os/lib/libutils/ext/snprintk.c:508
     88e:	ea54 0005 	orrs.w	r0, r4, r5
/media/wen/My_Passport/Raspbian/raspbian-tee/raspbian-tee/optee_os/lib/libutils/ext/snprintk.c:506
     892:	f802 1c01 	strb.w	r1, [r2, #-1]
/media/wen/My_Passport/Raspbian/raspbian-tee/raspbian-tee/optee_os/lib/libutils/ext/snprintk.c:508
     896:	f040 8239 	bne.w	d0c <__vsnprintf+0x61c>
/media/wen/My_Passport/Raspbian/raspbian-tee/raspbian-tee/optee_os/lib/libutils/ext/snprintk.c:510
     89a:	07f5      	lsls	r5, r6, #31
     89c:	d505      	bpl.n	8aa <__vsnprintf+0x1ba>
     89e:	2930      	cmp	r1, #48	; 0x30
     8a0:	d003      	beq.n	8aa <__vsnprintf+0x1ba>
/media/wen/My_Passport/Raspbian/raspbian-tee/raspbian-tee/optee_os/lib/libutils/ext/snprintk.c:511
     8a2:	2130      	movs	r1, #48	; 0x30
     8a4:	f803 1c01 	strb.w	r1, [r3, #-1]
     8a8:	1e93      	subs	r3, r2, #2
/media/wen/My_Passport/Raspbian/raspbian-tee/raspbian-tee/optee_os/lib/libutils/ext/snprintk.c:537
     8aa:	f10d 0275 	add.w	r2, sp, #117	; 0x75
     8ae:	4658      	mov	r0, fp
     8b0:	eba2 0b03 	sub.w	fp, r2, r3
     8b4:	e0d5      	b.n	a62 <__vsnprintf+0x372>
/media/wen/My_Passport/Raspbian/raspbian-tee/raspbian-tee/optee_os/lib/libutils/ext/snprintk.c:291
     8b6:	f1b9 0f6f 	cmp.w	r9, #111	; 0x6f
     8ba:	d0ba      	beq.n	832 <__vsnprintf+0x142>
     8bc:	dc1e      	bgt.n	8fc <__vsnprintf+0x20c>
     8be:	f1b9 0f69 	cmp.w	r9, #105	; 0x69
     8c2:	f000 811f 	beq.w	b04 <__vsnprintf+0x414>
     8c6:	dc0a      	bgt.n	8de <__vsnprintf+0x1ee>
     8c8:	f1b9 0f64 	cmp.w	r9, #100	; 0x64
     8cc:	f000 811a 	beq.w	b04 <__vsnprintf+0x414>
     8d0:	f1b9 0f68 	cmp.w	r9, #104	; 0x68
     8d4:	f47f af6c 	bne.w	7b0 <__vsnprintf+0xc0>
/media/wen/My_Passport/Raspbian/raspbian-tee/raspbian-tee/optee_os/lib/libutils/ext/snprintk.c:352
     8d8:	f046 0640 	orr.w	r6, r6, #64	; 0x40
     8dc:	e780      	b.n	7e0 <__vsnprintf+0xf0>
/media/wen/My_Passport/Raspbian/raspbian-tee/raspbian-tee/optee_os/lib/libutils/ext/snprintk.c:291
     8de:	f1b9 0f6c 	cmp.w	r9, #108	; 0x6c
     8e2:	f000 80a1 	beq.w	a28 <__vsnprintf+0x338>
     8e6:	f1b9 0f6e 	cmp.w	r9, #110	; 0x6e
     8ea:	f000 8146 	beq.w	b7a <__vsnprintf+0x48a>
     8ee:	f1b9 0f6a 	cmp.w	r9, #106	; 0x6a
     8f2:	f47f af5d 	bne.w	7b0 <__vsnprintf+0xc0>
/media/wen/My_Passport/Raspbian/raspbian-tee/raspbian-tee/optee_os/lib/libutils/ext/snprintk.c:355
     8f6:	f046 0680 	orr.w	r6, r6, #128	; 0x80
     8fa:	e771      	b.n	7e0 <__vsnprintf+0xf0>
/media/wen/My_Passport/Raspbian/raspbian-tee/raspbian-tee/optee_os/lib/libutils/ext/snprintk.c:291
     8fc:	f1b9 0f74 	cmp.w	r9, #116	; 0x74
     900:	f000 809f 	beq.w	a42 <__vsnprintf+0x352>
     904:	dc22      	bgt.n	94c <__vsnprintf+0x25c>
     906:	f1b9 0f71 	cmp.w	r9, #113	; 0x71
     90a:	f000 8094 	beq.w	a36 <__vsnprintf+0x346>
     90e:	f2c0 8167 	blt.w	be0 <__vsnprintf+0x4f0>
     912:	f1b9 0f73 	cmp.w	r9, #115	; 0x73
     916:	f47f af4b 	bne.w	7b0 <__vsnprintf+0xc0>
/media/wen/My_Passport/Raspbian/raspbian-tee/raspbian-tee/optee_os/lib/libutils/ext/snprintk.c:442
     91a:	6813      	ldr	r3, [r2, #0]
     91c:	1d17      	adds	r7, r2, #4
     91e:	b913      	cbnz	r3, 926 <__vsnprintf+0x236>
/media/wen/My_Passport/Raspbian/raspbian-tee/raspbian-tee/optee_os/lib/libutils/ext/snprintk.c:444
     920:	f8df 34ec 	ldr.w	r3, [pc, #1260]	; e10 <__vsnprintf+0x720>
     924:	447b      	add	r3, pc
/media/wen/My_Passport/Raspbian/raspbian-tee/raspbian-tee/optee_os/lib/libutils/ext/snprintk.c:445
     926:	f1bb 3fff 	cmp.w	fp, #4294967295
     92a:	f000 81ad 	beq.w	c88 <__vsnprintf+0x598>
/media/wen/My_Passport/Raspbian/raspbian-tee/raspbian-tee/optee_os/lib/libutils/ext/snprintk.c:451
     92e:	4618      	mov	r0, r3
     930:	465a      	mov	r2, fp
     932:	2100      	movs	r1, #0
     934:	9311      	str	r3, [sp, #68]	; 0x44
     936:	f005 f9ef 	bl	5d18 <memchr>
/media/wen/My_Passport/Raspbian/raspbian-tee/raspbian-tee/optee_os/lib/libutils/ext/snprintk.c:453
     93a:	9b11      	ldr	r3, [sp, #68]	; 0x44
     93c:	b120      	cbz	r0, 948 <__vsnprintf+0x258>
/media/wen/My_Passport/Raspbian/raspbian-tee/raspbian-tee/optee_os/lib/libutils/ext/snprintk.c:454
     93e:	1ac0      	subs	r0, r0, r3
     940:	4583      	cmp	fp, r0
     942:	bfa8      	it	ge
     944:	4683      	movge	fp, r0
/media/wen/My_Passport/Raspbian/raspbian-tee/raspbian-tee/optee_os/lib/libutils/ext/snprintk.c:285
     946:	2000      	movs	r0, #0
/media/wen/My_Passport/Raspbian/raspbian-tee/raspbian-tee/optee_os/lib/libutils/ext/snprintk.c:461
     948:	4682      	mov	sl, r0
     94a:	e08a      	b.n	a62 <__vsnprintf+0x372>
/media/wen/My_Passport/Raspbian/raspbian-tee/raspbian-tee/optee_os/lib/libutils/ext/snprintk.c:291
     94c:	f1b9 0f78 	cmp.w	r9, #120	; 0x78
     950:	f000 81c2 	beq.w	cd8 <__vsnprintf+0x5e8>
     954:	f1b9 0f7a 	cmp.w	r9, #122	; 0x7a
     958:	d076      	beq.n	a48 <__vsnprintf+0x358>
     95a:	f1b9 0f75 	cmp.w	r9, #117	; 0x75
     95e:	f47f af27 	bne.w	7b0 <__vsnprintf+0xc0>
/media/wen/My_Passport/Raspbian/raspbian-tee/raspbian-tee/optee_os/lib/libutils/ext/snprintk.c:467
     962:	f016 0380 	ands.w	r3, r6, #128	; 0x80
     966:	f000 819b 	beq.w	ca0 <__vsnprintf+0x5b0>
     96a:	3207      	adds	r2, #7
     96c:	f022 0207 	bic.w	r2, r2, #7
     970:	f102 0708 	add.w	r7, r2, #8
     974:	e9d2 4500 	ldrd	r4, r5, [r2]
/media/wen/My_Passport/Raspbian/raspbian-tee/raspbian-tee/optee_os/lib/libutils/ext/snprintk.c:482
     978:	f04f 0a00 	mov.w	sl, #0
     97c:	e0d4      	b.n	b28 <__vsnprintf+0x438>
/media/wen/My_Passport/Raspbian/raspbian-tee/raspbian-tee/optee_os/lib/libutils/ext/snprintk.c:471
     97e:	f8df 3494 	ldr.w	r3, [pc, #1172]	; e14 <__vsnprintf+0x724>
     982:	447b      	add	r3, pc
/media/wen/My_Passport/Raspbian/raspbian-tee/raspbian-tee/optee_os/lib/libutils/ext/snprintk.c:475
     984:	0637      	lsls	r7, r6, #24
/media/wen/My_Passport/Raspbian/raspbian-tee/raspbian-tee/optee_os/lib/libutils/ext/snprintk.c:474
     986:	930f      	str	r3, [sp, #60]	; 0x3c
/media/wen/My_Passport/Raspbian/raspbian-tee/raspbian-tee/optee_os/lib/libutils/ext/snprintk.c:475
     988:	f140 81aa 	bpl.w	ce0 <__vsnprintf+0x5f0>
     98c:	3207      	adds	r2, #7
     98e:	f022 0207 	bic.w	r2, r2, #7
     992:	f102 0708 	add.w	r7, r2, #8
     996:	e9d2 4500 	ldrd	r4, r5, [r2]
/media/wen/My_Passport/Raspbian/raspbian-tee/raspbian-tee/optee_os/lib/libutils/ext/snprintk.c:478
     99a:	07f3      	lsls	r3, r6, #31
     99c:	f140 815c 	bpl.w	c58 <__vsnprintf+0x568>
     9a0:	ea54 0305 	orrs.w	r3, r4, r5
     9a4:	f000 822d 	beq.w	e02 <__vsnprintf+0x712>
/media/wen/My_Passport/Raspbian/raspbian-tee/raspbian-tee/optee_os/lib/libutils/ext/snprintk.c:488
     9a8:	f1bb 3fff 	cmp.w	fp, #4294967295
/media/wen/My_Passport/Raspbian/raspbian-tee/raspbian-tee/optee_os/lib/libutils/ext/snprintk.c:479
     9ac:	f046 0602 	orr.w	r6, r6, #2
/media/wen/My_Passport/Raspbian/raspbian-tee/raspbian-tee/optee_os/lib/libutils/ext/snprintk.c:488
     9b0:	f000 822a 	beq.w	e08 <__vsnprintf+0x718>
     9b4:	f04f 0a00 	mov.w	sl, #0
     9b8:	2302      	movs	r3, #2
     9ba:	e74a      	b.n	852 <__vsnprintf+0x162>
/media/wen/My_Passport/Raspbian/raspbian-tee/raspbian-tee/optee_os/lib/libutils/ext/snprintk.c:299
     9bc:	f1ba 0f00 	cmp.w	sl, #0
     9c0:	f04f 0320 	mov.w	r3, #32
     9c4:	bf08      	it	eq
     9c6:	469a      	moveq	sl, r3
     9c8:	e70a      	b.n	7e0 <__vsnprintf+0xf0>
/media/wen/My_Passport/Raspbian/raspbian-tee/raspbian-tee/optee_os/lib/libutils/ext/snprintk.c:302
     9ca:	f046 0601 	orr.w	r6, r6, #1
     9ce:	e707      	b.n	7e0 <__vsnprintf+0xf0>
/media/wen/My_Passport/Raspbian/raspbian-tee/raspbian-tee/optee_os/lib/libutils/ext/snprintk.c:311
     9d0:	1d13      	adds	r3, r2, #4
     9d2:	6812      	ldr	r2, [r2, #0]
     9d4:	2a00      	cmp	r2, #0
     9d6:	920d      	str	r2, [sp, #52]	; 0x34
     9d8:	f6bf aef4 	bge.w	7c4 <__vsnprintf+0xd4>
/media/wen/My_Passport/Raspbian/raspbian-tee/raspbian-tee/optee_os/lib/libutils/ext/snprintk.c:313
     9dc:	4252      	negs	r2, r2
     9de:	920d      	str	r2, [sp, #52]	; 0x34
/media/wen/My_Passport/Raspbian/raspbian-tee/raspbian-tee/optee_os/lib/libutils/ext/snprintk.c:311
     9e0:	461a      	mov	r2, r3
/media/wen/My_Passport/Raspbian/raspbian-tee/raspbian-tee/optee_os/lib/libutils/ext/snprintk.c:316
     9e2:	f046 0604 	orr.w	r6, r6, #4
     9e6:	e6fb      	b.n	7e0 <__vsnprintf+0xf0>
/media/wen/My_Passport/Raspbian/raspbian-tee/raspbian-tee/optee_os/lib/libutils/ext/snprintk.c:322
     9e8:	990b      	ldr	r1, [sp, #44]	; 0x2c
     9ea:	9b0b      	ldr	r3, [sp, #44]	; 0x2c
     9ec:	3301      	adds	r3, #1
     9ee:	f891 9000 	ldrb.w	r9, [r1]
     9f2:	f1b9 0f2a 	cmp.w	r9, #42	; 0x2a
     9f6:	d00e      	beq.n	a16 <__vsnprintf+0x326>
     9f8:	f04f 0b00 	mov.w	fp, #0
/media/wen/My_Passport/Raspbian/raspbian-tee/raspbian-tee/optee_os/lib/libutils/ext/snprintk.c:330
     9fc:	930b      	str	r3, [sp, #44]	; 0x2c
/media/wen/My_Passport/Raspbian/raspbian-tee/raspbian-tee/optee_os/lib/libutils/ext/snprintk.c:328
     9fe:	f1a9 0330 	sub.w	r3, r9, #48	; 0x30
     a02:	2b09      	cmp	r3, #9
     a04:	f63f aebc 	bhi.w	780 <__vsnprintf+0x90>
/media/wen/My_Passport/Raspbian/raspbian-tee/raspbian-tee/optee_os/lib/libutils/ext/snprintk.c:329
     a08:	210a      	movs	r1, #10
     a0a:	fb01 3b0b 	mla	fp, r1, fp, r3
/media/wen/My_Passport/Raspbian/raspbian-tee/raspbian-tee/optee_os/lib/libutils/ext/snprintk.c:330
     a0e:	9b0b      	ldr	r3, [sp, #44]	; 0x2c
     a10:	f813 9b01 	ldrb.w	r9, [r3], #1
     a14:	e7f2      	b.n	9fc <__vsnprintf+0x30c>
/media/wen/My_Passport/Raspbian/raspbian-tee/raspbian-tee/optee_os/lib/libutils/ext/snprintk.c:324
     a16:	6811      	ldr	r1, [r2, #0]
/media/wen/My_Passport/Raspbian/raspbian-tee/raspbian-tee/optee_os/lib/libutils/ext/snprintk.c:323
     a18:	3204      	adds	r2, #4
/media/wen/My_Passport/Raspbian/raspbian-tee/raspbian-tee/optee_os/lib/libutils/ext/snprintk.c:322
     a1a:	930b      	str	r3, [sp, #44]	; 0x2c
/media/wen/My_Passport/Raspbian/raspbian-tee/raspbian-tee/optee_os/lib/libutils/ext/snprintk.c:324
     a1c:	ea41 7be1 	orr.w	fp, r1, r1, asr #31
     a20:	e6de      	b.n	7e0 <__vsnprintf+0xf0>
/media/wen/My_Passport/Raspbian/raspbian-tee/raspbian-tee/optee_os/lib/libutils/ext/snprintk.c:340
     a22:	f446 6680 	orr.w	r6, r6, #1024	; 0x400
     a26:	e6db      	b.n	7e0 <__vsnprintf+0xf0>
/media/wen/My_Passport/Raspbian/raspbian-tee/raspbian-tee/optee_os/lib/libutils/ext/snprintk.c:358
     a28:	9b0b      	ldr	r3, [sp, #44]	; 0x2c
     a2a:	781b      	ldrb	r3, [r3, #0]
     a2c:	2b6c      	cmp	r3, #108	; 0x6c
     a2e:	d105      	bne.n	a3c <__vsnprintf+0x34c>
/media/wen/My_Passport/Raspbian/raspbian-tee/raspbian-tee/optee_os/lib/libutils/ext/snprintk.c:359
     a30:	9b0b      	ldr	r3, [sp, #44]	; 0x2c
     a32:	3301      	adds	r3, #1
     a34:	930b      	str	r3, [sp, #44]	; 0x2c
/media/wen/My_Passport/Raspbian/raspbian-tee/raspbian-tee/optee_os/lib/libutils/ext/snprintk.c:366
     a36:	f046 0620 	orr.w	r6, r6, #32
     a3a:	e6d1      	b.n	7e0 <__vsnprintf+0xf0>
/media/wen/My_Passport/Raspbian/raspbian-tee/raspbian-tee/optee_os/lib/libutils/ext/snprintk.c:362
     a3c:	f046 0610 	orr.w	r6, r6, #16
     a40:	e6ce      	b.n	7e0 <__vsnprintf+0xf0>
/media/wen/My_Passport/Raspbian/raspbian-tee/raspbian-tee/optee_os/lib/libutils/ext/snprintk.c:369
     a42:	f446 7680 	orr.w	r6, r6, #256	; 0x100
     a46:	e6cb      	b.n	7e0 <__vsnprintf+0xf0>
/media/wen/My_Passport/Raspbian/raspbian-tee/raspbian-tee/optee_os/lib/libutils/ext/snprintk.c:372
     a48:	f446 7600 	orr.w	r6, r6, #512	; 0x200
     a4c:	e6c8      	b.n	7e0 <__vsnprintf+0xf0>
/media/wen/My_Passport/Raspbian/raspbian-tee/raspbian-tee/optee_os/lib/libutils/ext/snprintk.c:375
     a4e:	ab1e      	add	r3, sp, #120	; 0x78
     a50:	1d17      	adds	r7, r2, #4
/media/wen/My_Passport/Raspbian/raspbian-tee/raspbian-tee/optee_os/lib/libutils/ext/snprintk.c:285
     a52:	f04f 0a00 	mov.w	sl, #0
/media/wen/My_Passport/Raspbian/raspbian-tee/raspbian-tee/optee_os/lib/libutils/ext/snprintk.c:375
     a56:	6812      	ldr	r2, [r2, #0]
/media/wen/My_Passport/Raspbian/raspbian-tee/raspbian-tee/optee_os/lib/libutils/ext/snprintk.c:376
     a58:	f04f 0b01 	mov.w	fp, #1
/media/wen/My_Passport/Raspbian/raspbian-tee/raspbian-tee/optee_os/lib/libutils/ext/snprintk.c:377
     a5c:	4650      	mov	r0, sl
/media/wen/My_Passport/Raspbian/raspbian-tee/raspbian-tee/optee_os/lib/libutils/ext/snprintk.c:375
     a5e:	f803 2d28 	strb.w	r2, [r3, #-40]!
/media/wen/My_Passport/Raspbian/raspbian-tee/raspbian-tee/optee_os/lib/libutils/ext/snprintk.c:565
     a62:	4558      	cmp	r0, fp
     a64:	4602      	mov	r2, r0
     a66:	bfb8      	it	lt
     a68:	465a      	movlt	r2, fp
/media/wen/My_Passport/Raspbian/raspbian-tee/raspbian-tee/optee_os/lib/libutils/ext/snprintk.c:566
     a6a:	f1ba 0f00 	cmp.w	sl, #0
     a6e:	f000 8165 	beq.w	d3c <__vsnprintf+0x64c>
/media/wen/My_Passport/Raspbian/raspbian-tee/raspbian-tee/optee_os/lib/libutils/ext/snprintk.c:567
     a72:	3201      	adds	r2, #1
/media/wen/My_Passport/Raspbian/raspbian-tee/raspbian-tee/optee_os/lib/libutils/ext/snprintk.c:572
     a74:	990d      	ldr	r1, [sp, #52]	; 0x34
     a76:	9c0c      	ldr	r4, [sp, #48]	; 0x30
     a78:	4291      	cmp	r1, r2
     a7a:	bfb8      	it	lt
     a7c:	4611      	movlt	r1, r2
     a7e:	440c      	add	r4, r1
/media/wen/My_Passport/Raspbian/raspbian-tee/raspbian-tee/optee_os/lib/libutils/ext/snprintk.c:575
     a80:	f240 4104 	movw	r1, #1028	; 0x404
/media/wen/My_Passport/Raspbian/raspbian-tee/raspbian-tee/optee_os/lib/libutils/ext/snprintk.c:572
     a84:	940c      	str	r4, [sp, #48]	; 0x30
/media/wen/My_Passport/Raspbian/raspbian-tee/raspbian-tee/optee_os/lib/libutils/ext/snprintk.c:575
     a86:	ea16 0401 	ands.w	r4, r6, r1
     a8a:	d106      	bne.n	a9a <__vsnprintf+0x3aa>
/media/wen/My_Passport/Raspbian/raspbian-tee/raspbian-tee/optee_os/lib/libutils/ext/snprintk.c:576
     a8c:	990d      	ldr	r1, [sp, #52]	; 0x34
/media/wen/My_Passport/Raspbian/raspbian-tee/raspbian-tee/optee_os/lib/libutils/ext/snprintk.c:578
     a8e:	f04f 0e20 	mov.w	lr, #32
/media/wen/My_Passport/Raspbian/raspbian-tee/raspbian-tee/optee_os/lib/libutils/ext/snprintk.c:576
     a92:	1a89      	subs	r1, r1, r2
/media/wen/My_Passport/Raspbian/raspbian-tee/raspbian-tee/optee_os/lib/libutils/ext/snprintk.c:577
     a94:	2900      	cmp	r1, #0
     a96:	f300 8155 	bgt.w	d44 <__vsnprintf+0x654>
/media/wen/My_Passport/Raspbian/raspbian-tee/raspbian-tee/optee_os/lib/libutils/ext/snprintk.c:582
     a9a:	f1ba 0f00 	cmp.w	sl, #0
     a9e:	f000 8166 	beq.w	d6e <__vsnprintf+0x67e>
/media/wen/My_Passport/Raspbian/raspbian-tee/raspbian-tee/optee_os/lib/libutils/ext/snprintk.c:583
     aa2:	f1b8 0f00 	cmp.w	r8, #0
     aa6:	f040 8159 	bne.w	d5c <__vsnprintf+0x66c>
/media/wen/My_Passport/Raspbian/raspbian-tee/raspbian-tee/optee_os/lib/libutils/ext/snprintk.c:586
     aaa:	f04f 0800 	mov.w	r8, #0
/media/wen/My_Passport/Raspbian/raspbian-tee/raspbian-tee/optee_os/lib/libutils/ext/snprintk.c:590
     aae:	f5b4 6f80 	cmp.w	r4, #1024	; 0x400
     ab2:	d105      	bne.n	ac0 <__vsnprintf+0x3d0>
/media/wen/My_Passport/Raspbian/raspbian-tee/raspbian-tee/optee_os/lib/libutils/ext/snprintk.c:591
     ab4:	990d      	ldr	r1, [sp, #52]	; 0x34
/media/wen/My_Passport/Raspbian/raspbian-tee/raspbian-tee/optee_os/lib/libutils/ext/snprintk.c:593
     ab6:	2430      	movs	r4, #48	; 0x30
/media/wen/My_Passport/Raspbian/raspbian-tee/raspbian-tee/optee_os/lib/libutils/ext/snprintk.c:591
     ab8:	1a89      	subs	r1, r1, r2
/media/wen/My_Passport/Raspbian/raspbian-tee/raspbian-tee/optee_os/lib/libutils/ext/snprintk.c:592
     aba:	2900      	cmp	r1, #0
     abc:	f300 8173 	bgt.w	da6 <__vsnprintf+0x6b6>
/media/wen/My_Passport/Raspbian/raspbian-tee/raspbian-tee/optee_os/lib/libutils/ext/snprintk.c:597
     ac0:	eba0 000b 	sub.w	r0, r0, fp
/media/wen/My_Passport/Raspbian/raspbian-tee/raspbian-tee/optee_os/lib/libutils/ext/snprintk.c:599
     ac4:	2130      	movs	r1, #48	; 0x30
/media/wen/My_Passport/Raspbian/raspbian-tee/raspbian-tee/optee_os/lib/libutils/ext/snprintk.c:598
     ac6:	2800      	cmp	r0, #0
     ac8:	f300 8179 	bgt.w	dbe <__vsnprintf+0x6ce>
     acc:	eb03 010b 	add.w	r1, r3, fp
/media/wen/My_Passport/Raspbian/raspbian-tee/raspbian-tee/optee_os/lib/libutils/ext/snprintk.c:602
     ad0:	428b      	cmp	r3, r1
     ad2:	f040 8180 	bne.w	dd6 <__vsnprintf+0x6e6>
/media/wen/My_Passport/Raspbian/raspbian-tee/raspbian-tee/optee_os/lib/libutils/ext/snprintk.c:605
     ad6:	0773      	lsls	r3, r6, #29
     ad8:	f57f ae1b 	bpl.w	712 <__vsnprintf+0x22>
/media/wen/My_Passport/Raspbian/raspbian-tee/raspbian-tee/optee_os/lib/libutils/ext/snprintk.c:606
     adc:	9b0d      	ldr	r3, [sp, #52]	; 0x34
     ade:	1a9b      	subs	r3, r3, r2
/media/wen/My_Passport/Raspbian/raspbian-tee/raspbian-tee/optee_os/lib/libutils/ext/snprintk.c:608
     ae0:	2220      	movs	r2, #32
/media/wen/My_Passport/Raspbian/raspbian-tee/raspbian-tee/optee_os/lib/libutils/ext/snprintk.c:607
     ae2:	2b00      	cmp	r3, #0
     ae4:	f77f ae15 	ble.w	712 <__vsnprintf+0x22>
/media/wen/My_Passport/Raspbian/raspbian-tee/raspbian-tee/optee_os/lib/libutils/ext/snprintk.c:608
     ae8:	f1b8 0f00 	cmp.w	r8, #0
     aec:	d006      	beq.n	afc <__vsnprintf+0x40c>
     aee:	990e      	ldr	r1, [sp, #56]	; 0x38
     af0:	4541      	cmp	r1, r8
     af2:	d903      	bls.n	afc <__vsnprintf+0x40c>
     af4:	f888 2000 	strb.w	r2, [r8]
     af8:	f108 0801 	add.w	r8, r8, #1
     afc:	3b01      	subs	r3, #1
     afe:	e7f0      	b.n	ae2 <__vsnprintf+0x3f2>
/media/wen/My_Passport/Raspbian/raspbian-tee/raspbian-tee/optee_os/lib/libutils/ext/snprintk.c:380
     b00:	f046 0610 	orr.w	r6, r6, #16
/media/wen/My_Passport/Raspbian/raspbian-tee/raspbian-tee/optee_os/lib/libutils/ext/snprintk.c:384
     b04:	0631      	lsls	r1, r6, #24
     b06:	d523      	bpl.n	b50 <__vsnprintf+0x460>
     b08:	3207      	adds	r2, #7
     b0a:	f022 0207 	bic.w	r2, r2, #7
     b0e:	f102 0708 	add.w	r7, r2, #8
     b12:	e9d2 4500 	ldrd	r4, r5, [r2]
/media/wen/My_Passport/Raspbian/raspbian-tee/raspbian-tee/optee_os/lib/libutils/ext/snprintk.c:385
     b16:	2c00      	cmp	r4, #0
     b18:	f175 0300 	sbcs.w	r3, r5, #0
     b1c:	da04      	bge.n	b28 <__vsnprintf+0x438>
/media/wen/My_Passport/Raspbian/raspbian-tee/raspbian-tee/optee_os/lib/libutils/ext/snprintk.c:386
     b1e:	4264      	negs	r4, r4
/media/wen/My_Passport/Raspbian/raspbian-tee/raspbian-tee/optee_os/lib/libutils/ext/snprintk.c:387
     b20:	f04f 0a2d 	mov.w	sl, #45	; 0x2d
/media/wen/My_Passport/Raspbian/raspbian-tee/raspbian-tee/optee_os/lib/libutils/ext/snprintk.c:386
     b24:	eb65 0545 	sbc.w	r5, r5, r5, lsl #1
/media/wen/My_Passport/Raspbian/raspbian-tee/raspbian-tee/optee_os/lib/libutils/ext/snprintk.c:488
     b28:	f1bb 3fff 	cmp.w	fp, #4294967295
     b2c:	f040 80ec 	bne.w	d08 <__vsnprintf+0x618>
/media/wen/My_Passport/Raspbian/raspbian-tee/raspbian-tee/optee_os/lib/libutils/ext/snprintk.c:508
     b30:	f10d 0375 	add.w	r3, sp, #117	; 0x75
     b34:	9311      	str	r3, [sp, #68]	; 0x44
/media/wen/My_Passport/Raspbian/raspbian-tee/raspbian-tee/optee_os/lib/libutils/ext/snprintk.c:516
     b36:	2d00      	cmp	r5, #0
     b38:	9b11      	ldr	r3, [sp, #68]	; 0x44
     b3a:	bf08      	it	eq
     b3c:	2c0a      	cmpeq	r4, #10
     b3e:	f103 33ff 	add.w	r3, r3, #4294967295
     b42:	f080 80e5 	bcs.w	d10 <__vsnprintf+0x620>
/media/wen/My_Passport/Raspbian/raspbian-tee/raspbian-tee/optee_os/lib/libutils/ext/snprintk.c:520
     b46:	9a11      	ldr	r2, [sp, #68]	; 0x44
     b48:	3430      	adds	r4, #48	; 0x30
     b4a:	f802 4c01 	strb.w	r4, [r2, #-1]
     b4e:	e6ac      	b.n	8aa <__vsnprintf+0x1ba>
/media/wen/My_Passport/Raspbian/raspbian-tee/raspbian-tee/optee_os/lib/libutils/ext/snprintk.c:384
     b50:	05f3      	lsls	r3, r6, #23
     b52:	d503      	bpl.n	b5c <__vsnprintf+0x46c>
     b54:	1d17      	adds	r7, r2, #4
     b56:	6814      	ldr	r4, [r2, #0]
     b58:	17e5      	asrs	r5, r4, #31
     b5a:	e7dc      	b.n	b16 <__vsnprintf+0x426>
     b5c:	05b7      	lsls	r7, r6, #22
     b5e:	d4f9      	bmi.n	b54 <__vsnprintf+0x464>
     b60:	06b5      	lsls	r5, r6, #26
     b62:	d4d1      	bmi.n	b08 <__vsnprintf+0x418>
     b64:	f016 0f10 	tst.w	r6, #16
     b68:	f102 0704 	add.w	r7, r2, #4
     b6c:	d1f3      	bne.n	b56 <__vsnprintf+0x466>
     b6e:	f016 0f40 	tst.w	r6, #64	; 0x40
     b72:	6814      	ldr	r4, [r2, #0]
     b74:	d0f0      	beq.n	b58 <__vsnprintf+0x468>
     b76:	b224      	sxth	r4, r4
     b78:	e7ee      	b.n	b58 <__vsnprintf+0x468>
/media/wen/My_Passport/Raspbian/raspbian-tee/raspbian-tee/optee_os/lib/libutils/ext/snprintk.c:392
     b7a:	f016 0f80 	tst.w	r6, #128	; 0x80
     b7e:	f102 0704 	add.w	r7, r2, #4
     b82:	d006      	beq.n	b92 <__vsnprintf+0x4a2>
/media/wen/My_Passport/Raspbian/raspbian-tee/raspbian-tee/optee_os/lib/libutils/ext/snprintk.c:399
     b84:	6813      	ldr	r3, [r2, #0]
     b86:	9a0c      	ldr	r2, [sp, #48]	; 0x30
     b88:	4610      	mov	r0, r2
     b8a:	17d1      	asrs	r1, r2, #31
     b8c:	e9c3 0100 	strd	r0, r1, [r3]
     b90:	e5bf      	b.n	712 <__vsnprintf+0x22>
/media/wen/My_Passport/Raspbian/raspbian-tee/raspbian-tee/optee_os/lib/libutils/ext/snprintk.c:394
     b92:	05f4      	lsls	r4, r6, #23
     b94:	d503      	bpl.n	b9e <__vsnprintf+0x4ae>
/media/wen/My_Passport/Raspbian/raspbian-tee/raspbian-tee/optee_os/lib/libutils/ext/snprintk.c:405
     b96:	6813      	ldr	r3, [r2, #0]
     b98:	9a0c      	ldr	r2, [sp, #48]	; 0x30
     b9a:	601a      	str	r2, [r3, #0]
     b9c:	e5b9      	b.n	712 <__vsnprintf+0x22>
/media/wen/My_Passport/Raspbian/raspbian-tee/raspbian-tee/optee_os/lib/libutils/ext/snprintk.c:396
     b9e:	05b0      	lsls	r0, r6, #22
     ba0:	d4f9      	bmi.n	b96 <__vsnprintf+0x4a6>
/media/wen/My_Passport/Raspbian/raspbian-tee/raspbian-tee/optee_os/lib/libutils/ext/snprintk.c:398
     ba2:	06b1      	lsls	r1, r6, #26
     ba4:	d4ee      	bmi.n	b84 <__vsnprintf+0x494>
/media/wen/My_Passport/Raspbian/raspbian-tee/raspbian-tee/optee_os/lib/libutils/ext/snprintk.c:400
     ba6:	06f3      	lsls	r3, r6, #27
     ba8:	d4f5      	bmi.n	b96 <__vsnprintf+0x4a6>
/media/wen/My_Passport/Raspbian/raspbian-tee/raspbian-tee/optee_os/lib/libutils/ext/snprintk.c:402
     baa:	0676      	lsls	r6, r6, #25
     bac:	d5f3      	bpl.n	b96 <__vsnprintf+0x4a6>
/media/wen/My_Passport/Raspbian/raspbian-tee/raspbian-tee/optee_os/lib/libutils/ext/snprintk.c:403
     bae:	6813      	ldr	r3, [r2, #0]
     bb0:	f8bd 2030 	ldrh.w	r2, [sp, #48]	; 0x30
     bb4:	801a      	strh	r2, [r3, #0]
     bb6:	e5ac      	b.n	712 <__vsnprintf+0x22>
/media/wen/My_Passport/Raspbian/raspbian-tee/raspbian-tee/optee_os/lib/libutils/ext/snprintk.c:411
     bb8:	05f4      	lsls	r4, r6, #23
     bba:	d502      	bpl.n	bc2 <__vsnprintf+0x4d2>
     bbc:	1d17      	adds	r7, r2, #4
     bbe:	6814      	ldr	r4, [r2, #0]
     bc0:	e00c      	b.n	bdc <__vsnprintf+0x4ec>
     bc2:	05b0      	lsls	r0, r6, #22
     bc4:	d4fa      	bmi.n	bbc <__vsnprintf+0x4cc>
     bc6:	06b1      	lsls	r1, r6, #26
     bc8:	f53f ae36 	bmi.w	838 <__vsnprintf+0x148>
     bcc:	f016 0f10 	tst.w	r6, #16
     bd0:	f102 0704 	add.w	r7, r2, #4
     bd4:	d1f3      	bne.n	bbe <__vsnprintf+0x4ce>
     bd6:	0673      	lsls	r3, r6, #25
     bd8:	d5f1      	bpl.n	bbe <__vsnprintf+0x4ce>
     bda:	8814      	ldrh	r4, [r2, #0]
     bdc:	2500      	movs	r5, #0
     bde:	e632      	b.n	846 <__vsnprintf+0x156>
/media/wen/My_Passport/Raspbian/raspbian-tee/raspbian-tee/optee_os/lib/libutils/ext/snprintk.c:415
     be0:	9b13      	ldr	r3, [sp, #76]	; 0x4c
     be2:	2b00      	cmp	r3, #0
     be4:	d02d      	beq.n	c42 <__vsnprintf+0x552>
     be6:	9b0b      	ldr	r3, [sp, #44]	; 0x2c
     be8:	781b      	ldrb	r3, [r3, #0]
     bea:	2b55      	cmp	r3, #85	; 0x55
     bec:	d129      	bne.n	c42 <__vsnprintf+0x552>
     bee:	9b0b      	ldr	r3, [sp, #44]	; 0x2c
     bf0:	785b      	ldrb	r3, [r3, #1]
     bf2:	2b6c      	cmp	r3, #108	; 0x6c
     bf4:	d125      	bne.n	c42 <__vsnprintf+0x552>
/media/wen/My_Passport/Raspbian/raspbian-tee/raspbian-tee/optee_os/lib/libutils/ext/snprintk.c:420
     bf6:	9b0b      	ldr	r3, [sp, #44]	; 0x2c
/media/wen/My_Passport/Raspbian/raspbian-tee/raspbian-tee/optee_os/lib/libutils/ext/snprintk.c:421
     bf8:	1d17      	adds	r7, r2, #4
uuid2str():
/media/wen/My_Passport/Raspbian/raspbian-tee/raspbian-tee/optee_os/lib/libutils/ext/snprintk.c:223
     bfa:	ac14      	add	r4, sp, #80	; 0x50
     bfc:	2125      	movs	r1, #37	; 0x25
kprintf():
/media/wen/My_Passport/Raspbian/raspbian-tee/raspbian-tee/optee_os/lib/libutils/ext/snprintk.c:420
     bfe:	3302      	adds	r3, #2
uuid2str():
/media/wen/My_Passport/Raspbian/raspbian-tee/raspbian-tee/optee_os/lib/libutils/ext/snprintk.c:223
     c00:	4620      	mov	r0, r4
kprintf():
/media/wen/My_Passport/Raspbian/raspbian-tee/raspbian-tee/optee_os/lib/libutils/ext/snprintk.c:420
     c02:	930b      	str	r3, [sp, #44]	; 0x2c
/media/wen/My_Passport/Raspbian/raspbian-tee/raspbian-tee/optee_os/lib/libutils/ext/snprintk.c:421
     c04:	6813      	ldr	r3, [r2, #0]
uuid2str():
/media/wen/My_Passport/Raspbian/raspbian-tee/raspbian-tee/optee_os/lib/libutils/ext/snprintk.c:223
     c06:	7bda      	ldrb	r2, [r3, #15]
     c08:	9209      	str	r2, [sp, #36]	; 0x24
     c0a:	7b9a      	ldrb	r2, [r3, #14]
     c0c:	9208      	str	r2, [sp, #32]
     c0e:	7b5a      	ldrb	r2, [r3, #13]
     c10:	9207      	str	r2, [sp, #28]
     c12:	7b1a      	ldrb	r2, [r3, #12]
     c14:	9206      	str	r2, [sp, #24]
     c16:	7ada      	ldrb	r2, [r3, #11]
     c18:	9205      	str	r2, [sp, #20]
     c1a:	7a9a      	ldrb	r2, [r3, #10]
     c1c:	9204      	str	r2, [sp, #16]
     c1e:	7a5a      	ldrb	r2, [r3, #9]
     c20:	9203      	str	r2, [sp, #12]
     c22:	7a1a      	ldrb	r2, [r3, #8]
     c24:	9202      	str	r2, [sp, #8]
     c26:	88da      	ldrh	r2, [r3, #6]
     c28:	9201      	str	r2, [sp, #4]
     c2a:	889a      	ldrh	r2, [r3, #4]
     c2c:	9200      	str	r2, [sp, #0]
     c2e:	4a7a      	ldr	r2, [pc, #488]	; (e18 <__vsnprintf+0x728>)
     c30:	681b      	ldr	r3, [r3, #0]
     c32:	447a      	add	r2, pc
     c34:	f000 f8fd 	bl	e32 <snprintk>
     c38:	4683      	mov	fp, r0
kprintf():
/media/wen/My_Passport/Raspbian/raspbian-tee/raspbian-tee/optee_os/lib/libutils/ext/snprintk.c:285
     c3a:	2000      	movs	r0, #0
/media/wen/My_Passport/Raspbian/raspbian-tee/raspbian-tee/optee_os/lib/libutils/ext/snprintk.c:423
     c3c:	4623      	mov	r3, r4
/media/wen/My_Passport/Raspbian/raspbian-tee/raspbian-tee/optee_os/lib/libutils/ext/snprintk.c:424
     c3e:	4682      	mov	sl, r0
     c40:	e70f      	b.n	a62 <__vsnprintf+0x372>
/media/wen/My_Passport/Raspbian/raspbian-tee/raspbian-tee/optee_os/lib/libutils/ext/snprintk.c:437
     c42:	4b76      	ldr	r3, [pc, #472]	; (e1c <__vsnprintf+0x72c>)
/media/wen/My_Passport/Raspbian/raspbian-tee/raspbian-tee/optee_os/lib/libutils/ext/snprintk.c:435
     c44:	1d17      	adds	r7, r2, #4
     c46:	6814      	ldr	r4, [r2, #0]
     c48:	2500      	movs	r5, #0
/media/wen/My_Passport/Raspbian/raspbian-tee/raspbian-tee/optee_os/lib/libutils/ext/snprintk.c:437
     c4a:	447b      	add	r3, pc
/media/wen/My_Passport/Raspbian/raspbian-tee/raspbian-tee/optee_os/lib/libutils/ext/snprintk.c:438
     c4c:	f046 0602 	orr.w	r6, r6, #2
/media/wen/My_Passport/Raspbian/raspbian-tee/raspbian-tee/optee_os/lib/libutils/ext/snprintk.c:437
     c50:	3311      	adds	r3, #17
/media/wen/My_Passport/Raspbian/raspbian-tee/raspbian-tee/optee_os/lib/libutils/ext/snprintk.c:439
     c52:	f04f 0978 	mov.w	r9, #120	; 0x78
/media/wen/My_Passport/Raspbian/raspbian-tee/raspbian-tee/optee_os/lib/libutils/ext/snprintk.c:437
     c56:	930f      	str	r3, [sp, #60]	; 0x3c
/media/wen/My_Passport/Raspbian/raspbian-tee/raspbian-tee/optee_os/lib/libutils/ext/snprintk.c:488
     c58:	f1bb 3fff 	cmp.w	fp, #4294967295
     c5c:	f47f aeaa 	bne.w	9b4 <__vsnprintf+0x2c4>
     c60:	f04f 0a00 	mov.w	sl, #0
     c64:	f10d 0375 	add.w	r3, sp, #117	; 0x75
/media/wen/My_Passport/Raspbian/raspbian-tee/raspbian-tee/optee_os/lib/libutils/ext/snprintk.c:525
     c68:	990f      	ldr	r1, [sp, #60]	; 0x3c
     c6a:	f004 020f 	and.w	r2, r4, #15
     c6e:	5c8a      	ldrb	r2, [r1, r2]
/media/wen/My_Passport/Raspbian/raspbian-tee/raspbian-tee/optee_os/lib/libutils/ext/snprintk.c:526
     c70:	0929      	lsrs	r1, r5, #4
/media/wen/My_Passport/Raspbian/raspbian-tee/raspbian-tee/optee_os/lib/libutils/ext/snprintk.c:525
     c72:	f803 2d01 	strb.w	r2, [r3, #-1]!
/media/wen/My_Passport/Raspbian/raspbian-tee/raspbian-tee/optee_os/lib/libutils/ext/snprintk.c:526
     c76:	0922      	lsrs	r2, r4, #4
     c78:	ea42 7205 	orr.w	r2, r2, r5, lsl #28
     c7c:	460d      	mov	r5, r1
     c7e:	4614      	mov	r4, r2
/media/wen/My_Passport/Raspbian/raspbian-tee/raspbian-tee/optee_os/lib/libutils/ext/snprintk.c:527
     c80:	ea54 0205 	orrs.w	r2, r4, r5
     c84:	d1f0      	bne.n	c68 <__vsnprintf+0x578>
     c86:	e610      	b.n	8aa <__vsnprintf+0x1ba>
/media/wen/My_Passport/Raspbian/raspbian-tee/raspbian-tee/optee_os/lib/libutils/ext/snprintk.c:460
     c88:	4618      	mov	r0, r3
     c8a:	9311      	str	r3, [sp, #68]	; 0x44
     c8c:	f005 f852 	bl	5d34 <strlen>
     c90:	4683      	mov	fp, r0
/media/wen/My_Passport/Raspbian/raspbian-tee/raspbian-tee/optee_os/lib/libutils/ext/snprintk.c:285
     c92:	2000      	movs	r0, #0
     c94:	9b11      	ldr	r3, [sp, #68]	; 0x44
/media/wen/My_Passport/Raspbian/raspbian-tee/raspbian-tee/optee_os/lib/libutils/ext/snprintk.c:461
     c96:	4682      	mov	sl, r0
     c98:	e6e3      	b.n	a62 <__vsnprintf+0x372>
/media/wen/My_Passport/Raspbian/raspbian-tee/raspbian-tee/optee_os/lib/libutils/ext/snprintk.c:464
     c9a:	f046 0610 	orr.w	r6, r6, #16
     c9e:	e660      	b.n	962 <__vsnprintf+0x272>
/media/wen/My_Passport/Raspbian/raspbian-tee/raspbian-tee/optee_os/lib/libutils/ext/snprintk.c:467
     ca0:	f416 7a80 	ands.w	sl, r6, #256	; 0x100
     ca4:	d003      	beq.n	cae <__vsnprintf+0x5be>
     ca6:	6814      	ldr	r4, [r2, #0]
     ca8:	1d17      	adds	r7, r2, #4
     caa:	2500      	movs	r5, #0
     cac:	e664      	b.n	978 <__vsnprintf+0x288>
     cae:	f416 7300 	ands.w	r3, r6, #512	; 0x200
     cb2:	d003      	beq.n	cbc <__vsnprintf+0x5cc>
     cb4:	1d17      	adds	r7, r2, #4
     cb6:	6814      	ldr	r4, [r2, #0]
     cb8:	2500      	movs	r5, #0
     cba:	e735      	b.n	b28 <__vsnprintf+0x438>
     cbc:	f016 0a20 	ands.w	sl, r6, #32
     cc0:	f47f ae53 	bne.w	96a <__vsnprintf+0x27a>
     cc4:	f016 0310 	ands.w	r3, r6, #16
     cc8:	f102 0704 	add.w	r7, r2, #4
     ccc:	d1f3      	bne.n	cb6 <__vsnprintf+0x5c6>
     cce:	f016 0a40 	ands.w	sl, r6, #64	; 0x40
     cd2:	d0f0      	beq.n	cb6 <__vsnprintf+0x5c6>
     cd4:	8814      	ldrh	r4, [r2, #0]
     cd6:	e7e8      	b.n	caa <__vsnprintf+0x5ba>
/media/wen/My_Passport/Raspbian/raspbian-tee/raspbian-tee/optee_os/lib/libutils/ext/snprintk.c:474
     cd8:	4b51      	ldr	r3, [pc, #324]	; (e20 <__vsnprintf+0x730>)
     cda:	447b      	add	r3, pc
     cdc:	3311      	adds	r3, #17
     cde:	e651      	b.n	984 <__vsnprintf+0x294>
/media/wen/My_Passport/Raspbian/raspbian-tee/raspbian-tee/optee_os/lib/libutils/ext/snprintk.c:475
     ce0:	05f5      	lsls	r5, r6, #23
     ce2:	d502      	bpl.n	cea <__vsnprintf+0x5fa>
     ce4:	1d17      	adds	r7, r2, #4
     ce6:	6814      	ldr	r4, [r2, #0]
     ce8:	e00c      	b.n	d04 <__vsnprintf+0x614>
     cea:	05b4      	lsls	r4, r6, #22
     cec:	d4fa      	bmi.n	ce4 <__vsnprintf+0x5f4>
     cee:	06b0      	lsls	r0, r6, #26
     cf0:	f53f ae4c 	bmi.w	98c <__vsnprintf+0x29c>
     cf4:	f016 0f10 	tst.w	r6, #16
     cf8:	f102 0704 	add.w	r7, r2, #4
     cfc:	d1f3      	bne.n	ce6 <__vsnprintf+0x5f6>
     cfe:	0671      	lsls	r1, r6, #25
     d00:	d5f1      	bpl.n	ce6 <__vsnprintf+0x5f6>
     d02:	8814      	ldrh	r4, [r2, #0]
     d04:	2500      	movs	r5, #0
     d06:	e648      	b.n	99a <__vsnprintf+0x2aa>
/media/wen/My_Passport/Raspbian/raspbian-tee/raspbian-tee/optee_os/lib/libutils/ext/snprintk.c:488
     d08:	2301      	movs	r3, #1
     d0a:	e5a2      	b.n	852 <__vsnprintf+0x162>
/media/wen/My_Passport/Raspbian/raspbian-tee/raspbian-tee/optee_os/lib/libutils/ext/snprintk.c:508
     d0c:	461a      	mov	r2, r3
     d0e:	e5b3      	b.n	878 <__vsnprintf+0x188>
/media/wen/My_Passport/Raspbian/raspbian-tee/raspbian-tee/optee_os/lib/libutils/ext/snprintk.c:517
     d10:	9311      	str	r3, [sp, #68]	; 0x44
     d12:	4620      	mov	r0, r4
     d14:	4629      	mov	r1, r5
     d16:	220a      	movs	r2, #10
     d18:	2300      	movs	r3, #0
     d1a:	f000 e8a4 	blx	e64 <__aeabi_uldivmod>
     d1e:	9b11      	ldr	r3, [sp, #68]	; 0x44
     d20:	3230      	adds	r2, #48	; 0x30
/media/wen/My_Passport/Raspbian/raspbian-tee/raspbian-tee/optee_os/lib/libutils/ext/snprintk.c:518
     d22:	4620      	mov	r0, r4
     d24:	4629      	mov	r1, r5
/media/wen/My_Passport/Raspbian/raspbian-tee/raspbian-tee/optee_os/lib/libutils/ext/snprintk.c:517
     d26:	701a      	strb	r2, [r3, #0]
/media/wen/My_Passport/Raspbian/raspbian-tee/raspbian-tee/optee_os/lib/libutils/ext/snprintk.c:518
     d28:	220a      	movs	r2, #10
     d2a:	2300      	movs	r3, #0
     d2c:	f000 e89a 	blx	e64 <__aeabi_uldivmod>
     d30:	4604      	mov	r4, r0
     d32:	460d      	mov	r5, r1
     d34:	e6ff      	b.n	b36 <__vsnprintf+0x446>
/media/wen/My_Passport/Raspbian/raspbian-tee/raspbian-tee/optee_os/lib/libutils/ext/snprintk.c:496
     d36:	f10d 0375 	add.w	r3, sp, #117	; 0x75
     d3a:	e5b6      	b.n	8aa <__vsnprintf+0x1ba>
/media/wen/My_Passport/Raspbian/raspbian-tee/raspbian-tee/optee_os/lib/libutils/ext/snprintk.c:568
     d3c:	07b4      	lsls	r4, r6, #30
/media/wen/My_Passport/Raspbian/raspbian-tee/raspbian-tee/optee_os/lib/libutils/ext/snprintk.c:569
     d3e:	bf48      	it	mi
     d40:	3202      	addmi	r2, #2
     d42:	e697      	b.n	a74 <__vsnprintf+0x384>
/media/wen/My_Passport/Raspbian/raspbian-tee/raspbian-tee/optee_os/lib/libutils/ext/snprintk.c:578
     d44:	f1b8 0f00 	cmp.w	r8, #0
     d48:	d006      	beq.n	d58 <__vsnprintf+0x668>
     d4a:	9d0e      	ldr	r5, [sp, #56]	; 0x38
     d4c:	4545      	cmp	r5, r8
     d4e:	d903      	bls.n	d58 <__vsnprintf+0x668>
     d50:	f888 e000 	strb.w	lr, [r8]
     d54:	f108 0801 	add.w	r8, r8, #1
     d58:	3901      	subs	r1, #1
     d5a:	e69b      	b.n	a94 <__vsnprintf+0x3a4>
/media/wen/My_Passport/Raspbian/raspbian-tee/raspbian-tee/optee_os/lib/libutils/ext/snprintk.c:583
     d5c:	990e      	ldr	r1, [sp, #56]	; 0x38
     d5e:	4541      	cmp	r1, r8
     d60:	f67f aea5 	bls.w	aae <__vsnprintf+0x3be>
     d64:	f888 a000 	strb.w	sl, [r8]
     d68:	f108 0801 	add.w	r8, r8, #1
     d6c:	e69f      	b.n	aae <__vsnprintf+0x3be>
/media/wen/My_Passport/Raspbian/raspbian-tee/raspbian-tee/optee_os/lib/libutils/ext/snprintk.c:584
     d6e:	07b1      	lsls	r1, r6, #30
     d70:	f57f ae9d 	bpl.w	aae <__vsnprintf+0x3be>
/media/wen/My_Passport/Raspbian/raspbian-tee/raspbian-tee/optee_os/lib/libutils/ext/snprintk.c:585
     d74:	f1b8 0f00 	cmp.w	r8, #0
     d78:	f43f ae97 	beq.w	aaa <__vsnprintf+0x3ba>
     d7c:	990e      	ldr	r1, [sp, #56]	; 0x38
     d7e:	4541      	cmp	r1, r8
     d80:	f67f ae95 	bls.w	aae <__vsnprintf+0x3be>
     d84:	2130      	movs	r1, #48	; 0x30
     d86:	f888 1000 	strb.w	r1, [r8]
/media/wen/My_Passport/Raspbian/raspbian-tee/raspbian-tee/optee_os/lib/libutils/ext/snprintk.c:586
     d8a:	f118 0101 	adds.w	r1, r8, #1
     d8e:	f43f ae8c 	beq.w	aaa <__vsnprintf+0x3ba>
     d92:	9d0e      	ldr	r5, [sp, #56]	; 0x38
     d94:	428d      	cmp	r5, r1
     d96:	d904      	bls.n	da2 <__vsnprintf+0x6b2>
     d98:	f888 9001 	strb.w	r9, [r8, #1]
     d9c:	f108 0802 	add.w	r8, r8, #2
     da0:	e685      	b.n	aae <__vsnprintf+0x3be>
     da2:	4688      	mov	r8, r1
     da4:	e683      	b.n	aae <__vsnprintf+0x3be>
/media/wen/My_Passport/Raspbian/raspbian-tee/raspbian-tee/optee_os/lib/libutils/ext/snprintk.c:593
     da6:	f1b8 0f00 	cmp.w	r8, #0
     daa:	d006      	beq.n	dba <__vsnprintf+0x6ca>
     dac:	9d0e      	ldr	r5, [sp, #56]	; 0x38
     dae:	4545      	cmp	r5, r8
     db0:	d903      	bls.n	dba <__vsnprintf+0x6ca>
     db2:	f888 4000 	strb.w	r4, [r8]
     db6:	f108 0801 	add.w	r8, r8, #1
     dba:	3901      	subs	r1, #1
     dbc:	e67d      	b.n	aba <__vsnprintf+0x3ca>
/media/wen/My_Passport/Raspbian/raspbian-tee/raspbian-tee/optee_os/lib/libutils/ext/snprintk.c:599
     dbe:	f1b8 0f00 	cmp.w	r8, #0
     dc2:	d006      	beq.n	dd2 <__vsnprintf+0x6e2>
     dc4:	9c0e      	ldr	r4, [sp, #56]	; 0x38
     dc6:	4544      	cmp	r4, r8
     dc8:	d903      	bls.n	dd2 <__vsnprintf+0x6e2>
     dca:	f888 1000 	strb.w	r1, [r8]
     dce:	f108 0801 	add.w	r8, r8, #1
     dd2:	3801      	subs	r0, #1
     dd4:	e677      	b.n	ac6 <__vsnprintf+0x3d6>
/media/wen/My_Passport/Raspbian/raspbian-tee/raspbian-tee/optee_os/lib/libutils/ext/snprintk.c:603
     dd6:	f1b8 0f00 	cmp.w	r8, #0
     dda:	d007      	beq.n	dec <__vsnprintf+0x6fc>
     ddc:	980e      	ldr	r0, [sp, #56]	; 0x38
     dde:	4540      	cmp	r0, r8
     de0:	d904      	bls.n	dec <__vsnprintf+0x6fc>
     de2:	7818      	ldrb	r0, [r3, #0]
     de4:	f108 0801 	add.w	r8, r8, #1
     de8:	f808 0c01 	strb.w	r0, [r8, #-1]
/media/wen/My_Passport/Raspbian/raspbian-tee/raspbian-tee/optee_os/lib/libutils/ext/snprintk.c:602
     dec:	3301      	adds	r3, #1
     dee:	e66f      	b.n	ad0 <__vsnprintf+0x3e0>
__vsnprintf():
/media/wen/My_Passport/Raspbian/raspbian-tee/raspbian-tee/optee_os/lib/libutils/ext/snprintk.c:148
     df0:	990c      	ldr	r1, [sp, #48]	; 0x30
     df2:	5453      	strb	r3, [r2, r1]
/media/wen/My_Passport/Raspbian/raspbian-tee/raspbian-tee/optee_os/lib/libutils/ext/snprintk.c:150
     df4:	e4a1      	b.n	73a <__vsnprintf+0x4a>
kprintf():
/media/wen/My_Passport/Raspbian/raspbian-tee/raspbian-tee/optee_os/lib/libutils/ext/snprintk.c:489
     df6:	f426 6680 	bic.w	r6, r6, #1024	; 0x400
/media/wen/My_Passport/Raspbian/raspbian-tee/raspbian-tee/optee_os/lib/libutils/ext/snprintk.c:482
     dfa:	f04f 0a00 	mov.w	sl, #0
/media/wen/My_Passport/Raspbian/raspbian-tee/raspbian-tee/optee_os/lib/libutils/ext/snprintk.c:476
     dfe:	2302      	movs	r3, #2
     e00:	e52c      	b.n	85c <__vsnprintf+0x16c>
/media/wen/My_Passport/Raspbian/raspbian-tee/raspbian-tee/optee_os/lib/libutils/ext/snprintk.c:488
     e02:	f1bb 3fff 	cmp.w	fp, #4294967295
     e06:	d1f6      	bne.n	df6 <__vsnprintf+0x706>
     e08:	f04f 3bff 	mov.w	fp, #4294967295
     e0c:	e728      	b.n	c60 <__vsnprintf+0x570>
     e0e:	bf00      	nop
     e10:	00005a97 	.word	0x00005a97
     e14:	00005a17 	.word	0x00005a17
     e18:	00005790 	.word	0x00005790
     e1c:	0000574f 	.word	0x0000574f
     e20:	000056bf 	.word	0x000056bf

00000e24 <vsnprintk>:
vsnprintk():
/media/wen/My_Passport/Raspbian/raspbian-tee/raspbian-tee/optee_os/lib/libutils/ext/snprintk.c:129
     e24:	b513      	push	{r0, r1, r4, lr}
/media/wen/My_Passport/Raspbian/raspbian-tee/raspbian-tee/optee_os/lib/libutils/ext/snprintk.c:130
     e26:	2401      	movs	r4, #1
     e28:	9400      	str	r4, [sp, #0]
     e2a:	f7ff fc61 	bl	6f0 <__vsnprintf>
/media/wen/My_Passport/Raspbian/raspbian-tee/raspbian-tee/optee_os/lib/libutils/ext/snprintk.c:131
     e2e:	b002      	add	sp, #8
     e30:	bd10      	pop	{r4, pc}

00000e32 <snprintk>:
snprintk():
/media/wen/My_Passport/Raspbian/raspbian-tee/raspbian-tee/optee_os/lib/libutils/ext/snprintk.c:112
     e32:	b40c      	push	{r2, r3}
     e34:	b507      	push	{r0, r1, r2, lr}
     e36:	ab04      	add	r3, sp, #16
     e38:	f853 2b04 	ldr.w	r2, [r3], #4
/media/wen/My_Passport/Raspbian/raspbian-tee/raspbian-tee/optee_os/lib/libutils/ext/snprintk.c:116
     e3c:	9301      	str	r3, [sp, #4]
/media/wen/My_Passport/Raspbian/raspbian-tee/raspbian-tee/optee_os/lib/libutils/ext/snprintk.c:117
     e3e:	f7ff fff1 	bl	e24 <vsnprintk>
/media/wen/My_Passport/Raspbian/raspbian-tee/raspbian-tee/optee_os/lib/libutils/ext/snprintk.c:121
     e42:	b003      	add	sp, #12
     e44:	f85d eb04 	ldr.w	lr, [sp], #4
     e48:	b002      	add	sp, #8
     e4a:	4770      	bx	lr

00000e4c <__aeabi_ldivmod>:
__aeabi_ldivmod():
/media/wen/My_Passport/Raspbian/raspbian-tee/raspbian-tee/optee_os/lib/libutils/isoc/arch/arm/arm32_aeabi_ldivmod_a32.S:24
     e4c:	e92d5000 	push	{ip, lr}
/media/wen/My_Passport/Raspbian/raspbian-tee/raspbian-tee/optee_os/lib/libutils/isoc/arch/arm/arm32_aeabi_ldivmod_a32.S:26
     e50:	e92d000f 	push	{r0, r1, r2, r3}
/media/wen/My_Passport/Raspbian/raspbian-tee/raspbian-tee/optee_os/lib/libutils/isoc/arch/arm/arm32_aeabi_ldivmod_a32.S:28
     e54:	e1a0000d 	mov	r0, sp
/media/wen/My_Passport/Raspbian/raspbian-tee/raspbian-tee/optee_os/lib/libutils/isoc/arch/arm/arm32_aeabi_ldivmod_a32.S:29
     e58:	fa0013d6 	blx	5db8 <__l_divmod>
/media/wen/My_Passport/Raspbian/raspbian-tee/raspbian-tee/optee_os/lib/libutils/isoc/arch/arm/arm32_aeabi_ldivmod_a32.S:30
     e5c:	e8bd000f 	pop	{r0, r1, r2, r3}
/media/wen/My_Passport/Raspbian/raspbian-tee/raspbian-tee/optee_os/lib/libutils/isoc/arch/arm/arm32_aeabi_ldivmod_a32.S:31
     e60:	e8bd9000 	pop	{ip, pc}

00000e64 <__aeabi_uldivmod>:
__aeabi_uldivmod():
/media/wen/My_Passport/Raspbian/raspbian-tee/raspbian-tee/optee_os/lib/libutils/isoc/arch/arm/arm32_aeabi_ldivmod_a32.S:42
     e64:	e92d5000 	push	{ip, lr}
/media/wen/My_Passport/Raspbian/raspbian-tee/raspbian-tee/optee_os/lib/libutils/isoc/arch/arm/arm32_aeabi_ldivmod_a32.S:44
     e68:	e92d000f 	push	{r0, r1, r2, r3}
/media/wen/My_Passport/Raspbian/raspbian-tee/raspbian-tee/optee_os/lib/libutils/isoc/arch/arm/arm32_aeabi_ldivmod_a32.S:46
     e6c:	e1a0000d 	mov	r0, sp
/media/wen/My_Passport/Raspbian/raspbian-tee/raspbian-tee/optee_os/lib/libutils/isoc/arch/arm/arm32_aeabi_ldivmod_a32.S:47
     e70:	fa0013b3 	blx	5d44 <__ul_divmod>
/media/wen/My_Passport/Raspbian/raspbian-tee/raspbian-tee/optee_os/lib/libutils/isoc/arch/arm/arm32_aeabi_ldivmod_a32.S:48
     e74:	e8bd000f 	pop	{r0, r1, r2, r3}
/media/wen/My_Passport/Raspbian/raspbian-tee/raspbian-tee/optee_os/lib/libutils/isoc/arch/arm/arm32_aeabi_ldivmod_a32.S:49
     e78:	e8bd9000 	pop	{ip, pc}

00000e7c <trace_ext_puts>:
trace_ext_puts():
/media/wen/My_Passport/Raspbian/raspbian-tee/raspbian-tee/optee_os/lib/libutee/trace_ext.c:17
     e7c:	b510      	push	{r4, lr}
     e7e:	4604      	mov	r4, r0
/media/wen/My_Passport/Raspbian/raspbian-tee/raspbian-tee/optee_os/lib/libutee/trace_ext.c:18
     e80:	f004 ff58 	bl	5d34 <strlen>
     e84:	4601      	mov	r1, r0
     e86:	4620      	mov	r0, r4
/media/wen/My_Passport/Raspbian/raspbian-tee/raspbian-tee/optee_os/lib/libutee/trace_ext.c:19
     e88:	e8bd 4010 	ldmia.w	sp!, {r4, lr}
/media/wen/My_Passport/Raspbian/raspbian-tee/raspbian-tee/optee_os/lib/libutee/trace_ext.c:18
     e8c:	f005 b864 	b.w	5f58 <__utee_log_from_thumb>

00000e90 <trace_ext_get_thread_id>:
trace_ext_get_thread_id():
/media/wen/My_Passport/Raspbian/raspbian-tee/raspbian-tee/optee_os/lib/libutee/trace_ext.c:24
     e90:	f04f 30ff 	mov.w	r0, #4294967295
     e94:	4770      	bx	lr

00000e96 <printf>:
printf():
/media/wen/My_Passport/Raspbian/raspbian-tee/raspbian-tee/optee_os/lib/libutee/trace_ext.c:32
     e96:	b40f      	push	{r0, r1, r2, r3}
     e98:	b530      	push	{r4, r5, lr}
     e9a:	b0c3      	sub	sp, #268	; 0x10c
/media/wen/My_Passport/Raspbian/raspbian-tee/raspbian-tee/optee_os/lib/libutee/trace_ext.c:37
     e9c:	f7ff fb7c 	bl	598 <trace_get_level>
     ea0:	2800      	cmp	r0, #0
     ea2:	dd13      	ble.n	ecc <printf+0x36>
/media/wen/My_Passport/Raspbian/raspbian-tee/raspbian-tee/optee_os/lib/libutee/trace_ext.c:41
     ea4:	ad02      	add	r5, sp, #8
/media/wen/My_Passport/Raspbian/raspbian-tee/raspbian-tee/optee_os/lib/libutee/trace_ext.c:40
     ea6:	ab47      	add	r3, sp, #284	; 0x11c
/media/wen/My_Passport/Raspbian/raspbian-tee/raspbian-tee/optee_os/lib/libutee/trace_ext.c:41
     ea8:	9a46      	ldr	r2, [sp, #280]	; 0x118
     eaa:	f44f 7180 	mov.w	r1, #256	; 0x100
     eae:	4628      	mov	r0, r5
/media/wen/My_Passport/Raspbian/raspbian-tee/raspbian-tee/optee_os/lib/libutee/trace_ext.c:40
     eb0:	9301      	str	r3, [sp, #4]
/media/wen/My_Passport/Raspbian/raspbian-tee/raspbian-tee/optee_os/lib/libutee/trace_ext.c:41
     eb2:	f005 f808 	bl	5ec6 <vsnprintf>
/media/wen/My_Passport/Raspbian/raspbian-tee/raspbian-tee/optee_os/lib/libutee/trace_ext.c:44
     eb6:	1e04      	subs	r4, r0, #0
     eb8:	db02      	blt.n	ec0 <printf+0x2a>
/media/wen/My_Passport/Raspbian/raspbian-tee/raspbian-tee/optee_os/lib/libutee/trace_ext.c:47
     eba:	4628      	mov	r0, r5
     ebc:	f7ff ffde 	bl	e7c <trace_ext_puts>
/media/wen/My_Passport/Raspbian/raspbian-tee/raspbian-tee/optee_os/lib/libutee/trace_ext.c:50
     ec0:	4620      	mov	r0, r4
     ec2:	b043      	add	sp, #268	; 0x10c
     ec4:	e8bd 4030 	ldmia.w	sp!, {r4, r5, lr}
     ec8:	b004      	add	sp, #16
     eca:	4770      	bx	lr
/media/wen/My_Passport/Raspbian/raspbian-tee/raspbian-tee/optee_os/lib/libutee/trace_ext.c:38
     ecc:	2400      	movs	r4, #0
     ece:	e7f7      	b.n	ec0 <printf+0x2a>

00000ed0 <puts>:
puts():
/media/wen/My_Passport/Raspbian/raspbian-tee/raspbian-tee/optee_os/lib/libutee/trace_ext.c:53
     ed0:	b510      	push	{r4, lr}
     ed2:	4604      	mov	r4, r0
/media/wen/My_Passport/Raspbian/raspbian-tee/raspbian-tee/optee_os/lib/libutee/trace_ext.c:54
     ed4:	f7ff fb60 	bl	598 <trace_get_level>
     ed8:	2800      	cmp	r0, #0
     eda:	dd06      	ble.n	eea <puts+0x1a>
/media/wen/My_Passport/Raspbian/raspbian-tee/raspbian-tee/optee_os/lib/libutee/trace_ext.c:55
     edc:	4620      	mov	r0, r4
     ede:	f7ff ffcd 	bl	e7c <trace_ext_puts>
/media/wen/My_Passport/Raspbian/raspbian-tee/raspbian-tee/optee_os/lib/libutee/trace_ext.c:56
     ee2:	4803      	ldr	r0, [pc, #12]	; (ef0 <puts+0x20>)
     ee4:	4478      	add	r0, pc
     ee6:	f7ff ffc9 	bl	e7c <trace_ext_puts>
/media/wen/My_Passport/Raspbian/raspbian-tee/raspbian-tee/optee_os/lib/libutee/trace_ext.c:59
     eea:	2001      	movs	r0, #1
     eec:	bd10      	pop	{r4, pc}
     eee:	bf00      	nop
     ef0:	00005b80 	.word	0x00005b80

00000ef4 <putchar>:
putchar():
/media/wen/My_Passport/Raspbian/raspbian-tee/raspbian-tee/optee_os/lib/libutee/trace_ext.c:62
     ef4:	b513      	push	{r0, r1, r4, lr}
/media/wen/My_Passport/Raspbian/raspbian-tee/raspbian-tee/optee_os/lib/libutee/trace_ext.c:63
     ef6:	2300      	movs	r3, #0
/media/wen/My_Passport/Raspbian/raspbian-tee/raspbian-tee/optee_os/lib/libutee/trace_ext.c:62
     ef8:	4604      	mov	r4, r0
/media/wen/My_Passport/Raspbian/raspbian-tee/raspbian-tee/optee_os/lib/libutee/trace_ext.c:63
     efa:	f88d 0004 	strb.w	r0, [sp, #4]
     efe:	f88d 3005 	strb.w	r3, [sp, #5]
/media/wen/My_Passport/Raspbian/raspbian-tee/raspbian-tee/optee_os/lib/libutee/trace_ext.c:65
     f02:	f7ff fb49 	bl	598 <trace_get_level>
     f06:	2800      	cmp	r0, #0
     f08:	dd02      	ble.n	f10 <putchar+0x1c>
/media/wen/My_Passport/Raspbian/raspbian-tee/raspbian-tee/optee_os/lib/libutee/trace_ext.c:66
     f0a:	a801      	add	r0, sp, #4
     f0c:	f7ff ffb6 	bl	e7c <trace_ext_puts>
/media/wen/My_Passport/Raspbian/raspbian-tee/raspbian-tee/optee_os/lib/libutee/trace_ext.c:73
     f10:	b2e0      	uxtb	r0, r4
     f12:	b002      	add	sp, #8
     f14:	bd10      	pop	{r4, pc}
     f16:	bf00      	nop

00000f18 <__utee_from_param>:
__utee_from_param():
/media/wen/My_Passport/Raspbian/raspbian-tee/raspbian-tee/optee_os/lib/libutee/tee_api.c:23
     f18:	2300      	movs	r3, #0
/media/wen/My_Passport/Raspbian/raspbian-tee/raspbian-tee/optee_os/lib/libutee/tee_api.c:20
     f1a:	b5f0      	push	{r4, r5, r6, r7, lr}
     f1c:	4696      	mov	lr, r2
     f1e:	4615      	mov	r5, r2
/media/wen/My_Passport/Raspbian/raspbian-tee/raspbian-tee/optee_os/lib/libutee/tee_api.c:39
     f20:	2600      	movs	r6, #0
     f22:	2700      	movs	r7, #0
/media/wen/My_Passport/Raspbian/raspbian-tee/raspbian-tee/optee_os/lib/libutee/tee_api.c:35
     f24:	461a      	mov	r2, r3
/media/wen/My_Passport/Raspbian/raspbian-tee/raspbian-tee/optee_os/lib/libutee/tee_api.c:23
     f26:	e880 000a 	stmia.w	r0, {r1, r3}
/media/wen/My_Passport/Raspbian/raspbian-tee/raspbian-tee/optee_os/lib/libutee/tee_api.c:25
     f2a:	fa21 f403 	lsr.w	r4, r1, r3
     f2e:	f004 040f 	and.w	r4, r4, #15
     f32:	3c01      	subs	r4, #1
     f34:	2c06      	cmp	r4, #6
     f36:	d813      	bhi.n	f60 <__utee_from_param+0x48>
     f38:	e8df f004 	tbb	[pc, r4]
     f3c:	12040404 	.word	0x12040404
     f40:	0404      	.short	0x0404
     f42:	04          	.byte	0x04
     f43:	00          	.byte	0x00
/media/wen/My_Passport/Raspbian/raspbian-tee/raspbian-tee/optee_os/lib/libutee/tee_api.c:35
     f44:	f85e 4013 	ldr.w	r4, [lr, r3, lsl #1]
     f48:	60c2      	str	r2, [r0, #12]
     f4a:	6084      	str	r4, [r0, #8]
/media/wen/My_Passport/Raspbian/raspbian-tee/raspbian-tee/optee_os/lib/libutee/tee_api.c:36
     f4c:	686c      	ldr	r4, [r5, #4]
     f4e:	6142      	str	r2, [r0, #20]
     f50:	6104      	str	r4, [r0, #16]
     f52:	3304      	adds	r3, #4
     f54:	3508      	adds	r5, #8
/media/wen/My_Passport/Raspbian/raspbian-tee/raspbian-tee/optee_os/lib/libutee/tee_api.c:24 (discriminator 2)
     f56:	2b10      	cmp	r3, #16
     f58:	f100 0010 	add.w	r0, r0, #16
     f5c:	d1e5      	bne.n	f2a <__utee_from_param+0x12>
/media/wen/My_Passport/Raspbian/raspbian-tee/raspbian-tee/optee_os/lib/libutee/tee_api.c:44
     f5e:	bdf0      	pop	{r4, r5, r6, r7, pc}
/media/wen/My_Passport/Raspbian/raspbian-tee/raspbian-tee/optee_os/lib/libutee/tee_api.c:39
     f60:	e9c0 6702 	strd	r6, r7, [r0, #8]
/media/wen/My_Passport/Raspbian/raspbian-tee/raspbian-tee/optee_os/lib/libutee/tee_api.c:40
     f64:	e9c0 6704 	strd	r6, r7, [r0, #16]
/media/wen/My_Passport/Raspbian/raspbian-tee/raspbian-tee/optee_os/lib/libutee/tee_api.c:41
     f68:	e7f3      	b.n	f52 <__utee_from_param+0x3a>

00000f6a <__utee_to_param>:
__utee_to_param():
/media/wen/My_Passport/Raspbian/raspbian-tee/raspbian-tee/optee_os/lib/libutee/tee_api.c:48
     f6a:	b5f0      	push	{r4, r5, r6, r7, lr}
/media/wen/My_Passport/Raspbian/raspbian-tee/raspbian-tee/optee_os/lib/libutee/tee_api.c:50
     f6c:	2300      	movs	r3, #0
     f6e:	6816      	ldr	r6, [r2, #0]
     f70:	4605      	mov	r5, r0
/media/wen/My_Passport/Raspbian/raspbian-tee/raspbian-tee/optee_os/lib/libutee/tee_api.c:56
     f72:	fa26 f403 	lsr.w	r4, r6, r3
/media/wen/My_Passport/Raspbian/raspbian-tee/raspbian-tee/optee_os/lib/libutee/tee_api.c:53
     f76:	f8d2 e008 	ldr.w	lr, [r2, #8]
/media/wen/My_Passport/Raspbian/raspbian-tee/raspbian-tee/optee_os/lib/libutee/tee_api.c:56
     f7a:	f004 040f 	and.w	r4, r4, #15
/media/wen/My_Passport/Raspbian/raspbian-tee/raspbian-tee/optee_os/lib/libutee/tee_api.c:54
     f7e:	6917      	ldr	r7, [r2, #16]
/media/wen/My_Passport/Raspbian/raspbian-tee/raspbian-tee/optee_os/lib/libutee/tee_api.c:56
     f80:	3c01      	subs	r4, #1
     f82:	2c06      	cmp	r4, #6
     f84:	d808      	bhi.n	f98 <__utee_to_param+0x2e>
     f86:	e8df f004 	tbb	[pc, r4]
     f8a:	0404      	.short	0x0404
     f8c:	04040704 	.word	0x04040704
     f90:	04          	.byte	0x04
     f91:	00          	.byte	0x00
/media/wen/My_Passport/Raspbian/raspbian-tee/raspbian-tee/optee_os/lib/libutee/tee_api.c:66
     f92:	f840 e013 	str.w	lr, [r0, r3, lsl #1]
/media/wen/My_Passport/Raspbian/raspbian-tee/raspbian-tee/optee_os/lib/libutee/tee_api.c:67
     f96:	606f      	str	r7, [r5, #4]
     f98:	3304      	adds	r3, #4
     f9a:	3210      	adds	r2, #16
/media/wen/My_Passport/Raspbian/raspbian-tee/raspbian-tee/optee_os/lib/libutee/tee_api.c:52 (discriminator 2)
     f9c:	2b10      	cmp	r3, #16
     f9e:	f105 0508 	add.w	r5, r5, #8
     fa2:	d1e6      	bne.n	f72 <__utee_to_param+0x8>
/media/wen/My_Passport/Raspbian/raspbian-tee/raspbian-tee/optee_os/lib/libutee/tee_api.c:74
     fa4:	b101      	cbz	r1, fa8 <__utee_to_param+0x3e>
/media/wen/My_Passport/Raspbian/raspbian-tee/raspbian-tee/optee_os/lib/libutee/tee_api.c:75
     fa6:	600e      	str	r6, [r1, #0]
     fa8:	bdf0      	pop	{r4, r5, r6, r7, pc}

00000faa <TEE_OpenTASession>:
TEE_OpenTASession():
/media/wen/My_Passport/Raspbian/raspbian-tee/raspbian-tee/optee_os/lib/libutee/tee_api.c:84
     faa:	b5f0      	push	{r4, r5, r6, r7, lr}
     fac:	4605      	mov	r5, r0
     fae:	460f      	mov	r7, r1
     fb0:	b097      	sub	sp, #92	; 0x5c
     fb2:	4611      	mov	r1, r2
/media/wen/My_Passport/Raspbian/raspbian-tee/raspbian-tee/optee_os/lib/libutee/tee_api.c:89
     fb4:	ac04      	add	r4, sp, #16
     fb6:	461a      	mov	r2, r3
     fb8:	4620      	mov	r0, r4
/media/wen/My_Passport/Raspbian/raspbian-tee/raspbian-tee/optee_os/lib/libutee/tee_api.c:84
     fba:	461e      	mov	r6, r3
/media/wen/My_Passport/Raspbian/raspbian-tee/raspbian-tee/optee_os/lib/libutee/tee_api.c:89
     fbc:	f7ff ffac 	bl	f18 <__utee_from_param>
/media/wen/My_Passport/Raspbian/raspbian-tee/raspbian-tee/optee_os/lib/libutee/tee_api.c:90
     fc0:	9b1d      	ldr	r3, [sp, #116]	; 0x74
     fc2:	4622      	mov	r2, r4
     fc4:	4639      	mov	r1, r7
     fc6:	9300      	str	r3, [sp, #0]
     fc8:	4628      	mov	r0, r5
     fca:	ab03      	add	r3, sp, #12
     fcc:	f000 ea60 	blx	1490 <utee_open_ta_session>
     fd0:	4605      	mov	r5, r0
/media/wen/My_Passport/Raspbian/raspbian-tee/raspbian-tee/optee_os/lib/libutee/tee_api.c:92
     fd2:	4622      	mov	r2, r4
     fd4:	2100      	movs	r1, #0
     fd6:	4630      	mov	r0, r6
     fd8:	f7ff ffc7 	bl	f6a <__utee_to_param>
/media/wen/My_Passport/Raspbian/raspbian-tee/raspbian-tee/optee_os/lib/libutee/tee_api.c:98
     fdc:	b10d      	cbz	r5, fe2 <TEE_OpenTASession+0x38>
/media/wen/My_Passport/Raspbian/raspbian-tee/raspbian-tee/optee_os/lib/libutee/tee_api.c:99
     fde:	2300      	movs	r3, #0
     fe0:	9303      	str	r3, [sp, #12]
/media/wen/My_Passport/Raspbian/raspbian-tee/raspbian-tee/optee_os/lib/libutee/tee_api.c:101
     fe2:	9b1c      	ldr	r3, [sp, #112]	; 0x70
/media/wen/My_Passport/Raspbian/raspbian-tee/raspbian-tee/optee_os/lib/libutee/tee_api.c:103
     fe4:	4628      	mov	r0, r5
/media/wen/My_Passport/Raspbian/raspbian-tee/raspbian-tee/optee_os/lib/libutee/tee_api.c:101
     fe6:	9a03      	ldr	r2, [sp, #12]
     fe8:	601a      	str	r2, [r3, #0]
/media/wen/My_Passport/Raspbian/raspbian-tee/raspbian-tee/optee_os/lib/libutee/tee_api.c:103
     fea:	b017      	add	sp, #92	; 0x5c
     fec:	bdf0      	pop	{r4, r5, r6, r7, pc}

00000fee <TEE_CloseTASession>:
TEE_CloseTASession():
/media/wen/My_Passport/Raspbian/raspbian-tee/raspbian-tee/optee_os/lib/libutee/tee_api.c:106
     fee:	b508      	push	{r3, lr}
/media/wen/My_Passport/Raspbian/raspbian-tee/raspbian-tee/optee_os/lib/libutee/tee_api.c:107
     ff0:	b130      	cbz	r0, 1000 <TEE_CloseTASession+0x12>
/media/wen/My_Passport/Raspbian/raspbian-tee/raspbian-tee/optee_os/lib/libutee/tee_api.c:108
     ff2:	f000 ea5a 	blx	14a8 <utee_close_ta_session>
/media/wen/My_Passport/Raspbian/raspbian-tee/raspbian-tee/optee_os/lib/libutee/tee_api.c:110
     ff6:	b118      	cbz	r0, 1000 <TEE_CloseTASession+0x12>
/media/wen/My_Passport/Raspbian/raspbian-tee/raspbian-tee/optee_os/lib/libutee/tee_api.c:113
     ff8:	e8bd 4008 	ldmia.w	sp!, {r3, lr}
/media/wen/My_Passport/Raspbian/raspbian-tee/raspbian-tee/optee_os/lib/libutee/tee_api.c:111
     ffc:	f004 bf52 	b.w	5ea4 <TEE_Panic>
    1000:	bd08      	pop	{r3, pc}

00001002 <TEE_InvokeTACommand>:
TEE_InvokeTACommand():
/media/wen/My_Passport/Raspbian/raspbian-tee/raspbian-tee/optee_os/lib/libutee/tee_api.c:120
    1002:	e92d 41f0 	stmdb	sp!, {r4, r5, r6, r7, r8, lr}
    1006:	4604      	mov	r4, r0
    1008:	460f      	mov	r7, r1
    100a:	b096      	sub	sp, #88	; 0x58
/media/wen/My_Passport/Raspbian/raspbian-tee/raspbian-tee/optee_os/lib/libutee/tee_api.c:125
    100c:	4619      	mov	r1, r3
    100e:	ad04      	add	r5, sp, #16
/media/wen/My_Passport/Raspbian/raspbian-tee/raspbian-tee/optee_os/lib/libutee/tee_api.c:120
    1010:	4690      	mov	r8, r2
/media/wen/My_Passport/Raspbian/raspbian-tee/raspbian-tee/optee_os/lib/libutee/tee_api.c:125
    1012:	4628      	mov	r0, r5
    1014:	9a1c      	ldr	r2, [sp, #112]	; 0x70
/media/wen/My_Passport/Raspbian/raspbian-tee/raspbian-tee/optee_os/lib/libutee/tee_api.c:120
    1016:	9e1d      	ldr	r6, [sp, #116]	; 0x74
/media/wen/My_Passport/Raspbian/raspbian-tee/raspbian-tee/optee_os/lib/libutee/tee_api.c:125
    1018:	f7ff ff7e 	bl	f18 <__utee_from_param>
/media/wen/My_Passport/Raspbian/raspbian-tee/raspbian-tee/optee_os/lib/libutee/tee_api.c:126
    101c:	ab03      	add	r3, sp, #12
    101e:	4642      	mov	r2, r8
    1020:	9300      	str	r3, [sp, #0]
    1022:	4639      	mov	r1, r7
    1024:	462b      	mov	r3, r5
    1026:	4620      	mov	r0, r4
    1028:	f000 ea48 	blx	14bc <utee_invoke_ta_command>
/media/wen/My_Passport/Raspbian/raspbian-tee/raspbian-tee/optee_os/lib/libutee/tee_api.c:129
    102c:	462a      	mov	r2, r5
/media/wen/My_Passport/Raspbian/raspbian-tee/raspbian-tee/optee_os/lib/libutee/tee_api.c:126
    102e:	4604      	mov	r4, r0
/media/wen/My_Passport/Raspbian/raspbian-tee/raspbian-tee/optee_os/lib/libutee/tee_api.c:129
    1030:	2100      	movs	r1, #0
    1032:	981c      	ldr	r0, [sp, #112]	; 0x70
    1034:	f7ff ff99 	bl	f6a <__utee_to_param>
    1038:	9b03      	ldr	r3, [sp, #12]
/media/wen/My_Passport/Raspbian/raspbian-tee/raspbian-tee/optee_os/lib/libutee/tee_api.c:131
    103a:	b106      	cbz	r6, 103e <TEE_InvokeTACommand+0x3c>
/media/wen/My_Passport/Raspbian/raspbian-tee/raspbian-tee/optee_os/lib/libutee/tee_api.c:132
    103c:	6033      	str	r3, [r6, #0]
/media/wen/My_Passport/Raspbian/raspbian-tee/raspbian-tee/optee_os/lib/libutee/tee_api.c:134
    103e:	2b04      	cmp	r3, #4
    1040:	d009      	beq.n	1056 <TEE_InvokeTACommand+0x54>
/media/wen/My_Passport/Raspbian/raspbian-tee/raspbian-tee/optee_os/lib/libutee/tee_api.c:137
    1042:	b144      	cbz	r4, 1056 <TEE_InvokeTACommand+0x54>
/media/wen/My_Passport/Raspbian/raspbian-tee/raspbian-tee/optee_os/lib/libutee/tee_api.c:137 (discriminator 1)
    1044:	4b06      	ldr	r3, [pc, #24]	; (1060 <TEE_InvokeTACommand+0x5e>)
    1046:	429c      	cmp	r4, r3
    1048:	d005      	beq.n	1056 <TEE_InvokeTACommand+0x54>
/media/wen/My_Passport/Raspbian/raspbian-tee/raspbian-tee/optee_os/lib/libutee/tee_api.c:138
    104a:	4b06      	ldr	r3, [pc, #24]	; (1064 <TEE_InvokeTACommand+0x62>)
    104c:	429c      	cmp	r4, r3
    104e:	d002      	beq.n	1056 <TEE_InvokeTACommand+0x54>
/media/wen/My_Passport/Raspbian/raspbian-tee/raspbian-tee/optee_os/lib/libutee/tee_api.c:140
    1050:	4620      	mov	r0, r4
    1052:	f004 ff27 	bl	5ea4 <TEE_Panic>
/media/wen/My_Passport/Raspbian/raspbian-tee/raspbian-tee/optee_os/lib/libutee/tee_api.c:143
    1056:	4620      	mov	r0, r4
    1058:	b016      	add	sp, #88	; 0x58
    105a:	e8bd 81f0 	ldmia.w	sp!, {r4, r5, r6, r7, r8, pc}
    105e:	bf00      	nop
    1060:	ffff000c 	.word	0xffff000c
    1064:	ffff3024 	.word	0xffff3024

00001068 <TEE_GetCancellationFlag>:
TEE_GetCancellationFlag():
/media/wen/My_Passport/Raspbian/raspbian-tee/raspbian-tee/optee_os/lib/libutee/tee_api.c:148
    1068:	b507      	push	{r0, r1, r2, lr}
/media/wen/My_Passport/Raspbian/raspbian-tee/raspbian-tee/optee_os/lib/libutee/tee_api.c:150
    106a:	a801      	add	r0, sp, #4
    106c:	f000 ea32 	blx	14d4 <utee_get_cancellation_flag>
/media/wen/My_Passport/Raspbian/raspbian-tee/raspbian-tee/optee_os/lib/libutee/tee_api.c:152
    1070:	b108      	cbz	r0, 1076 <TEE_GetCancellationFlag+0xe>
/media/wen/My_Passport/Raspbian/raspbian-tee/raspbian-tee/optee_os/lib/libutee/tee_api.c:153
    1072:	2300      	movs	r3, #0
    1074:	9301      	str	r3, [sp, #4]
/media/wen/My_Passport/Raspbian/raspbian-tee/raspbian-tee/optee_os/lib/libutee/tee_api.c:155
    1076:	9801      	ldr	r0, [sp, #4]
    1078:	3000      	adds	r0, #0
    107a:	bf18      	it	ne
    107c:	2001      	movne	r0, #1
    107e:	b003      	add	sp, #12
    1080:	f85d fb04 	ldr.w	pc, [sp], #4

00001084 <TEE_UnmaskCancellation>:
TEE_UnmaskCancellation():
/media/wen/My_Passport/Raspbian/raspbian-tee/raspbian-tee/optee_os/lib/libutee/tee_api.c:158
    1084:	b507      	push	{r0, r1, r2, lr}
/media/wen/My_Passport/Raspbian/raspbian-tee/raspbian-tee/optee_os/lib/libutee/tee_api.c:160
    1086:	a801      	add	r0, sp, #4
    1088:	f000 ea38 	blx	14fc <utee_unmask_cancellation>
/media/wen/My_Passport/Raspbian/raspbian-tee/raspbian-tee/optee_os/lib/libutee/tee_api.c:162
    108c:	b108      	cbz	r0, 1092 <TEE_UnmaskCancellation+0xe>
/media/wen/My_Passport/Raspbian/raspbian-tee/raspbian-tee/optee_os/lib/libutee/tee_api.c:163
    108e:	f004 ff09 	bl	5ea4 <TEE_Panic>
/media/wen/My_Passport/Raspbian/raspbian-tee/raspbian-tee/optee_os/lib/libutee/tee_api.c:165
    1092:	9801      	ldr	r0, [sp, #4]
    1094:	3000      	adds	r0, #0
    1096:	bf18      	it	ne
    1098:	2001      	movne	r0, #1
    109a:	b003      	add	sp, #12
    109c:	f85d fb04 	ldr.w	pc, [sp], #4

000010a0 <TEE_MaskCancellation>:
TEE_MaskCancellation():
/media/wen/My_Passport/Raspbian/raspbian-tee/raspbian-tee/optee_os/lib/libutee/tee_api.c:168
    10a0:	b507      	push	{r0, r1, r2, lr}
/media/wen/My_Passport/Raspbian/raspbian-tee/raspbian-tee/optee_os/lib/libutee/tee_api.c:170
    10a2:	a801      	add	r0, sp, #4
    10a4:	f000 ea34 	blx	1510 <utee_mask_cancellation>
/media/wen/My_Passport/Raspbian/raspbian-tee/raspbian-tee/optee_os/lib/libutee/tee_api.c:172
    10a8:	b108      	cbz	r0, 10ae <TEE_MaskCancellation+0xe>
/media/wen/My_Passport/Raspbian/raspbian-tee/raspbian-tee/optee_os/lib/libutee/tee_api.c:173
    10aa:	f004 fefb 	bl	5ea4 <TEE_Panic>
/media/wen/My_Passport/Raspbian/raspbian-tee/raspbian-tee/optee_os/lib/libutee/tee_api.c:175
    10ae:	9801      	ldr	r0, [sp, #4]
    10b0:	3000      	adds	r0, #0
    10b2:	bf18      	it	ne
    10b4:	2001      	movne	r0, #1
    10b6:	b003      	add	sp, #12
    10b8:	f85d fb04 	ldr.w	pc, [sp], #4

000010bc <TEE_CheckMemoryAccessRights>:
TEE_CheckMemoryAccessRights():
/media/wen/My_Passport/Raspbian/raspbian-tee/raspbian-tee/optee_os/lib/libutee/tee_api.c:184
    10bc:	b10a      	cbz	r2, 10c2 <TEE_CheckMemoryAccessRights+0x6>
/media/wen/My_Passport/Raspbian/raspbian-tee/raspbian-tee/optee_os/lib/libutee/tee_api.c:188
    10be:	f004 bf3b 	b.w	5f38 <__utee_check_access_rights_from_thumb>
/media/wen/My_Passport/Raspbian/raspbian-tee/raspbian-tee/optee_os/lib/libutee/tee_api.c:200
    10c2:	4610      	mov	r0, r2
    10c4:	4770      	bx	lr

000010c6 <TEE_SetInstanceData>:
TEE_SetInstanceData():
/media/wen/My_Passport/Raspbian/raspbian-tee/raspbian-tee/optee_os/lib/libutee/tee_api.c:204
    10c6:	4b02      	ldr	r3, [pc, #8]	; (10d0 <TEE_SetInstanceData+0xa>)
    10c8:	447b      	add	r3, pc
    10ca:	6018      	str	r0, [r3, #0]
    10cc:	4770      	bx	lr
    10ce:	bf00      	nop
    10d0:	00006fc4 	.word	0x00006fc4

000010d4 <TEE_GetInstanceData>:
TEE_GetInstanceData():
/media/wen/My_Passport/Raspbian/raspbian-tee/raspbian-tee/optee_os/lib/libutee/tee_api.c:210
    10d4:	4b01      	ldr	r3, [pc, #4]	; (10dc <TEE_GetInstanceData+0x8>)
    10d6:	447b      	add	r3, pc
    10d8:	6818      	ldr	r0, [r3, #0]
    10da:	4770      	bx	lr
    10dc:	00006fb6 	.word	0x00006fb6

000010e0 <TEE_MemMove>:
TEE_MemMove():
/media/wen/My_Passport/Raspbian/raspbian-tee/raspbian-tee/optee_os/lib/libutee/tee_api.c:214
    10e0:	f004 bf07 	b.w	5ef2 <memmove>

000010e4 <TEE_MemCompare>:
TEE_MemCompare():
/media/wen/My_Passport/Raspbian/raspbian-tee/raspbian-tee/optee_os/lib/libutee/tee_api.c:219
    10e4:	f004 bef6 	b.w	5ed4 <memcmp>

000010e8 <TEE_MemFill>:
TEE_MemFill():
/media/wen/My_Passport/Raspbian/raspbian-tee/raspbian-tee/optee_os/lib/libutee/tee_api.c:224
    10e8:	f004 be0b 	b.w	5d02 <memset>

000010ec <TEE_GetSystemTime>:
TEE_GetSystemTime():
/media/wen/My_Passport/Raspbian/raspbian-tee/raspbian-tee/optee_os/lib/libutee/tee_api.c:230
    10ec:	b508      	push	{r3, lr}
/media/wen/My_Passport/Raspbian/raspbian-tee/raspbian-tee/optee_os/lib/libutee/tee_api.c:231
    10ee:	4601      	mov	r1, r0
    10f0:	2000      	movs	r0, #0
    10f2:	f000 ea22 	blx	1538 <utee_get_time>
/media/wen/My_Passport/Raspbian/raspbian-tee/raspbian-tee/optee_os/lib/libutee/tee_api.c:233
    10f6:	b118      	cbz	r0, 1100 <TEE_GetSystemTime+0x14>
/media/wen/My_Passport/Raspbian/raspbian-tee/raspbian-tee/optee_os/lib/libutee/tee_api.c:235
    10f8:	e8bd 4008 	ldmia.w	sp!, {r3, lr}
/media/wen/My_Passport/Raspbian/raspbian-tee/raspbian-tee/optee_os/lib/libutee/tee_api.c:234
    10fc:	f004 bed2 	b.w	5ea4 <TEE_Panic>
    1100:	bd08      	pop	{r3, pc}

00001102 <TEE_Wait>:
TEE_Wait():
/media/wen/My_Passport/Raspbian/raspbian-tee/raspbian-tee/optee_os/lib/libutee/tee_api.c:238
    1102:	b510      	push	{r4, lr}
/media/wen/My_Passport/Raspbian/raspbian-tee/raspbian-tee/optee_os/lib/libutee/tee_api.c:239
    1104:	f000 ea0e 	blx	1524 <utee_wait>
/media/wen/My_Passport/Raspbian/raspbian-tee/raspbian-tee/optee_os/lib/libutee/tee_api.c:241
    1108:	4604      	mov	r4, r0
    110a:	b120      	cbz	r0, 1116 <TEE_Wait+0x14>
/media/wen/My_Passport/Raspbian/raspbian-tee/raspbian-tee/optee_os/lib/libutee/tee_api.c:241 (discriminator 1)
    110c:	4b03      	ldr	r3, [pc, #12]	; (111c <TEE_Wait+0x1a>)
    110e:	4298      	cmp	r0, r3
    1110:	d001      	beq.n	1116 <TEE_Wait+0x14>
/media/wen/My_Passport/Raspbian/raspbian-tee/raspbian-tee/optee_os/lib/libutee/tee_api.c:242
    1112:	f004 fec7 	bl	5ea4 <TEE_Panic>
/media/wen/My_Passport/Raspbian/raspbian-tee/raspbian-tee/optee_os/lib/libutee/tee_api.c:245
    1116:	4620      	mov	r0, r4
    1118:	bd10      	pop	{r4, pc}
    111a:	bf00      	nop
    111c:	ffff0002 	.word	0xffff0002

00001120 <TEE_GetTAPersistentTime>:
TEE_GetTAPersistentTime():
/media/wen/My_Passport/Raspbian/raspbian-tee/raspbian-tee/optee_os/lib/libutee/tee_api.c:248
    1120:	b538      	push	{r3, r4, r5, lr}
/media/wen/My_Passport/Raspbian/raspbian-tee/raspbian-tee/optee_os/lib/libutee/tee_api.c:251
    1122:	4601      	mov	r1, r0
/media/wen/My_Passport/Raspbian/raspbian-tee/raspbian-tee/optee_os/lib/libutee/tee_api.c:248
    1124:	4605      	mov	r5, r0
/media/wen/My_Passport/Raspbian/raspbian-tee/raspbian-tee/optee_os/lib/libutee/tee_api.c:251
    1126:	2001      	movs	r0, #1
    1128:	f000 ea06 	blx	1538 <utee_get_time>
/media/wen/My_Passport/Raspbian/raspbian-tee/raspbian-tee/optee_os/lib/libutee/tee_api.c:253
    112c:	4604      	mov	r4, r0
    112e:	b170      	cbz	r0, 114e <TEE_GetTAPersistentTime+0x2e>
/media/wen/My_Passport/Raspbian/raspbian-tee/raspbian-tee/optee_os/lib/libutee/tee_api.c:253 (discriminator 1)
    1130:	4b08      	ldr	r3, [pc, #32]	; (1154 <TEE_GetTAPersistentTime+0x34>)
    1132:	4298      	cmp	r0, r3
    1134:	d00b      	beq.n	114e <TEE_GetTAPersistentTime+0x2e>
/media/wen/My_Passport/Raspbian/raspbian-tee/raspbian-tee/optee_os/lib/libutee/tee_api.c:254
    1136:	2300      	movs	r3, #0
    1138:	602b      	str	r3, [r5, #0]
/media/wen/My_Passport/Raspbian/raspbian-tee/raspbian-tee/optee_os/lib/libutee/tee_api.c:255
    113a:	606b      	str	r3, [r5, #4]
/media/wen/My_Passport/Raspbian/raspbian-tee/raspbian-tee/optee_os/lib/libutee/tee_api.c:258
    113c:	f500 4330 	add.w	r3, r0, #45056	; 0xb000
    1140:	2b01      	cmp	r3, #1
    1142:	d904      	bls.n	114e <TEE_GetTAPersistentTime+0x2e>
/media/wen/My_Passport/Raspbian/raspbian-tee/raspbian-tee/optee_os/lib/libutee/tee_api.c:261
    1144:	4b04      	ldr	r3, [pc, #16]	; (1158 <TEE_GetTAPersistentTime+0x38>)
    1146:	4298      	cmp	r0, r3
    1148:	d001      	beq.n	114e <TEE_GetTAPersistentTime+0x2e>
/media/wen/My_Passport/Raspbian/raspbian-tee/raspbian-tee/optee_os/lib/libutee/tee_api.c:263
    114a:	f004 feab 	bl	5ea4 <TEE_Panic>
/media/wen/My_Passport/Raspbian/raspbian-tee/raspbian-tee/optee_os/lib/libutee/tee_api.c:266
    114e:	4620      	mov	r0, r4
    1150:	bd38      	pop	{r3, r4, r5, pc}
    1152:	bf00      	nop
    1154:	ffff300f 	.word	0xffff300f
    1158:	ffff000c 	.word	0xffff000c

0000115c <TEE_SetTAPersistentTime>:
TEE_SetTAPersistentTime():
/media/wen/My_Passport/Raspbian/raspbian-tee/raspbian-tee/optee_os/lib/libutee/tee_api.c:269
    115c:	b510      	push	{r4, lr}
/media/wen/My_Passport/Raspbian/raspbian-tee/raspbian-tee/optee_os/lib/libutee/tee_api.c:272
    115e:	f000 e9f6 	blx	154c <utee_set_ta_time>
/media/wen/My_Passport/Raspbian/raspbian-tee/raspbian-tee/optee_os/lib/libutee/tee_api.c:274
    1162:	4604      	mov	r4, r0
    1164:	b138      	cbz	r0, 1176 <TEE_SetTAPersistentTime+0x1a>
/media/wen/My_Passport/Raspbian/raspbian-tee/raspbian-tee/optee_os/lib/libutee/tee_api.c:274 (discriminator 1)
    1166:	4b05      	ldr	r3, [pc, #20]	; (117c <TEE_SetTAPersistentTime+0x20>)
    1168:	4298      	cmp	r0, r3
    116a:	d004      	beq.n	1176 <TEE_SetTAPersistentTime+0x1a>
/media/wen/My_Passport/Raspbian/raspbian-tee/raspbian-tee/optee_os/lib/libutee/tee_api.c:275
    116c:	4b04      	ldr	r3, [pc, #16]	; (1180 <TEE_SetTAPersistentTime+0x24>)
    116e:	4298      	cmp	r0, r3
    1170:	d001      	beq.n	1176 <TEE_SetTAPersistentTime+0x1a>
/media/wen/My_Passport/Raspbian/raspbian-tee/raspbian-tee/optee_os/lib/libutee/tee_api.c:277
    1172:	f004 fe97 	bl	5ea4 <TEE_Panic>
/media/wen/My_Passport/Raspbian/raspbian-tee/raspbian-tee/optee_os/lib/libutee/tee_api.c:280
    1176:	4620      	mov	r0, r4
    1178:	bd10      	pop	{r4, pc}
    117a:	bf00      	nop
    117c:	ffff000c 	.word	0xffff000c
    1180:	ffff3041 	.word	0xffff3041

00001184 <TEE_GetREETime>:
TEE_GetREETime():
/media/wen/My_Passport/Raspbian/raspbian-tee/raspbian-tee/optee_os/lib/libutee/tee_api.c:283
    1184:	b508      	push	{r3, lr}
/media/wen/My_Passport/Raspbian/raspbian-tee/raspbian-tee/optee_os/lib/libutee/tee_api.c:284
    1186:	4601      	mov	r1, r0
    1188:	2002      	movs	r0, #2
    118a:	f000 e9d6 	blx	1538 <utee_get_time>
/media/wen/My_Passport/Raspbian/raspbian-tee/raspbian-tee/optee_os/lib/libutee/tee_api.c:286
    118e:	b118      	cbz	r0, 1198 <TEE_GetREETime+0x14>
/media/wen/My_Passport/Raspbian/raspbian-tee/raspbian-tee/optee_os/lib/libutee/tee_api.c:288
    1190:	e8bd 4008 	ldmia.w	sp!, {r3, lr}
/media/wen/My_Passport/Raspbian/raspbian-tee/raspbian-tee/optee_os/lib/libutee/tee_api.c:287
    1194:	f004 be86 	b.w	5ea4 <TEE_Panic>
    1198:	bd08      	pop	{r3, pc}

0000119a <TEE_Malloc>:
TEE_Malloc():
/media/wen/My_Passport/Raspbian/raspbian-tee/raspbian-tee/optee_os/lib/libutee/tee_api.c:291
    119a:	b507      	push	{r0, r1, r2, lr}
/media/wen/My_Passport/Raspbian/raspbian-tee/raspbian-tee/optee_os/lib/libutee/tee_api.c:292
    119c:	b931      	cbnz	r1, 11ac <TEE_Malloc+0x12>
/media/wen/My_Passport/Raspbian/raspbian-tee/raspbian-tee/optee_os/lib/libutee/tee_api.c:293
    119e:	4601      	mov	r1, r0
    11a0:	2001      	movs	r0, #1
/media/wen/My_Passport/Raspbian/raspbian-tee/raspbian-tee/optee_os/lib/libutee/tee_api.c:300
    11a2:	b003      	add	sp, #12
    11a4:	f85d eb04 	ldr.w	lr, [sp], #4
/media/wen/My_Passport/Raspbian/raspbian-tee/raspbian-tee/optee_os/lib/libutee/tee_api.c:293
    11a8:	f004 ba6a 	b.w	5680 <calloc>
/media/wen/My_Passport/Raspbian/raspbian-tee/raspbian-tee/optee_os/lib/libutee/tee_api.c:294
    11ac:	f1b1 4f00 	cmp.w	r1, #2147483648	; 0x80000000
    11b0:	d104      	bne.n	11bc <TEE_Malloc+0x22>
/media/wen/My_Passport/Raspbian/raspbian-tee/raspbian-tee/optee_os/lib/libutee/tee_api.c:300
    11b2:	b003      	add	sp, #12
    11b4:	f85d eb04 	ldr.w	lr, [sp], #4
/media/wen/My_Passport/Raspbian/raspbian-tee/raspbian-tee/optee_os/lib/libutee/tee_api.c:295
    11b8:	f004 ba58 	b.w	566c <malloc>
/media/wen/My_Passport/Raspbian/raspbian-tee/raspbian-tee/optee_os/lib/libutee/tee_api.c:297
    11bc:	4b07      	ldr	r3, [pc, #28]	; (11dc <TEE_Malloc+0x42>)
    11be:	4808      	ldr	r0, [pc, #32]	; (11e0 <TEE_Malloc+0x46>)
    11c0:	447b      	add	r3, pc
    11c2:	9101      	str	r1, [sp, #4]
    11c4:	9300      	str	r3, [sp, #0]
    11c6:	2301      	movs	r3, #1
    11c8:	461a      	mov	r2, r3
    11ca:	f240 1129 	movw	r1, #297	; 0x129
    11ce:	4478      	add	r0, pc
    11d0:	f7ff f9ec 	bl	5ac <trace_printf>
/media/wen/My_Passport/Raspbian/raspbian-tee/raspbian-tee/optee_os/lib/libutee/tee_api.c:300
    11d4:	2000      	movs	r0, #0
    11d6:	b003      	add	sp, #12
    11d8:	f85d fb04 	ldr.w	pc, [sp], #4
    11dc:	0000523e 	.word	0x0000523e
    11e0:	00005225 	.word	0x00005225

000011e4 <TEE_Realloc>:
TEE_Realloc():
/media/wen/My_Passport/Raspbian/raspbian-tee/raspbian-tee/optee_os/lib/libutee/tee_api.c:304
    11e4:	f004 ba70 	b.w	56c8 <realloc>

000011e8 <TEE_Free>:
TEE_Free():
/media/wen/My_Passport/Raspbian/raspbian-tee/raspbian-tee/optee_os/lib/libutee/tee_api.c:309
    11e8:	f004 ba41 	b.w	566e <free>

000011ec <TEE_CacheClean>:
TEE_CacheClean():
/media/wen/My_Passport/Raspbian/raspbian-tee/raspbian-tee/optee_os/lib/libutee/tee_api.c:315
    11ec:	2200      	movs	r2, #0
    11ee:	f004 be9b 	b.w	5f28 <__utee_cache_operation_from_thumb>

000011f2 <TEE_CacheFlush>:
TEE_CacheFlush():
/media/wen/My_Passport/Raspbian/raspbian-tee/raspbian-tee/optee_os/lib/libutee/tee_api.c:319
    11f2:	2201      	movs	r2, #1
    11f4:	f004 be98 	b.w	5f28 <__utee_cache_operation_from_thumb>

000011f8 <TEE_CacheInvalidate>:
TEE_CacheInvalidate():
/media/wen/My_Passport/Raspbian/raspbian-tee/raspbian-tee/optee_os/lib/libutee/tee_api.c:324
    11f8:	2202      	movs	r2, #2
    11fa:	f004 be95 	b.w	5f28 <__utee_cache_operation_from_thumb>
    11fe:	bf00      	nop

00001200 <ta_header_get_session>:
ta_header_get_session():
/media/wen/My_Passport/Raspbian/raspbian-tee/raspbian-tee/optee_os/lib/libutee/arch/arm/user_ta_entry.c:81
    1200:	4b05      	ldr	r3, [pc, #20]	; (1218 <ta_header_get_session+0x18>)
    1202:	447b      	add	r3, pc
    1204:	681b      	ldr	r3, [r3, #0]
/media/wen/My_Passport/Raspbian/raspbian-tee/raspbian-tee/optee_os/lib/libutee/arch/arm/user_ta_entry.c:81 (discriminator 1)
    1206:	b90b      	cbnz	r3, 120c <ta_header_get_session+0xc>
/media/wen/My_Passport/Raspbian/raspbian-tee/raspbian-tee/optee_os/lib/libutee/arch/arm/user_ta_entry.c:86
    1208:	4618      	mov	r0, r3
    120a:	4770      	bx	lr
/media/wen/My_Passport/Raspbian/raspbian-tee/raspbian-tee/optee_os/lib/libutee/arch/arm/user_ta_entry.c:82
    120c:	681a      	ldr	r2, [r3, #0]
    120e:	4282      	cmp	r2, r0
    1210:	d0fa      	beq.n	1208 <ta_header_get_session+0x8>
/media/wen/My_Passport/Raspbian/raspbian-tee/raspbian-tee/optee_os/lib/libutee/arch/arm/user_ta_entry.c:81 (discriminator 2)
    1212:	689b      	ldr	r3, [r3, #8]
    1214:	e7f7      	b.n	1206 <ta_header_get_session+0x6>
    1216:	bf00      	nop
    1218:	00006e66 	.word	0x00006e66

0000121c <ta_header_remove_session>:
ta_header_remove_session():
/media/wen/My_Passport/Raspbian/raspbian-tee/raspbian-tee/optee_os/lib/libutee/arch/arm/user_ta_entry.c:119
    121c:	4b14      	ldr	r3, [pc, #80]	; (1270 <ta_header_remove_session+0x54>)
/media/wen/My_Passport/Raspbian/raspbian-tee/raspbian-tee/optee_os/lib/libutee/arch/arm/user_ta_entry.c:115
    121e:	b510      	push	{r4, lr}
/media/wen/My_Passport/Raspbian/raspbian-tee/raspbian-tee/optee_os/lib/libutee/arch/arm/user_ta_entry.c:119
    1220:	447b      	add	r3, pc
/media/wen/My_Passport/Raspbian/raspbian-tee/raspbian-tee/optee_os/lib/libutee/arch/arm/user_ta_entry.c:115
    1222:	4c14      	ldr	r4, [pc, #80]	; (1274 <ta_header_remove_session+0x58>)
/media/wen/My_Passport/Raspbian/raspbian-tee/raspbian-tee/optee_os/lib/libutee/arch/arm/user_ta_entry.c:119
    1224:	681b      	ldr	r3, [r3, #0]
/media/wen/My_Passport/Raspbian/raspbian-tee/raspbian-tee/optee_os/lib/libutee/arch/arm/user_ta_entry.c:115
    1226:	447c      	add	r4, pc
/media/wen/My_Passport/Raspbian/raspbian-tee/raspbian-tee/optee_os/lib/libutee/arch/arm/user_ta_entry.c:119 (discriminator 1)
    1228:	b903      	cbnz	r3, 122c <ta_header_remove_session+0x10>
    122a:	bd10      	pop	{r4, pc}
/media/wen/My_Passport/Raspbian/raspbian-tee/raspbian-tee/optee_os/lib/libutee/arch/arm/user_ta_entry.c:120
    122c:	681a      	ldr	r2, [r3, #0]
    122e:	4282      	cmp	r2, r0
    1230:	689a      	ldr	r2, [r3, #8]
    1232:	d11b      	bne.n	126c <ta_header_remove_session+0x50>
    1234:	68d9      	ldr	r1, [r3, #12]
/media/wen/My_Passport/Raspbian/raspbian-tee/raspbian-tee/optee_os/lib/libutee/arch/arm/user_ta_entry.c:121
    1236:	b1aa      	cbz	r2, 1264 <ta_header_remove_session+0x48>
/media/wen/My_Passport/Raspbian/raspbian-tee/raspbian-tee/optee_os/lib/libutee/arch/arm/user_ta_entry.c:121 (discriminator 1)
    1238:	60d1      	str	r1, [r2, #12]
/media/wen/My_Passport/Raspbian/raspbian-tee/raspbian-tee/optee_os/lib/libutee/arch/arm/user_ta_entry.c:121 (discriminator 4)
    123a:	68d9      	ldr	r1, [r3, #12]
/media/wen/My_Passport/Raspbian/raspbian-tee/raspbian-tee/optee_os/lib/libutee/arch/arm/user_ta_entry.c:122 (discriminator 4)
    123c:	4618      	mov	r0, r3
/media/wen/My_Passport/Raspbian/raspbian-tee/raspbian-tee/optee_os/lib/libutee/arch/arm/user_ta_entry.c:121 (discriminator 4)
    123e:	600a      	str	r2, [r1, #0]
/media/wen/My_Passport/Raspbian/raspbian-tee/raspbian-tee/optee_os/lib/libutee/arch/arm/user_ta_entry.c:122 (discriminator 4)
    1240:	f7ff ffd2 	bl	11e8 <TEE_Free>
/media/wen/My_Passport/Raspbian/raspbian-tee/raspbian-tee/optee_os/lib/libutee/arch/arm/user_ta_entry.c:127 (discriminator 4)
    1244:	4b0c      	ldr	r3, [pc, #48]	; (1278 <ta_header_remove_session+0x5c>)
    1246:	447b      	add	r3, pc
    1248:	681b      	ldr	r3, [r3, #0]
    124a:	2b00      	cmp	r3, #0
    124c:	d1ed      	bne.n	122a <ta_header_remove_session+0xe>
/media/wen/My_Passport/Raspbian/raspbian-tee/raspbian-tee/optee_os/lib/libutee/arch/arm/user_ta_entry.c:125 (discriminator 1)
    124e:	4b0b      	ldr	r3, [pc, #44]	; (127c <ta_header_remove_session+0x60>)
    1250:	58e3      	ldr	r3, [r4, r3]
    1252:	695b      	ldr	r3, [r3, #20]
    1254:	f003 0314 	and.w	r3, r3, #20
/media/wen/My_Passport/Raspbian/raspbian-tee/raspbian-tee/optee_os/lib/libutee/arch/arm/user_ta_entry.c:127 (discriminator 1)
    1258:	2b14      	cmp	r3, #20
    125a:	d0e6      	beq.n	122a <ta_header_remove_session+0xe>
/media/wen/My_Passport/Raspbian/raspbian-tee/raspbian-tee/optee_os/lib/libutee/arch/arm/user_ta_entry.c:133
    125c:	e8bd 4010 	ldmia.w	sp!, {r4, lr}
uninit_instance():
/media/wen/My_Passport/Raspbian/raspbian-tee/raspbian-tee/optee_os/lib/libutee/arch/arm/user_ta_entry.c:63
    1260:	f7ff b8d2 	b.w	408 <TA_DestroyEntryPoint>
ta_header_remove_session():
/media/wen/My_Passport/Raspbian/raspbian-tee/raspbian-tee/optee_os/lib/libutee/arch/arm/user_ta_entry.c:121 (discriminator 2)
    1264:	4806      	ldr	r0, [pc, #24]	; (1280 <ta_header_remove_session+0x64>)
    1266:	4478      	add	r0, pc
    1268:	6041      	str	r1, [r0, #4]
    126a:	e7e6      	b.n	123a <ta_header_remove_session+0x1e>
/media/wen/My_Passport/Raspbian/raspbian-tee/raspbian-tee/optee_os/lib/libutee/arch/arm/user_ta_entry.c:119 (discriminator 2)
    126c:	4613      	mov	r3, r2
    126e:	e7db      	b.n	1228 <ta_header_remove_session+0xc>
    1270:	00006e48 	.word	0x00006e48
    1274:	00006326 	.word	0x00006326
    1278:	00006e22 	.word	0x00006e22
    127c:	0000002c 	.word	0x0000002c
    1280:	00006e02 	.word	0x00006e02

00001284 <__utee_entry>:
__utee_entry():
/media/wen/My_Passport/Raspbian/raspbian-tee/raspbian-tee/optee_os/lib/libutee/arch/arm/user_ta_entry.c:200
    1284:	b580      	push	{r7, lr}
    1286:	4616      	mov	r6, r2
    1288:	4c5a      	ldr	r4, [pc, #360]	; (13f4 <__utee_entry+0x170>)
    128a:	b08c      	sub	sp, #48	; 0x30
    128c:	460f      	mov	r7, r1
    128e:	447c      	add	r4, pc
    1290:	4698      	mov	r8, r3
/media/wen/My_Passport/Raspbian/raspbian-tee/raspbian-tee/optee_os/lib/libutee/arch/arm/user_ta_entry.c:211
    1292:	2801      	cmp	r0, #1
    1294:	d074      	beq.n	1380 <__utee_entry+0xfc>
    1296:	d307      	bcc.n	12a8 <__utee_entry+0x24>
    1298:	2802      	cmp	r0, #2
    129a:	d07e      	beq.n	139a <__utee_entry+0x116>
/media/wen/My_Passport/Raspbian/raspbian-tee/raspbian-tee/optee_os/lib/libutee/arch/arm/user_ta_entry.c:223
    129c:	2000      	movs	r0, #0
/media/wen/My_Passport/Raspbian/raspbian-tee/raspbian-tee/optee_os/lib/libutee/arch/arm/user_ta_entry.c:222
    129e:	f04f 34ff 	mov.w	r4, #4294967295
/media/wen/My_Passport/Raspbian/raspbian-tee/raspbian-tee/optee_os/lib/libutee/arch/arm/user_ta_entry.c:223
    12a2:	f004 fdff 	bl	5ea4 <TEE_Panic>
/media/wen/My_Passport/Raspbian/raspbian-tee/raspbian-tee/optee_os/lib/libutee/arch/arm/user_ta_entry.c:224
    12a6:	e026      	b.n	12f6 <__utee_entry+0x72>
ta_header_add_session():
/media/wen/My_Passport/Raspbian/raspbian-tee/raspbian-tee/optee_os/lib/libutee/arch/arm/user_ta_entry.c:90
    12a8:	4608      	mov	r0, r1
    12aa:	f7ff ffa9 	bl	1200 <ta_header_get_session>
/media/wen/My_Passport/Raspbian/raspbian-tee/raspbian-tee/optee_os/lib/libutee/arch/arm/user_ta_entry.c:93
    12ae:	2800      	cmp	r0, #0
    12b0:	d138      	bne.n	1324 <__utee_entry+0xa0>
/media/wen/My_Passport/Raspbian/raspbian-tee/raspbian-tee/optee_os/lib/libutee/arch/arm/user_ta_entry.c:96
    12b2:	4b51      	ldr	r3, [pc, #324]	; (13f8 <__utee_entry+0x174>)
    12b4:	447b      	add	r3, pc
    12b6:	781a      	ldrb	r2, [r3, #0]
    12b8:	b13a      	cbz	r2, 12ca <__utee_entry+0x46>
/media/wen/My_Passport/Raspbian/raspbian-tee/raspbian-tee/optee_os/lib/libutee/arch/arm/user_ta_entry.c:103
    12ba:	f04f 4100 	mov.w	r1, #2147483648	; 0x80000000
    12be:	2010      	movs	r0, #16
    12c0:	f7ff ff6b 	bl	119a <TEE_Malloc>
/media/wen/My_Passport/Raspbian/raspbian-tee/raspbian-tee/optee_os/lib/libutee/arch/arm/user_ta_entry.c:105
    12c4:	bb18      	cbnz	r0, 130e <__utee_entry+0x8a>
/media/wen/My_Passport/Raspbian/raspbian-tee/raspbian-tee/optee_os/lib/libutee/arch/arm/user_ta_entry.c:106
    12c6:	4c49      	ldr	r4, [pc, #292]	; (13ec <__utee_entry+0x168>)
    12c8:	e015      	b.n	12f6 <__utee_entry+0x72>
/media/wen/My_Passport/Raspbian/raspbian-tee/raspbian-tee/optee_os/lib/libutee/arch/arm/user_ta_entry.c:97
    12ca:	2201      	movs	r2, #1
    12cc:	701a      	strb	r2, [r3, #0]
init_instance():
/media/wen/My_Passport/Raspbian/raspbian-tee/raspbian-tee/optee_os/lib/libutee/arch/arm/user_ta_entry.c:53
    12ce:	f004 fd0b 	bl	5ce8 <tahead_get_trace_level>
    12d2:	f7ff f951 	bl	578 <trace_set_level>
/media/wen/My_Passport/Raspbian/raspbian-tee/raspbian-tee/optee_os/lib/libutee/arch/arm/user_ta_entry.c:55
    12d6:	4b49      	ldr	r3, [pc, #292]	; (13fc <__utee_entry+0x178>)
    12d8:	4a49      	ldr	r2, [pc, #292]	; (1400 <__utee_entry+0x17c>)
    12da:	58e3      	ldr	r3, [r4, r3]
    12dc:	58a2      	ldr	r2, [r4, r2]
    12de:	4610      	mov	r0, r2
    12e0:	9201      	str	r2, [sp, #4]
    12e2:	6819      	ldr	r1, [r3, #0]
    12e4:	f004 fb6a 	bl	59bc <malloc_add_pool>
/media/wen/My_Passport/Raspbian/raspbian-tee/raspbian-tee/optee_os/lib/libutee/arch/arm/user_ta_entry.c:56
    12e8:	f000 fdc8 	bl	1e7c <_TEE_MathAPI_Init>
/media/wen/My_Passport/Raspbian/raspbian-tee/raspbian-tee/optee_os/lib/libutee/arch/arm/user_ta_entry.c:57
    12ec:	f7ff f88a 	bl	404 <TA_CreateEntryPoint>
ta_header_add_session():
/media/wen/My_Passport/Raspbian/raspbian-tee/raspbian-tee/optee_os/lib/libutee/arch/arm/user_ta_entry.c:99
    12f0:	4604      	mov	r4, r0
    12f2:	2800      	cmp	r0, #0
    12f4:	d0e1      	beq.n	12ba <__utee_entry+0x36>
ta_header_save_params():
/media/wen/My_Passport/Raspbian/raspbian-tee/raspbian-tee/optee_os/lib/libutee/arch/arm/user_ta_entry.c:69
    12f6:	4843      	ldr	r0, [pc, #268]	; (1404 <__utee_entry+0x180>)
    12f8:	2100      	movs	r1, #0
/media/wen/My_Passport/Raspbian/raspbian-tee/raspbian-tee/optee_os/lib/libutee/arch/arm/user_ta_entry.c:74
    12fa:	2220      	movs	r2, #32
/media/wen/My_Passport/Raspbian/raspbian-tee/raspbian-tee/optee_os/lib/libutee/arch/arm/user_ta_entry.c:69
    12fc:	4478      	add	r0, pc
/media/wen/My_Passport/Raspbian/raspbian-tee/raspbian-tee/optee_os/lib/libutee/arch/arm/user_ta_entry.c:74
    12fe:	3008      	adds	r0, #8
/media/wen/My_Passport/Raspbian/raspbian-tee/raspbian-tee/optee_os/lib/libutee/arch/arm/user_ta_entry.c:69
    1300:	f840 1c04 	str.w	r1, [r0, #-4]
/media/wen/My_Passport/Raspbian/raspbian-tee/raspbian-tee/optee_os/lib/libutee/arch/arm/user_ta_entry.c:74
    1304:	f004 fcfd 	bl	5d02 <memset>
__utee_entry():
/media/wen/My_Passport/Raspbian/raspbian-tee/raspbian-tee/optee_os/lib/libutee/arch/arm/user_ta_entry.c:227
    1308:	4620      	mov	r0, r4
    130a:	f000 e88e 	blx	1428 <utee_return>
ta_header_add_session():
/media/wen/My_Passport/Raspbian/raspbian-tee/raspbian-tee/optee_os/lib/libutee/arch/arm/user_ta_entry.c:108
    130e:	2300      	movs	r3, #0
/media/wen/My_Passport/Raspbian/raspbian-tee/raspbian-tee/optee_os/lib/libutee/arch/arm/user_ta_entry.c:107
    1310:	6007      	str	r7, [r0, #0]
/media/wen/My_Passport/Raspbian/raspbian-tee/raspbian-tee/optee_os/lib/libutee/arch/arm/user_ta_entry.c:108
    1312:	6043      	str	r3, [r0, #4]
/media/wen/My_Passport/Raspbian/raspbian-tee/raspbian-tee/optee_os/lib/libutee/arch/arm/user_ta_entry.c:109
    1314:	6083      	str	r3, [r0, #8]
    1316:	4b3c      	ldr	r3, [pc, #240]	; (1408 <__utee_entry+0x184>)
    1318:	447b      	add	r3, pc
    131a:	685a      	ldr	r2, [r3, #4]
    131c:	60c2      	str	r2, [r0, #12]
    131e:	6010      	str	r0, [r2, #0]
    1320:	3008      	adds	r0, #8
    1322:	6058      	str	r0, [r3, #4]
entry_open_session():
/media/wen/My_Passport/Raspbian/raspbian-tee/raspbian-tee/optee_os/lib/libutee/arch/arm/user_ta_entry.c:147
    1324:	4638      	mov	r0, r7
    1326:	f7ff ff6b 	bl	1200 <ta_header_get_session>
/media/wen/My_Passport/Raspbian/raspbian-tee/raspbian-tee/optee_os/lib/libutee/arch/arm/user_ta_entry.c:148
    132a:	4681      	mov	r9, r0
    132c:	b908      	cbnz	r0, 1332 <__utee_entry+0xae>
entry_close_session():
/media/wen/My_Passport/Raspbian/raspbian-tee/raspbian-tee/optee_os/lib/libutee/arch/arm/user_ta_entry.c:169
    132e:	4c30      	ldr	r4, [pc, #192]	; (13f0 <__utee_entry+0x16c>)
    1330:	e7e1      	b.n	12f6 <__utee_entry+0x72>
entry_open_session():
/media/wen/My_Passport/Raspbian/raspbian-tee/raspbian-tee/optee_os/lib/libutee/arch/arm/user_ta_entry.c:151
    1332:	f10d 0810 	add.w	r8, sp, #16
ta_header_save_params():
/media/wen/My_Passport/Raspbian/raspbian-tee/raspbian-tee/optee_os/lib/libutee/arch/arm/user_ta_entry.c:69
    1336:	4c35      	ldr	r4, [pc, #212]	; (140c <__utee_entry+0x188>)
/media/wen/My_Passport/Raspbian/raspbian-tee/raspbian-tee/optee_os/lib/libutee/arch/arm/user_ta_entry.c:72
    1338:	4645      	mov	r5, r8
entry_open_session():
/media/wen/My_Passport/Raspbian/raspbian-tee/raspbian-tee/optee_os/lib/libutee/arch/arm/user_ta_entry.c:151
    133a:	4632      	mov	r2, r6
    133c:	a903      	add	r1, sp, #12
    133e:	4640      	mov	r0, r8
    1340:	f7ff fe13 	bl	f6a <__utee_to_param>
ta_header_save_params():
/media/wen/My_Passport/Raspbian/raspbian-tee/raspbian-tee/optee_os/lib/libutee/arch/arm/user_ta_entry.c:69
    1344:	447c      	add	r4, pc
/media/wen/My_Passport/Raspbian/raspbian-tee/raspbian-tee/optee_os/lib/libutee/arch/arm/user_ta_entry.c:72
    1346:	cd0f      	ldmia	r5!, {r0, r1, r2, r3}
    1348:	3408      	adds	r4, #8
entry_open_session():
/media/wen/My_Passport/Raspbian/raspbian-tee/raspbian-tee/optee_os/lib/libutee/arch/arm/user_ta_entry.c:152
    134a:	f8dd e00c 	ldr.w	lr, [sp, #12]
ta_header_save_params():
/media/wen/My_Passport/Raspbian/raspbian-tee/raspbian-tee/optee_os/lib/libutee/arch/arm/user_ta_entry.c:69
    134e:	f844 ec04 	str.w	lr, [r4, #-4]
/media/wen/My_Passport/Raspbian/raspbian-tee/raspbian-tee/optee_os/lib/libutee/arch/arm/user_ta_entry.c:72
    1352:	c40f      	stmia	r4!, {r0, r1, r2, r3}
    1354:	e895 000f 	ldmia.w	r5, {r0, r1, r2, r3}
    1358:	e884 000f 	stmia.w	r4, {r0, r1, r2, r3}
entry_open_session():
/media/wen/My_Passport/Raspbian/raspbian-tee/raspbian-tee/optee_os/lib/libutee/arch/arm/user_ta_entry.c:154
    135c:	f109 0204 	add.w	r2, r9, #4
    1360:	4641      	mov	r1, r8
    1362:	4670      	mov	r0, lr
    1364:	f7ff f851 	bl	40a <TA_OpenSessionEntryPoint>
    1368:	4604      	mov	r4, r0
/media/wen/My_Passport/Raspbian/raspbian-tee/raspbian-tee/optee_os/lib/libutee/arch/arm/user_ta_entry.c:157
    136a:	4642      	mov	r2, r8
    136c:	9903      	ldr	r1, [sp, #12]
    136e:	4630      	mov	r0, r6
    1370:	f7ff fdd2 	bl	f18 <__utee_from_param>
/media/wen/My_Passport/Raspbian/raspbian-tee/raspbian-tee/optee_os/lib/libutee/arch/arm/user_ta_entry.c:159
    1374:	2c00      	cmp	r4, #0
    1376:	d0be      	beq.n	12f6 <__utee_entry+0x72>
/media/wen/My_Passport/Raspbian/raspbian-tee/raspbian-tee/optee_os/lib/libutee/arch/arm/user_ta_entry.c:160
    1378:	4638      	mov	r0, r7
    137a:	f7ff ff4f 	bl	121c <ta_header_remove_session>
    137e:	e7ba      	b.n	12f6 <__utee_entry+0x72>
entry_close_session():
/media/wen/My_Passport/Raspbian/raspbian-tee/raspbian-tee/optee_os/lib/libutee/arch/arm/user_ta_entry.c:166
    1380:	4608      	mov	r0, r1
    1382:	f7ff ff3d 	bl	1200 <ta_header_get_session>
/media/wen/My_Passport/Raspbian/raspbian-tee/raspbian-tee/optee_os/lib/libutee/arch/arm/user_ta_entry.c:168
    1386:	2800      	cmp	r0, #0
    1388:	d0d1      	beq.n	132e <__utee_entry+0xaa>
/media/wen/My_Passport/Raspbian/raspbian-tee/raspbian-tee/optee_os/lib/libutee/arch/arm/user_ta_entry.c:171
    138a:	6840      	ldr	r0, [r0, #4]
/media/wen/My_Passport/Raspbian/raspbian-tee/raspbian-tee/optee_os/lib/libutee/arch/arm/user_ta_entry.c:174
    138c:	2400      	movs	r4, #0
/media/wen/My_Passport/Raspbian/raspbian-tee/raspbian-tee/optee_os/lib/libutee/arch/arm/user_ta_entry.c:171
    138e:	f7ff f851 	bl	434 <TA_CloseSessionEntryPoint>
/media/wen/My_Passport/Raspbian/raspbian-tee/raspbian-tee/optee_os/lib/libutee/arch/arm/user_ta_entry.c:173
    1392:	4638      	mov	r0, r7
    1394:	f7ff ff42 	bl	121c <ta_header_remove_session>
    1398:	e7ad      	b.n	12f6 <__utee_entry+0x72>
entry_invoke_command():
/media/wen/My_Passport/Raspbian/raspbian-tee/raspbian-tee/optee_os/lib/libutee/arch/arm/user_ta_entry.c:183
    139a:	4608      	mov	r0, r1
    139c:	f7ff ff30 	bl	1200 <ta_header_get_session>
/media/wen/My_Passport/Raspbian/raspbian-tee/raspbian-tee/optee_os/lib/libutee/arch/arm/user_ta_entry.c:185
    13a0:	4681      	mov	r9, r0
    13a2:	2800      	cmp	r0, #0
    13a4:	d0c3      	beq.n	132e <__utee_entry+0xaa>
/media/wen/My_Passport/Raspbian/raspbian-tee/raspbian-tee/optee_os/lib/libutee/arch/arm/user_ta_entry.c:188
    13a6:	af04      	add	r7, sp, #16
ta_header_save_params():
/media/wen/My_Passport/Raspbian/raspbian-tee/raspbian-tee/optee_os/lib/libutee/arch/arm/user_ta_entry.c:69
    13a8:	4c19      	ldr	r4, [pc, #100]	; (1410 <__utee_entry+0x18c>)
/media/wen/My_Passport/Raspbian/raspbian-tee/raspbian-tee/optee_os/lib/libutee/arch/arm/user_ta_entry.c:72
    13aa:	463d      	mov	r5, r7
entry_invoke_command():
/media/wen/My_Passport/Raspbian/raspbian-tee/raspbian-tee/optee_os/lib/libutee/arch/arm/user_ta_entry.c:188
    13ac:	4632      	mov	r2, r6
    13ae:	a903      	add	r1, sp, #12
    13b0:	4638      	mov	r0, r7
    13b2:	f7ff fdda 	bl	f6a <__utee_to_param>
ta_header_save_params():
/media/wen/My_Passport/Raspbian/raspbian-tee/raspbian-tee/optee_os/lib/libutee/arch/arm/user_ta_entry.c:69
    13b6:	447c      	add	r4, pc
/media/wen/My_Passport/Raspbian/raspbian-tee/raspbian-tee/optee_os/lib/libutee/arch/arm/user_ta_entry.c:72
    13b8:	cd0f      	ldmia	r5!, {r0, r1, r2, r3}
    13ba:	3408      	adds	r4, #8
entry_invoke_command():
/media/wen/My_Passport/Raspbian/raspbian-tee/raspbian-tee/optee_os/lib/libutee/arch/arm/user_ta_entry.c:189
    13bc:	f8dd e00c 	ldr.w	lr, [sp, #12]
ta_header_save_params():
/media/wen/My_Passport/Raspbian/raspbian-tee/raspbian-tee/optee_os/lib/libutee/arch/arm/user_ta_entry.c:69
    13c0:	f844 ec04 	str.w	lr, [r4, #-4]
/media/wen/My_Passport/Raspbian/raspbian-tee/raspbian-tee/optee_os/lib/libutee/arch/arm/user_ta_entry.c:72
    13c4:	c40f      	stmia	r4!, {r0, r1, r2, r3}
    13c6:	e895 000f 	ldmia.w	r5, {r0, r1, r2, r3}
    13ca:	e884 000f 	stmia.w	r4, {r0, r1, r2, r3}
entry_invoke_command():
/media/wen/My_Passport/Raspbian/raspbian-tee/raspbian-tee/optee_os/lib/libutee/arch/arm/user_ta_entry.c:191
    13ce:	4672      	mov	r2, lr
    13d0:	4641      	mov	r1, r8
    13d2:	463b      	mov	r3, r7
    13d4:	f8d9 0004 	ldr.w	r0, [r9, #4]
    13d8:	f7ff f82e 	bl	438 <TA_InvokeCommandEntryPoint>
/media/wen/My_Passport/Raspbian/raspbian-tee/raspbian-tee/optee_os/lib/libutee/arch/arm/user_ta_entry.c:194
    13dc:	463a      	mov	r2, r7
/media/wen/My_Passport/Raspbian/raspbian-tee/raspbian-tee/optee_os/lib/libutee/arch/arm/user_ta_entry.c:191
    13de:	4604      	mov	r4, r0
/media/wen/My_Passport/Raspbian/raspbian-tee/raspbian-tee/optee_os/lib/libutee/arch/arm/user_ta_entry.c:194
    13e0:	9903      	ldr	r1, [sp, #12]
    13e2:	4630      	mov	r0, r6
    13e4:	f7ff fd98 	bl	f18 <__utee_from_param>
    13e8:	e785      	b.n	12f6 <__utee_entry+0x72>
    13ea:	bf00      	nop
    13ec:	ffff000c 	.word	0xffff000c
    13f0:	ffff0007 	.word	0xffff0007
    13f4:	000062be 	.word	0x000062be
    13f8:	00006ddc 	.word	0x00006ddc
    13fc:	0000000c 	.word	0x0000000c
    1400:	00000020 	.word	0x00000020
    1404:	00006d94 	.word	0x00006d94
    1408:	00006d50 	.word	0x00006d50
    140c:	00006d4c 	.word	0x00006d4c
    1410:	00006cda 	.word	0x00006cda

00001414 <utee_panic>:
utee_panic():
/media/wen/My_Passport/Raspbian/raspbian-tee/raspbian-tee/optee_os/lib/libutee/arch/arm/utee_syscalls_a32.S:47
    1414:	e92d4fff 	push	{r0, r1, r2, r3, r4, r5, r6, r7, r8, r9, sl, fp, lr}
/media/wen/My_Passport/Raspbian/raspbian-tee/raspbian-tee/optee_os/lib/libutee/arch/arm/utee_syscalls_a32.S:49
    1418:	e1a0e00f 	mov	lr, pc
/media/wen/My_Passport/Raspbian/raspbian-tee/raspbian-tee/optee_os/lib/libutee/arch/arm/utee_syscalls_a32.S:50
    141c:	e52de004 	push	{lr}		; (str lr, [sp, #-4]!)
/media/wen/My_Passport/Raspbian/raspbian-tee/raspbian-tee/optee_os/lib/libutee/arch/arm/utee_syscalls_a32.S:52
    1420:	e1a0100d 	mov	r1, sp
/media/wen/My_Passport/Raspbian/raspbian-tee/raspbian-tee/optee_os/lib/libutee/arch/arm/utee_syscalls_a32.S:53
    1424:	eb000009 	bl	1450 <__utee_panic>

00001428 <utee_return>:
utee_return():
/media/wen/My_Passport/Raspbian/raspbian-tee/raspbian-tee/optee_os/lib/libutee/arch/arm/utee_syscalls_asm.S:8
    1428:	e92d40e0 	push	{r5, r6, r7, lr}
    142c:	e3a07000 	mov	r7, #0
    1430:	e3a06000 	mov	r6, #0
    1434:	ef000000 	svc	0x00000000
    1438:	e8bd80e0 	pop	{r5, r6, r7, pc}

0000143c <utee_log>:
utee_log():
/media/wen/My_Passport/Raspbian/raspbian-tee/raspbian-tee/optee_os/lib/libutee/arch/arm/utee_syscalls_asm.S:10
    143c:	e92d40e0 	push	{r5, r6, r7, lr}
    1440:	e3a07001 	mov	r7, #1
    1444:	e3a06000 	mov	r6, #0
    1448:	ef000000 	svc	0x00000000
    144c:	e8bd80e0 	pop	{r5, r6, r7, pc}

00001450 <__utee_panic>:
__utee_panic():
/media/wen/My_Passport/Raspbian/raspbian-tee/raspbian-tee/optee_os/lib/libutee/arch/arm/utee_syscalls_asm.S:12
    1450:	e92d40e0 	push	{r5, r6, r7, lr}
    1454:	e3a07002 	mov	r7, #2
    1458:	e3a06000 	mov	r6, #0
    145c:	ef000000 	svc	0x00000000
    1460:	e8bd80e0 	pop	{r5, r6, r7, pc}

00001464 <utee_get_property>:
utee_get_property():
/media/wen/My_Passport/Raspbian/raspbian-tee/raspbian-tee/optee_os/lib/libutee/arch/arm/utee_syscalls_asm.S:14
    1464:	e92d40e0 	push	{r5, r6, r7, lr}
    1468:	e3a07003 	mov	r7, #3
    146c:	e3a06003 	mov	r6, #3
    1470:	e28d5010 	add	r5, sp, #16
    1474:	ef000000 	svc	0x00000000
    1478:	e8bd80e0 	pop	{r5, r6, r7, pc}

0000147c <utee_get_property_name_to_index>:
utee_get_property_name_to_index():
/media/wen/My_Passport/Raspbian/raspbian-tee/raspbian-tee/optee_os/lib/libutee/arch/arm/utee_syscalls_asm.S:16
    147c:	e92d40e0 	push	{r5, r6, r7, lr}
    1480:	e3a07004 	mov	r7, #4
    1484:	e3a06000 	mov	r6, #0
    1488:	ef000000 	svc	0x00000000
    148c:	e8bd80e0 	pop	{r5, r6, r7, pc}

00001490 <utee_open_ta_session>:
utee_open_ta_session():
/media/wen/My_Passport/Raspbian/raspbian-tee/raspbian-tee/optee_os/lib/libutee/arch/arm/utee_syscalls_asm.S:19
    1490:	e92d40e0 	push	{r5, r6, r7, lr}
    1494:	e3a07005 	mov	r7, #5
    1498:	e3a06001 	mov	r6, #1
    149c:	e28d5010 	add	r5, sp, #16
    14a0:	ef000000 	svc	0x00000000
    14a4:	e8bd80e0 	pop	{r5, r6, r7, pc}

000014a8 <utee_close_ta_session>:
utee_close_ta_session():
/media/wen/My_Passport/Raspbian/raspbian-tee/raspbian-tee/optee_os/lib/libutee/arch/arm/utee_syscalls_asm.S:21
    14a8:	e92d40e0 	push	{r5, r6, r7, lr}
    14ac:	e3a07006 	mov	r7, #6
    14b0:	e3a06000 	mov	r6, #0
    14b4:	ef000000 	svc	0x00000000
    14b8:	e8bd80e0 	pop	{r5, r6, r7, pc}

000014bc <utee_invoke_ta_command>:
utee_invoke_ta_command():
/media/wen/My_Passport/Raspbian/raspbian-tee/raspbian-tee/optee_os/lib/libutee/arch/arm/utee_syscalls_asm.S:23
    14bc:	e92d40e0 	push	{r5, r6, r7, lr}
    14c0:	e3a07007 	mov	r7, #7
    14c4:	e3a06001 	mov	r6, #1
    14c8:	e28d5010 	add	r5, sp, #16
    14cc:	ef000000 	svc	0x00000000
    14d0:	e8bd80e0 	pop	{r5, r6, r7, pc}

000014d4 <utee_get_cancellation_flag>:
utee_get_cancellation_flag():
/media/wen/My_Passport/Raspbian/raspbian-tee/raspbian-tee/optee_os/lib/libutee/arch/arm/utee_syscalls_asm.S:25
    14d4:	e92d40e0 	push	{r5, r6, r7, lr}
    14d8:	e3a07009 	mov	r7, #9
    14dc:	e3a06000 	mov	r6, #0
    14e0:	ef000000 	svc	0x00000000
    14e4:	e8bd80e0 	pop	{r5, r6, r7, pc}

000014e8 <utee_check_access_rights>:
utee_check_access_rights():
/media/wen/My_Passport/Raspbian/raspbian-tee/raspbian-tee/optee_os/lib/libutee/arch/arm/utee_syscalls_asm.S:28
    14e8:	e92d40e0 	push	{r5, r6, r7, lr}
    14ec:	e3a07008 	mov	r7, #8
    14f0:	e3a06000 	mov	r6, #0
    14f4:	ef000000 	svc	0x00000000
    14f8:	e8bd80e0 	pop	{r5, r6, r7, pc}

000014fc <utee_unmask_cancellation>:
utee_unmask_cancellation():
/media/wen/My_Passport/Raspbian/raspbian-tee/raspbian-tee/optee_os/lib/libutee/arch/arm/utee_syscalls_asm.S:30
    14fc:	e92d40e0 	push	{r5, r6, r7, lr}
    1500:	e3a0700a 	mov	r7, #10
    1504:	e3a06000 	mov	r6, #0
    1508:	ef000000 	svc	0x00000000
    150c:	e8bd80e0 	pop	{r5, r6, r7, pc}

00001510 <utee_mask_cancellation>:
utee_mask_cancellation():
/media/wen/My_Passport/Raspbian/raspbian-tee/raspbian-tee/optee_os/lib/libutee/arch/arm/utee_syscalls_asm.S:32
    1510:	e92d40e0 	push	{r5, r6, r7, lr}
    1514:	e3a0700b 	mov	r7, #11
    1518:	e3a06000 	mov	r6, #0
    151c:	ef000000 	svc	0x00000000
    1520:	e8bd80e0 	pop	{r5, r6, r7, pc}

00001524 <utee_wait>:
utee_wait():
/media/wen/My_Passport/Raspbian/raspbian-tee/raspbian-tee/optee_os/lib/libutee/arch/arm/utee_syscalls_asm.S:34
    1524:	e92d40e0 	push	{r5, r6, r7, lr}
    1528:	e3a0700c 	mov	r7, #12
    152c:	e3a06000 	mov	r6, #0
    1530:	ef000000 	svc	0x00000000
    1534:	e8bd80e0 	pop	{r5, r6, r7, pc}

00001538 <utee_get_time>:
utee_get_time():
/media/wen/My_Passport/Raspbian/raspbian-tee/raspbian-tee/optee_os/lib/libutee/arch/arm/utee_syscalls_asm.S:36
    1538:	e92d40e0 	push	{r5, r6, r7, lr}
    153c:	e3a0700d 	mov	r7, #13
    1540:	e3a06000 	mov	r6, #0
    1544:	ef000000 	svc	0x00000000
    1548:	e8bd80e0 	pop	{r5, r6, r7, pc}

0000154c <utee_set_ta_time>:
utee_set_ta_time():
/media/wen/My_Passport/Raspbian/raspbian-tee/raspbian-tee/optee_os/lib/libutee/arch/arm/utee_syscalls_asm.S:38
    154c:	e92d40e0 	push	{r5, r6, r7, lr}
    1550:	e3a0700e 	mov	r7, #14
    1554:	e3a06000 	mov	r6, #0
    1558:	ef000000 	svc	0x00000000
    155c:	e8bd80e0 	pop	{r5, r6, r7, pc}

00001560 <utee_cryp_state_alloc>:
utee_cryp_state_alloc():
/media/wen/My_Passport/Raspbian/raspbian-tee/raspbian-tee/optee_os/lib/libutee/arch/arm/utee_syscalls_asm.S:40
    1560:	e92d40e0 	push	{r5, r6, r7, lr}
    1564:	e3a0700f 	mov	r7, #15
    1568:	e3a06001 	mov	r6, #1
    156c:	e28d5010 	add	r5, sp, #16
    1570:	ef000000 	svc	0x00000000
    1574:	e8bd80e0 	pop	{r5, r6, r7, pc}

00001578 <utee_cryp_state_copy>:
utee_cryp_state_copy():
/media/wen/My_Passport/Raspbian/raspbian-tee/raspbian-tee/optee_os/lib/libutee/arch/arm/utee_syscalls_asm.S:42
    1578:	e92d40e0 	push	{r5, r6, r7, lr}
    157c:	e3a07010 	mov	r7, #16
    1580:	e3a06000 	mov	r6, #0
    1584:	ef000000 	svc	0x00000000
    1588:	e8bd80e0 	pop	{r5, r6, r7, pc}

0000158c <utee_cryp_state_free>:
utee_cryp_state_free():
/media/wen/My_Passport/Raspbian/raspbian-tee/raspbian-tee/optee_os/lib/libutee/arch/arm/utee_syscalls_asm.S:44
    158c:	e92d40e0 	push	{r5, r6, r7, lr}
    1590:	e3a07011 	mov	r7, #17
    1594:	e3a06000 	mov	r6, #0
    1598:	ef000000 	svc	0x00000000
    159c:	e8bd80e0 	pop	{r5, r6, r7, pc}

000015a0 <utee_hash_init>:
utee_hash_init():
/media/wen/My_Passport/Raspbian/raspbian-tee/raspbian-tee/optee_os/lib/libutee/arch/arm/utee_syscalls_asm.S:46
    15a0:	e92d40e0 	push	{r5, r6, r7, lr}
    15a4:	e3a07012 	mov	r7, #18
    15a8:	e3a06000 	mov	r6, #0
    15ac:	ef000000 	svc	0x00000000
    15b0:	e8bd80e0 	pop	{r5, r6, r7, pc}

000015b4 <utee_hash_update>:
utee_hash_update():
/media/wen/My_Passport/Raspbian/raspbian-tee/raspbian-tee/optee_os/lib/libutee/arch/arm/utee_syscalls_asm.S:48
    15b4:	e92d40e0 	push	{r5, r6, r7, lr}
    15b8:	e3a07013 	mov	r7, #19
    15bc:	e3a06000 	mov	r6, #0
    15c0:	ef000000 	svc	0x00000000
    15c4:	e8bd80e0 	pop	{r5, r6, r7, pc}

000015c8 <utee_hash_final>:
utee_hash_final():
/media/wen/My_Passport/Raspbian/raspbian-tee/raspbian-tee/optee_os/lib/libutee/arch/arm/utee_syscalls_asm.S:50
    15c8:	e92d40e0 	push	{r5, r6, r7, lr}
    15cc:	e3a07014 	mov	r7, #20
    15d0:	e3a06001 	mov	r6, #1
    15d4:	e28d5010 	add	r5, sp, #16
    15d8:	ef000000 	svc	0x00000000
    15dc:	e8bd80e0 	pop	{r5, r6, r7, pc}

000015e0 <utee_cipher_init>:
utee_cipher_init():
/media/wen/My_Passport/Raspbian/raspbian-tee/raspbian-tee/optee_os/lib/libutee/arch/arm/utee_syscalls_asm.S:52
    15e0:	e92d40e0 	push	{r5, r6, r7, lr}
    15e4:	e3a07015 	mov	r7, #21
    15e8:	e3a06000 	mov	r6, #0
    15ec:	ef000000 	svc	0x00000000
    15f0:	e8bd80e0 	pop	{r5, r6, r7, pc}

000015f4 <utee_cipher_update>:
utee_cipher_update():
/media/wen/My_Passport/Raspbian/raspbian-tee/raspbian-tee/optee_os/lib/libutee/arch/arm/utee_syscalls_asm.S:54
    15f4:	e92d40e0 	push	{r5, r6, r7, lr}
    15f8:	e3a07016 	mov	r7, #22
    15fc:	e3a06001 	mov	r6, #1
    1600:	e28d5010 	add	r5, sp, #16
    1604:	ef000000 	svc	0x00000000
    1608:	e8bd80e0 	pop	{r5, r6, r7, pc}

0000160c <utee_cipher_final>:
utee_cipher_final():
/media/wen/My_Passport/Raspbian/raspbian-tee/raspbian-tee/optee_os/lib/libutee/arch/arm/utee_syscalls_asm.S:56
    160c:	e92d40e0 	push	{r5, r6, r7, lr}
    1610:	e3a07017 	mov	r7, #23
    1614:	e3a06001 	mov	r6, #1
    1618:	e28d5010 	add	r5, sp, #16
    161c:	ef000000 	svc	0x00000000
    1620:	e8bd80e0 	pop	{r5, r6, r7, pc}

00001624 <utee_cryp_obj_get_info>:
utee_cryp_obj_get_info():
/media/wen/My_Passport/Raspbian/raspbian-tee/raspbian-tee/optee_os/lib/libutee/arch/arm/utee_syscalls_asm.S:58
    1624:	e92d40e0 	push	{r5, r6, r7, lr}
    1628:	e3a07018 	mov	r7, #24
    162c:	e3a06000 	mov	r6, #0
    1630:	ef000000 	svc	0x00000000
    1634:	e8bd80e0 	pop	{r5, r6, r7, pc}

00001638 <utee_cryp_obj_restrict_usage>:
utee_cryp_obj_restrict_usage():
/media/wen/My_Passport/Raspbian/raspbian-tee/raspbian-tee/optee_os/lib/libutee/arch/arm/utee_syscalls_asm.S:60
    1638:	e92d40e0 	push	{r5, r6, r7, lr}
    163c:	e3a07019 	mov	r7, #25
    1640:	e3a06000 	mov	r6, #0
    1644:	ef000000 	svc	0x00000000
    1648:	e8bd80e0 	pop	{r5, r6, r7, pc}

0000164c <utee_cryp_obj_get_attr>:
utee_cryp_obj_get_attr():
/media/wen/My_Passport/Raspbian/raspbian-tee/raspbian-tee/optee_os/lib/libutee/arch/arm/utee_syscalls_asm.S:63
    164c:	e92d40e0 	push	{r5, r6, r7, lr}
    1650:	e3a0701a 	mov	r7, #26
    1654:	e3a06000 	mov	r6, #0
    1658:	ef000000 	svc	0x00000000
    165c:	e8bd80e0 	pop	{r5, r6, r7, pc}

00001660 <utee_cryp_obj_alloc>:
utee_cryp_obj_alloc():
/media/wen/My_Passport/Raspbian/raspbian-tee/raspbian-tee/optee_os/lib/libutee/arch/arm/utee_syscalls_asm.S:65
    1660:	e92d40e0 	push	{r5, r6, r7, lr}
    1664:	e3a0701b 	mov	r7, #27
    1668:	e3a06000 	mov	r6, #0
    166c:	ef000000 	svc	0x00000000
    1670:	e8bd80e0 	pop	{r5, r6, r7, pc}

00001674 <utee_cryp_obj_close>:
utee_cryp_obj_close():
/media/wen/My_Passport/Raspbian/raspbian-tee/raspbian-tee/optee_os/lib/libutee/arch/arm/utee_syscalls_asm.S:67
    1674:	e92d40e0 	push	{r5, r6, r7, lr}
    1678:	e3a0701c 	mov	r7, #28
    167c:	e3a06000 	mov	r6, #0
    1680:	ef000000 	svc	0x00000000
    1684:	e8bd80e0 	pop	{r5, r6, r7, pc}

00001688 <utee_cryp_obj_reset>:
utee_cryp_obj_reset():
/media/wen/My_Passport/Raspbian/raspbian-tee/raspbian-tee/optee_os/lib/libutee/arch/arm/utee_syscalls_asm.S:69
    1688:	e92d40e0 	push	{r5, r6, r7, lr}
    168c:	e3a0701d 	mov	r7, #29
    1690:	e3a06000 	mov	r6, #0
    1694:	ef000000 	svc	0x00000000
    1698:	e8bd80e0 	pop	{r5, r6, r7, pc}

0000169c <utee_cryp_obj_populate>:
utee_cryp_obj_populate():
/media/wen/My_Passport/Raspbian/raspbian-tee/raspbian-tee/optee_os/lib/libutee/arch/arm/utee_syscalls_asm.S:71
    169c:	e92d40e0 	push	{r5, r6, r7, lr}
    16a0:	e3a0701e 	mov	r7, #30
    16a4:	e3a06000 	mov	r6, #0
    16a8:	ef000000 	svc	0x00000000
    16ac:	e8bd80e0 	pop	{r5, r6, r7, pc}

000016b0 <utee_cryp_obj_copy>:
utee_cryp_obj_copy():
/media/wen/My_Passport/Raspbian/raspbian-tee/raspbian-tee/optee_os/lib/libutee/arch/arm/utee_syscalls_asm.S:73
    16b0:	e92d40e0 	push	{r5, r6, r7, lr}
    16b4:	e3a0701f 	mov	r7, #31
    16b8:	e3a06000 	mov	r6, #0
    16bc:	ef000000 	svc	0x00000000
    16c0:	e8bd80e0 	pop	{r5, r6, r7, pc}

000016c4 <utee_cryp_derive_key>:
utee_cryp_derive_key():
/media/wen/My_Passport/Raspbian/raspbian-tee/raspbian-tee/optee_os/lib/libutee/arch/arm/utee_syscalls_asm.S:75
    16c4:	e92d40e0 	push	{r5, r6, r7, lr}
    16c8:	e3a07020 	mov	r7, #32
    16cc:	e3a06000 	mov	r6, #0
    16d0:	ef000000 	svc	0x00000000
    16d4:	e8bd80e0 	pop	{r5, r6, r7, pc}

000016d8 <utee_cryp_random_number_generate>:
utee_cryp_random_number_generate():
/media/wen/My_Passport/Raspbian/raspbian-tee/raspbian-tee/optee_os/lib/libutee/arch/arm/utee_syscalls_asm.S:77
    16d8:	e92d40e0 	push	{r5, r6, r7, lr}
    16dc:	e3a07021 	mov	r7, #33	; 0x21
    16e0:	e3a06000 	mov	r6, #0
    16e4:	ef000000 	svc	0x00000000
    16e8:	e8bd80e0 	pop	{r5, r6, r7, pc}

000016ec <utee_authenc_init>:
utee_authenc_init():
/media/wen/My_Passport/Raspbian/raspbian-tee/raspbian-tee/optee_os/lib/libutee/arch/arm/utee_syscalls_asm.S:80
    16ec:	e92d40e0 	push	{r5, r6, r7, lr}
    16f0:	e3a07022 	mov	r7, #34	; 0x22
    16f4:	e3a06002 	mov	r6, #2
    16f8:	e28d5010 	add	r5, sp, #16
    16fc:	ef000000 	svc	0x00000000
    1700:	e8bd80e0 	pop	{r5, r6, r7, pc}

00001704 <utee_authenc_update_aad>:
utee_authenc_update_aad():
/media/wen/My_Passport/Raspbian/raspbian-tee/raspbian-tee/optee_os/lib/libutee/arch/arm/utee_syscalls_asm.S:82
    1704:	e92d40e0 	push	{r5, r6, r7, lr}
    1708:	e3a07023 	mov	r7, #35	; 0x23
    170c:	e3a06000 	mov	r6, #0
    1710:	ef000000 	svc	0x00000000
    1714:	e8bd80e0 	pop	{r5, r6, r7, pc}

00001718 <utee_authenc_update_payload>:
utee_authenc_update_payload():
/media/wen/My_Passport/Raspbian/raspbian-tee/raspbian-tee/optee_os/lib/libutee/arch/arm/utee_syscalls_asm.S:84
    1718:	e92d40e0 	push	{r5, r6, r7, lr}
    171c:	e3a07024 	mov	r7, #36	; 0x24
    1720:	e3a06001 	mov	r6, #1
    1724:	e28d5010 	add	r5, sp, #16
    1728:	ef000000 	svc	0x00000000
    172c:	e8bd80e0 	pop	{r5, r6, r7, pc}

00001730 <utee_authenc_enc_final>:
utee_authenc_enc_final():
/media/wen/My_Passport/Raspbian/raspbian-tee/raspbian-tee/optee_os/lib/libutee/arch/arm/utee_syscalls_asm.S:87
    1730:	e92d40e0 	push	{r5, r6, r7, lr}
    1734:	e3a07025 	mov	r7, #37	; 0x25
    1738:	e3a06003 	mov	r6, #3
    173c:	e28d5010 	add	r5, sp, #16
    1740:	ef000000 	svc	0x00000000
    1744:	e8bd80e0 	pop	{r5, r6, r7, pc}

00001748 <utee_authenc_dec_final>:
utee_authenc_dec_final():
/media/wen/My_Passport/Raspbian/raspbian-tee/raspbian-tee/optee_os/lib/libutee/arch/arm/utee_syscalls_asm.S:89
    1748:	e92d40e0 	push	{r5, r6, r7, lr}
    174c:	e3a07026 	mov	r7, #38	; 0x26
    1750:	e3a06003 	mov	r6, #3
    1754:	e28d5010 	add	r5, sp, #16
    1758:	ef000000 	svc	0x00000000
    175c:	e8bd80e0 	pop	{r5, r6, r7, pc}

00001760 <utee_asymm_operate>:
utee_asymm_operate():
/media/wen/My_Passport/Raspbian/raspbian-tee/raspbian-tee/optee_os/lib/libutee/arch/arm/utee_syscalls_asm.S:91
    1760:	e92d40e0 	push	{r5, r6, r7, lr}
    1764:	e3a07027 	mov	r7, #39	; 0x27
    1768:	e3a06003 	mov	r6, #3
    176c:	e28d5010 	add	r5, sp, #16
    1770:	ef000000 	svc	0x00000000
    1774:	e8bd80e0 	pop	{r5, r6, r7, pc}

00001778 <utee_asymm_verify>:
utee_asymm_verify():
/media/wen/My_Passport/Raspbian/raspbian-tee/raspbian-tee/optee_os/lib/libutee/arch/arm/utee_syscalls_asm.S:93
    1778:	e92d40e0 	push	{r5, r6, r7, lr}
    177c:	e3a07028 	mov	r7, #40	; 0x28
    1780:	e3a06003 	mov	r6, #3
    1784:	e28d5010 	add	r5, sp, #16
    1788:	ef000000 	svc	0x00000000
    178c:	e8bd80e0 	pop	{r5, r6, r7, pc}

00001790 <utee_storage_obj_open>:
utee_storage_obj_open():
/media/wen/My_Passport/Raspbian/raspbian-tee/raspbian-tee/optee_os/lib/libutee/arch/arm/utee_syscalls_asm.S:95
    1790:	e92d40e0 	push	{r5, r6, r7, lr}
    1794:	e3a07029 	mov	r7, #41	; 0x29
    1798:	e3a06001 	mov	r6, #1
    179c:	e28d5010 	add	r5, sp, #16
    17a0:	ef000000 	svc	0x00000000
    17a4:	e8bd80e0 	pop	{r5, r6, r7, pc}

000017a8 <utee_storage_obj_create>:
utee_storage_obj_create():
/media/wen/My_Passport/Raspbian/raspbian-tee/raspbian-tee/optee_os/lib/libutee/arch/arm/utee_syscalls_asm.S:97
    17a8:	e92d40e0 	push	{r5, r6, r7, lr}
    17ac:	e3a0702a 	mov	r7, #42	; 0x2a
    17b0:	e3a06004 	mov	r6, #4
    17b4:	e28d5010 	add	r5, sp, #16
    17b8:	ef000000 	svc	0x00000000
    17bc:	e8bd80e0 	pop	{r5, r6, r7, pc}

000017c0 <utee_storage_obj_del>:
utee_storage_obj_del():
/media/wen/My_Passport/Raspbian/raspbian-tee/raspbian-tee/optee_os/lib/libutee/arch/arm/utee_syscalls_asm.S:99
    17c0:	e92d40e0 	push	{r5, r6, r7, lr}
    17c4:	e3a0702b 	mov	r7, #43	; 0x2b
    17c8:	e3a06000 	mov	r6, #0
    17cc:	ef000000 	svc	0x00000000
    17d0:	e8bd80e0 	pop	{r5, r6, r7, pc}

000017d4 <utee_storage_obj_rename>:
utee_storage_obj_rename():
/media/wen/My_Passport/Raspbian/raspbian-tee/raspbian-tee/optee_os/lib/libutee/arch/arm/utee_syscalls_asm.S:101
    17d4:	e92d40e0 	push	{r5, r6, r7, lr}
    17d8:	e3a0702c 	mov	r7, #44	; 0x2c
    17dc:	e3a06000 	mov	r6, #0
    17e0:	ef000000 	svc	0x00000000
    17e4:	e8bd80e0 	pop	{r5, r6, r7, pc}

000017e8 <utee_storage_alloc_enum>:
utee_storage_alloc_enum():
/media/wen/My_Passport/Raspbian/raspbian-tee/raspbian-tee/optee_os/lib/libutee/arch/arm/utee_syscalls_asm.S:103
    17e8:	e92d40e0 	push	{r5, r6, r7, lr}
    17ec:	e3a0702d 	mov	r7, #45	; 0x2d
    17f0:	e3a06000 	mov	r6, #0
    17f4:	ef000000 	svc	0x00000000
    17f8:	e8bd80e0 	pop	{r5, r6, r7, pc}

000017fc <utee_storage_free_enum>:
utee_storage_free_enum():
/media/wen/My_Passport/Raspbian/raspbian-tee/raspbian-tee/optee_os/lib/libutee/arch/arm/utee_syscalls_asm.S:105
    17fc:	e92d40e0 	push	{r5, r6, r7, lr}
    1800:	e3a0702e 	mov	r7, #46	; 0x2e
    1804:	e3a06000 	mov	r6, #0
    1808:	ef000000 	svc	0x00000000
    180c:	e8bd80e0 	pop	{r5, r6, r7, pc}

00001810 <utee_storage_reset_enum>:
utee_storage_reset_enum():
/media/wen/My_Passport/Raspbian/raspbian-tee/raspbian-tee/optee_os/lib/libutee/arch/arm/utee_syscalls_asm.S:107
    1810:	e92d40e0 	push	{r5, r6, r7, lr}
    1814:	e3a0702f 	mov	r7, #47	; 0x2f
    1818:	e3a06000 	mov	r6, #0
    181c:	ef000000 	svc	0x00000000
    1820:	e8bd80e0 	pop	{r5, r6, r7, pc}

00001824 <utee_storage_start_enum>:
utee_storage_start_enum():
/media/wen/My_Passport/Raspbian/raspbian-tee/raspbian-tee/optee_os/lib/libutee/arch/arm/utee_syscalls_asm.S:109
    1824:	e92d40e0 	push	{r5, r6, r7, lr}
    1828:	e3a07030 	mov	r7, #48	; 0x30
    182c:	e3a06000 	mov	r6, #0
    1830:	ef000000 	svc	0x00000000
    1834:	e8bd80e0 	pop	{r5, r6, r7, pc}

00001838 <utee_storage_next_enum>:
utee_storage_next_enum():
/media/wen/My_Passport/Raspbian/raspbian-tee/raspbian-tee/optee_os/lib/libutee/arch/arm/utee_syscalls_asm.S:111
    1838:	e92d40e0 	push	{r5, r6, r7, lr}
    183c:	e3a07031 	mov	r7, #49	; 0x31
    1840:	e3a06000 	mov	r6, #0
    1844:	ef000000 	svc	0x00000000
    1848:	e8bd80e0 	pop	{r5, r6, r7, pc}

0000184c <utee_storage_obj_read>:
utee_storage_obj_read():
/media/wen/My_Passport/Raspbian/raspbian-tee/raspbian-tee/optee_os/lib/libutee/arch/arm/utee_syscalls_asm.S:113
    184c:	e92d40e0 	push	{r5, r6, r7, lr}
    1850:	e3a07032 	mov	r7, #50	; 0x32
    1854:	e3a06000 	mov	r6, #0
    1858:	ef000000 	svc	0x00000000
    185c:	e8bd80e0 	pop	{r5, r6, r7, pc}

00001860 <utee_storage_obj_write>:
utee_storage_obj_write():
/media/wen/My_Passport/Raspbian/raspbian-tee/raspbian-tee/optee_os/lib/libutee/arch/arm/utee_syscalls_asm.S:115
    1860:	e92d40e0 	push	{r5, r6, r7, lr}
    1864:	e3a07033 	mov	r7, #51	; 0x33
    1868:	e3a06000 	mov	r6, #0
    186c:	ef000000 	svc	0x00000000
    1870:	e8bd80e0 	pop	{r5, r6, r7, pc}

00001874 <utee_storage_obj_trunc>:
utee_storage_obj_trunc():
/media/wen/My_Passport/Raspbian/raspbian-tee/raspbian-tee/optee_os/lib/libutee/arch/arm/utee_syscalls_asm.S:117
    1874:	e92d40e0 	push	{r5, r6, r7, lr}
    1878:	e3a07034 	mov	r7, #52	; 0x34
    187c:	e3a06000 	mov	r6, #0
    1880:	ef000000 	svc	0x00000000
    1884:	e8bd80e0 	pop	{r5, r6, r7, pc}

00001888 <utee_storage_obj_seek>:
utee_storage_obj_seek():
/media/wen/My_Passport/Raspbian/raspbian-tee/raspbian-tee/optee_os/lib/libutee/arch/arm/utee_syscalls_asm.S:119
    1888:	e92d40e0 	push	{r5, r6, r7, lr}
    188c:	e3a07035 	mov	r7, #53	; 0x35
    1890:	e3a06000 	mov	r6, #0
    1894:	ef000000 	svc	0x00000000
    1898:	e8bd80e0 	pop	{r5, r6, r7, pc}

0000189c <utee_cryp_obj_generate_key>:
utee_cryp_obj_generate_key():
/media/wen/My_Passport/Raspbian/raspbian-tee/raspbian-tee/optee_os/lib/libutee/arch/arm/utee_syscalls_asm.S:121
    189c:	e92d40e0 	push	{r5, r6, r7, lr}
    18a0:	e3a07036 	mov	r7, #54	; 0x36
    18a4:	e3a06000 	mov	r6, #0
    18a8:	ef000000 	svc	0x00000000
    18ac:	e8bd80e0 	pop	{r5, r6, r7, pc}

000018b0 <utee_cache_operation>:
utee_cache_operation():
/media/wen/My_Passport/Raspbian/raspbian-tee/raspbian-tee/optee_os/lib/libutee/arch/arm/utee_syscalls_asm.S:124
    18b0:	e92d40e0 	push	{r5, r6, r7, lr}
    18b4:	e3a07046 	mov	r7, #70	; 0x46
    18b8:	e3a06000 	mov	r6, #0
    18bc:	ef000000 	svc	0x00000000
    18c0:	e8bd80e0 	pop	{r5, r6, r7, pc}

000018c4 <__utee_mcount>:
__utee_mcount():
/media/wen/My_Passport/Raspbian/raspbian-tee/raspbian-tee/optee_os/lib/libutee/arch/arm/gprof/gprof_a32.S:49
    18c4:	e52de004 	push	{lr}		; (str lr, [sp, #-4]!)
/media/wen/My_Passport/Raspbian/raspbian-tee/raspbian-tee/optee_os/lib/libutee/arch/arm/gprof/gprof_a32.S:50
    18c8:	e8bd5000 	pop	{ip, lr}
/media/wen/My_Passport/Raspbian/raspbian-tee/raspbian-tee/optee_os/lib/libutee/arch/arm/gprof/gprof_a32.S:51
    18cc:	e12fff1c 	bx	ip

000018d0 <mpi_panic>:
mpi_panic():
/media/wen/My_Passport/Raspbian/raspbian-tee/raspbian-tee/optee_os/lib/libutee/tee_api_arith_mpi.c:29
    18d0:	b508      	push	{r3, lr}
/media/wen/My_Passport/Raspbian/raspbian-tee/raspbian-tee/optee_os/lib/libutee/tee_api_arith_mpi.c:30
    18d2:	4613      	mov	r3, r2
    18d4:	460a      	mov	r2, r1
    18d6:	4601      	mov	r1, r0
    18d8:	4804      	ldr	r0, [pc, #16]	; (18ec <mpi_panic+0x1c>)
    18da:	4478      	add	r0, pc
    18dc:	f7ff fadb 	bl	e96 <printf>
/media/wen/My_Passport/Raspbian/raspbian-tee/raspbian-tee/optee_os/lib/libutee/tee_api_arith_mpi.c:31
    18e0:	4801      	ldr	r0, [pc, #4]	; (18e8 <mpi_panic+0x18>)
    18e2:	f004 fadf 	bl	5ea4 <TEE_Panic>
    18e6:	e7fe      	b.n	18e6 <mpi_panic+0x16>
    18e8:	00b16127 	.word	0x00b16127
    18ec:	00004c98 	.word	0x00004c98

000018f0 <get_const_mpi>:
get_const_mpi():
/media/wen/My_Passport/Raspbian/raspbian-tee/raspbian-tee/optee_os/lib/libutee/tee_api_arith_mpi.c:110
    18f0:	b530      	push	{r4, r5, lr}
init_static_mpi():
/media/wen/My_Passport/Raspbian/raspbian-tee/raspbian-tee/optee_os/lib/libutee/tee_api_arith_mpi.c:65
    18f2:	3108      	adds	r1, #8
    18f4:	f831 2c02 	ldrh.w	r2, [r1, #-2]
get_const_mpi():
/media/wen/My_Passport/Raspbian/raspbian-tee/raspbian-tee/optee_os/lib/libutee/tee_api_arith_mpi.c:110
    18f8:	b087      	sub	sp, #28
init_static_mpi():
/media/wen/My_Passport/Raspbian/raspbian-tee/raspbian-tee/optee_os/lib/libutee/tee_api_arith_mpi.c:65
    18fa:	f831 3c04 	ldrh.w	r3, [r1, #-4]
    18fe:	ac03      	add	r4, sp, #12
get_const_mpi():
/media/wen/My_Passport/Raspbian/raspbian-tee/raspbian-tee/optee_os/lib/libutee/tee_api_arith_mpi.c:110
    1900:	4605      	mov	r5, r0
init_static_mpi():
/media/wen/My_Passport/Raspbian/raspbian-tee/raspbian-tee/optee_os/lib/libutee/tee_api_arith_mpi.c:65
    1902:	4620      	mov	r0, r4
    1904:	9200      	str	r2, [sp, #0]
    1906:	f851 2c08 	ldr.w	r2, [r1, #-8]
    190a:	f001 fa47 	bl	2d9c <mbedtls_mpi_init_static>
get_mpi():
/media/wen/My_Passport/Raspbian/raspbian-tee/raspbian-tee/optee_os/lib/libutee/tee_api_arith_mpi.c:99
    190e:	4628      	mov	r0, r5
    1910:	f001 fa32 	bl	2d78 <mbedtls_mpi_init_mempool>
get_const_mpi():
/media/wen/My_Passport/Raspbian/raspbian-tee/raspbian-tee/optee_os/lib/libutee/tee_api_arith_mpi.c:115
    1914:	4621      	mov	r1, r4
    1916:	4628      	mov	r0, r5
    1918:	f001 fb2c 	bl	2f74 <mbedtls_mpi_copy>
    191c:	4602      	mov	r2, r0
    191e:	b120      	cbz	r0, 192a <get_const_mpi+0x3a>
/media/wen/My_Passport/Raspbian/raspbian-tee/raspbian-tee/optee_os/lib/libutee/tee_api_arith_mpi.c:115 (discriminator 1)
    1920:	4803      	ldr	r0, [pc, #12]	; (1930 <get_const_mpi+0x40>)
    1922:	2173      	movs	r1, #115	; 0x73
    1924:	4478      	add	r0, pc
    1926:	f7ff ffd3 	bl	18d0 <mpi_panic>
/media/wen/My_Passport/Raspbian/raspbian-tee/raspbian-tee/optee_os/lib/libutee/tee_api_arith_mpi.c:116
    192a:	b007      	add	sp, #28
    192c:	bd30      	pop	{r4, r5, pc}
    192e:	bf00      	nop
    1930:	00004aeb 	.word	0x00004aeb

00001934 <mpi_is_odd>:
mpi_is_odd():
/media/wen/My_Passport/Raspbian/raspbian-tee/raspbian-tee/optee_os/lib/libutee/tee_api_arith_mpi.c:599
    1934:	b508      	push	{r3, lr}
/media/wen/My_Passport/Raspbian/raspbian-tee/raspbian-tee/optee_os/lib/libutee/tee_api_arith_mpi.c:600
    1936:	2100      	movs	r1, #0
    1938:	f001 fbf3 	bl	3122 <mbedtls_mpi_get_bit>
/media/wen/My_Passport/Raspbian/raspbian-tee/raspbian-tee/optee_os/lib/libutee/tee_api_arith_mpi.c:601
    193c:	3000      	adds	r0, #0
    193e:	bf18      	it	ne
    1940:	2001      	movne	r0, #1
    1942:	bd08      	pop	{r3, pc}

00001944 <rng_read>:
rng_read():
/media/wen/My_Passport/Raspbian/raspbian-tee/raspbian-tee/optee_os/lib/libutee/tee_api_arith_mpi.c:763
    1944:	b508      	push	{r3, lr}
    1946:	4608      	mov	r0, r1
/media/wen/My_Passport/Raspbian/raspbian-tee/raspbian-tee/optee_os/lib/libutee/tee_api_arith_mpi.c:764
    1948:	4611      	mov	r1, r2
    194a:	f7ff eec6 	blx	16d8 <utee_cryp_random_number_generate>
    194e:	2800      	cmp	r0, #0
/media/wen/My_Passport/Raspbian/raspbian-tee/raspbian-tee/optee_os/lib/libutee/tee_api_arith_mpi.c:767
    1950:	f06f 0001 	mvn.w	r0, #1
    1954:	bf08      	it	eq
    1956:	2000      	moveq	r0, #0
    1958:	bd08      	pop	{r3, pc}

0000195a <put_mpi>:
put_mpi():
/media/wen/My_Passport/Raspbian/raspbian-tee/raspbian-tee/optee_os/lib/libutee/tee_api_arith_mpi.c:128
    195a:	7842      	ldrb	r2, [r0, #1]
    195c:	2a02      	cmp	r2, #2
    195e:	d108      	bne.n	1972 <put_mpi+0x18>
/media/wen/My_Passport/Raspbian/raspbian-tee/raspbian-tee/optee_os/lib/libutee/tee_api_arith_mpi.c:129
    1960:	6882      	ldr	r2, [r0, #8]
/media/wen/My_Passport/Raspbian/raspbian-tee/raspbian-tee/optee_os/lib/libutee/tee_api_arith_mpi.c:131
    1962:	f990 1000 	ldrsb.w	r1, [r0]
/media/wen/My_Passport/Raspbian/raspbian-tee/raspbian-tee/optee_os/lib/libutee/tee_api_arith_mpi.c:132
    1966:	8883      	ldrh	r3, [r0, #4]
/media/wen/My_Passport/Raspbian/raspbian-tee/raspbian-tee/optee_os/lib/libutee/tee_api_arith_mpi.c:131
    1968:	f842 1c08 	str.w	r1, [r2, #-8]
/media/wen/My_Passport/Raspbian/raspbian-tee/raspbian-tee/optee_os/lib/libutee/tee_api_arith_mpi.c:132
    196c:	f822 3c02 	strh.w	r3, [r2, #-2]
    1970:	4770      	bx	lr
/media/wen/My_Passport/Raspbian/raspbian-tee/raspbian-tee/optee_os/lib/libutee/tee_api_arith_mpi.c:134
    1972:	f001 ba1c 	b.w	2dae <mbedtls_mpi_free>

00001976 <mpi_egcd>:
mpi_egcd():
/media/wen/My_Passport/Raspbian/raspbian-tee/raspbian-tee/optee_os/lib/libutee/tee_api_arith_mpi.c:614
    1976:	e92d 4ff0 	stmdb	sp!, {r4, r5, r6, r7, r8, r9, sl, fp, lr}
    197a:	4681      	mov	r9, r0
    197c:	b09b      	sub	sp, #108	; 0x6c
get_mpi():
/media/wen/My_Passport/Raspbian/raspbian-tee/raspbian-tee/optee_os/lib/libutee/tee_api_arith_mpi.c:99
    197e:	f10d 0814 	add.w	r8, sp, #20
    1982:	af08      	add	r7, sp, #32
    1984:	4640      	mov	r0, r8
    1986:	ad0b      	add	r5, sp, #44	; 0x2c
mpi_egcd():
/media/wen/My_Passport/Raspbian/raspbian-tee/raspbian-tee/optee_os/lib/libutee/tee_api_arith_mpi.c:614
    1988:	9102      	str	r1, [sp, #8]
get_mpi():
/media/wen/My_Passport/Raspbian/raspbian-tee/raspbian-tee/optee_os/lib/libutee/tee_api_arith_mpi.c:99
    198a:	ac0e      	add	r4, sp, #56	; 0x38
mpi_egcd():
/media/wen/My_Passport/Raspbian/raspbian-tee/raspbian-tee/optee_os/lib/libutee/tee_api_arith_mpi.c:614
    198c:	9203      	str	r2, [sp, #12]
get_mpi():
/media/wen/My_Passport/Raspbian/raspbian-tee/raspbian-tee/optee_os/lib/libutee/tee_api_arith_mpi.c:99
    198e:	f10d 0a44 	add.w	sl, sp, #68	; 0x44
mpi_egcd():
/media/wen/My_Passport/Raspbian/raspbian-tee/raspbian-tee/optee_os/lib/libutee/tee_api_arith_mpi.c:614
    1992:	9301      	str	r3, [sp, #4]
get_mpi():
/media/wen/My_Passport/Raspbian/raspbian-tee/raspbian-tee/optee_os/lib/libutee/tee_api_arith_mpi.c:99
    1994:	f001 f9f0 	bl	2d78 <mbedtls_mpi_init_mempool>
    1998:	4638      	mov	r0, r7
    199a:	f10d 0b50 	add.w	fp, sp, #80	; 0x50
    199e:	f001 f9eb 	bl	2d78 <mbedtls_mpi_init_mempool>
    19a2:	4628      	mov	r0, r5
    19a4:	f001 f9e8 	bl	2d78 <mbedtls_mpi_init_mempool>
    19a8:	4620      	mov	r0, r4
    19aa:	f001 f9e5 	bl	2d78 <mbedtls_mpi_init_mempool>
    19ae:	4650      	mov	r0, sl
    19b0:	f001 f9e2 	bl	2d78 <mbedtls_mpi_init_mempool>
    19b4:	ae17      	add	r6, sp, #92	; 0x5c
    19b6:	4658      	mov	r0, fp
    19b8:	f001 f9de 	bl	2d78 <mbedtls_mpi_init_mempool>
    19bc:	4630      	mov	r0, r6
    19be:	f001 f9db 	bl	2d78 <mbedtls_mpi_init_mempool>
mpi_egcd():
/media/wen/My_Passport/Raspbian/raspbian-tee/raspbian-tee/optee_os/lib/libutee/tee_api_arith_mpi.c:633
    19c2:	2100      	movs	r1, #0
    19c4:	9824      	ldr	r0, [sp, #144]	; 0x90
    19c6:	f001 fd83 	bl	34d0 <mbedtls_mpi_cmp_int>
    19ca:	bb20      	cbnz	r0, 1a16 <mpi_egcd+0xa0>
/media/wen/My_Passport/Raspbian/raspbian-tee/raspbian-tee/optee_os/lib/libutee/tee_api_arith_mpi.c:634
    19cc:	2101      	movs	r1, #1
    19ce:	9802      	ldr	r0, [sp, #8]
    19d0:	f001 fb8b 	bl	30ea <mbedtls_mpi_lset>
    19d4:	4602      	mov	r2, r0
    19d6:	b130      	cbz	r0, 19e6 <mpi_egcd+0x70>
/media/wen/My_Passport/Raspbian/raspbian-tee/raspbian-tee/optee_os/lib/libutee/tee_api_arith_mpi.c:634 (discriminator 1)
    19d8:	48dd      	ldr	r0, [pc, #884]	; (1d50 <mpi_egcd+0x3da>)
    19da:	f240 217a 	movw	r1, #634	; 0x27a
    19de:	4478      	add	r0, pc
/media/wen/My_Passport/Raspbian/raspbian-tee/raspbian-tee/optee_os/lib/libutee/tee_api_arith_mpi.c:635 (discriminator 1)
    19e0:	300e      	adds	r0, #14
    19e2:	f7ff ff75 	bl	18d0 <mpi_panic>
/media/wen/My_Passport/Raspbian/raspbian-tee/raspbian-tee/optee_os/lib/libutee/tee_api_arith_mpi.c:635
    19e6:	4601      	mov	r1, r0
    19e8:	9803      	ldr	r0, [sp, #12]
    19ea:	f001 fb7e 	bl	30ea <mbedtls_mpi_lset>
    19ee:	4602      	mov	r2, r0
    19f0:	b120      	cbz	r0, 19fc <mpi_egcd+0x86>
/media/wen/My_Passport/Raspbian/raspbian-tee/raspbian-tee/optee_os/lib/libutee/tee_api_arith_mpi.c:635 (discriminator 1)
    19f2:	48d8      	ldr	r0, [pc, #864]	; (1d54 <mpi_egcd+0x3de>)
    19f4:	f240 217b 	movw	r1, #635	; 0x27b
    19f8:	4478      	add	r0, pc
    19fa:	e7f1      	b.n	19e0 <mpi_egcd+0x6a>
/media/wen/My_Passport/Raspbian/raspbian-tee/raspbian-tee/optee_os/lib/libutee/tee_api_arith_mpi.c:636
    19fc:	9901      	ldr	r1, [sp, #4]
    19fe:	4648      	mov	r0, r9
    1a00:	f001 fab8 	bl	2f74 <mbedtls_mpi_copy>
    1a04:	4602      	mov	r2, r0
    1a06:	2800      	cmp	r0, #0
    1a08:	f000 818a 	beq.w	1d20 <mpi_egcd+0x3aa>
/media/wen/My_Passport/Raspbian/raspbian-tee/raspbian-tee/optee_os/lib/libutee/tee_api_arith_mpi.c:636 (discriminator 1)
    1a0c:	48d2      	ldr	r0, [pc, #840]	; (1d58 <mpi_egcd+0x3e2>)
    1a0e:	f44f 711f 	mov.w	r1, #636	; 0x27c
    1a12:	4478      	add	r0, pc
    1a14:	e7e4      	b.n	19e0 <mpi_egcd+0x6a>
/media/wen/My_Passport/Raspbian/raspbian-tee/raspbian-tee/optee_os/lib/libutee/tee_api_arith_mpi.c:640
    1a16:	9901      	ldr	r1, [sp, #4]
    1a18:	4650      	mov	r0, sl
    1a1a:	f001 faab 	bl	2f74 <mbedtls_mpi_copy>
    1a1e:	4602      	mov	r2, r0
    1a20:	b120      	cbz	r0, 1a2c <mpi_egcd+0xb6>
/media/wen/My_Passport/Raspbian/raspbian-tee/raspbian-tee/optee_os/lib/libutee/tee_api_arith_mpi.c:640 (discriminator 1)
    1a22:	48ce      	ldr	r0, [pc, #824]	; (1d5c <mpi_egcd+0x3e6>)
    1a24:	f44f 7120 	mov.w	r1, #640	; 0x280
    1a28:	4478      	add	r0, pc
    1a2a:	e7d9      	b.n	19e0 <mpi_egcd+0x6a>
/media/wen/My_Passport/Raspbian/raspbian-tee/raspbian-tee/optee_os/lib/libutee/tee_api_arith_mpi.c:641
    1a2c:	9924      	ldr	r1, [sp, #144]	; 0x90
    1a2e:	4658      	mov	r0, fp
    1a30:	f001 faa0 	bl	2f74 <mbedtls_mpi_copy>
    1a34:	4602      	mov	r2, r0
    1a36:	b178      	cbz	r0, 1a58 <mpi_egcd+0xe2>
/media/wen/My_Passport/Raspbian/raspbian-tee/raspbian-tee/optee_os/lib/libutee/tee_api_arith_mpi.c:641 (discriminator 1)
    1a38:	48c9      	ldr	r0, [pc, #804]	; (1d60 <mpi_egcd+0x3ea>)
    1a3a:	f240 2181 	movw	r1, #641	; 0x281
    1a3e:	4478      	add	r0, pc
    1a40:	e7ce      	b.n	19e0 <mpi_egcd+0x6a>
/media/wen/My_Passport/Raspbian/raspbian-tee/raspbian-tee/optee_os/lib/libutee/tee_api_arith_mpi.c:647
    1a42:	2101      	movs	r1, #1
    1a44:	4658      	mov	r0, fp
    1a46:	f001 fc85 	bl	3354 <mbedtls_mpi_shift_r>
    1a4a:	4602      	mov	r2, r0
    1a4c:	b128      	cbz	r0, 1a5a <mpi_egcd+0xe4>
/media/wen/My_Passport/Raspbian/raspbian-tee/raspbian-tee/optee_os/lib/libutee/tee_api_arith_mpi.c:647 (discriminator 1)
    1a4e:	48c5      	ldr	r0, [pc, #788]	; (1d64 <mpi_egcd+0x3ee>)
    1a50:	f240 2187 	movw	r1, #647	; 0x287
    1a54:	4478      	add	r0, pc
    1a56:	e7c3      	b.n	19e0 <mpi_egcd+0x6a>
    1a58:	9001      	str	r0, [sp, #4]
mpi_is_even():
/media/wen/My_Passport/Raspbian/raspbian-tee/raspbian-tee/optee_os/lib/libutee/tee_api_arith_mpi.c:605
    1a5a:	4650      	mov	r0, sl
    1a5c:	f7ff ff6a 	bl	1934 <mpi_is_odd>
mpi_egcd():
/media/wen/My_Passport/Raspbian/raspbian-tee/raspbian-tee/optee_os/lib/libutee/tee_api_arith_mpi.c:644
    1a60:	b150      	cbz	r0, 1a78 <mpi_egcd+0x102>
/media/wen/My_Passport/Raspbian/raspbian-tee/raspbian-tee/optee_os/lib/libutee/tee_api_arith_mpi.c:650
    1a62:	4651      	mov	r1, sl
    1a64:	4630      	mov	r0, r6
    1a66:	f001 fa85 	bl	2f74 <mbedtls_mpi_copy>
    1a6a:	4602      	mov	r2, r0
    1a6c:	b1c0      	cbz	r0, 1aa0 <mpi_egcd+0x12a>
/media/wen/My_Passport/Raspbian/raspbian-tee/raspbian-tee/optee_os/lib/libutee/tee_api_arith_mpi.c:650 (discriminator 1)
    1a6e:	48be      	ldr	r0, [pc, #760]	; (1d68 <mpi_egcd+0x3f2>)
    1a70:	f240 218a 	movw	r1, #650	; 0x28a
    1a74:	4478      	add	r0, pc
    1a76:	e7b3      	b.n	19e0 <mpi_egcd+0x6a>
mpi_is_even():
/media/wen/My_Passport/Raspbian/raspbian-tee/raspbian-tee/optee_os/lib/libutee/tee_api_arith_mpi.c:605
    1a78:	4658      	mov	r0, fp
    1a7a:	f7ff ff5b 	bl	1934 <mpi_is_odd>
mpi_egcd():
/media/wen/My_Passport/Raspbian/raspbian-tee/raspbian-tee/optee_os/lib/libutee/tee_api_arith_mpi.c:644
    1a7e:	2800      	cmp	r0, #0
    1a80:	d1ef      	bne.n	1a62 <mpi_egcd+0xec>
/media/wen/My_Passport/Raspbian/raspbian-tee/raspbian-tee/optee_os/lib/libutee/tee_api_arith_mpi.c:645
    1a82:	9b01      	ldr	r3, [sp, #4]
/media/wen/My_Passport/Raspbian/raspbian-tee/raspbian-tee/optee_os/lib/libutee/tee_api_arith_mpi.c:646
    1a84:	2101      	movs	r1, #1
    1a86:	4650      	mov	r0, sl
/media/wen/My_Passport/Raspbian/raspbian-tee/raspbian-tee/optee_os/lib/libutee/tee_api_arith_mpi.c:645
    1a88:	3301      	adds	r3, #1
    1a8a:	9301      	str	r3, [sp, #4]
/media/wen/My_Passport/Raspbian/raspbian-tee/raspbian-tee/optee_os/lib/libutee/tee_api_arith_mpi.c:646
    1a8c:	f001 fc62 	bl	3354 <mbedtls_mpi_shift_r>
    1a90:	4602      	mov	r2, r0
    1a92:	2800      	cmp	r0, #0
    1a94:	d0d5      	beq.n	1a42 <mpi_egcd+0xcc>
/media/wen/My_Passport/Raspbian/raspbian-tee/raspbian-tee/optee_os/lib/libutee/tee_api_arith_mpi.c:646 (discriminator 1)
    1a96:	48b5      	ldr	r0, [pc, #724]	; (1d6c <mpi_egcd+0x3f6>)
    1a98:	f240 2186 	movw	r1, #646	; 0x286
    1a9c:	4478      	add	r0, pc
    1a9e:	e79f      	b.n	19e0 <mpi_egcd+0x6a>
/media/wen/My_Passport/Raspbian/raspbian-tee/raspbian-tee/optee_os/lib/libutee/tee_api_arith_mpi.c:651
    1aa0:	4659      	mov	r1, fp
    1aa2:	4648      	mov	r0, r9
    1aa4:	f001 fa66 	bl	2f74 <mbedtls_mpi_copy>
    1aa8:	4602      	mov	r2, r0
    1aaa:	b120      	cbz	r0, 1ab6 <mpi_egcd+0x140>
/media/wen/My_Passport/Raspbian/raspbian-tee/raspbian-tee/optee_os/lib/libutee/tee_api_arith_mpi.c:651 (discriminator 1)
    1aac:	48b0      	ldr	r0, [pc, #704]	; (1d70 <mpi_egcd+0x3fa>)
    1aae:	f240 218b 	movw	r1, #651	; 0x28b
    1ab2:	4478      	add	r0, pc
    1ab4:	e794      	b.n	19e0 <mpi_egcd+0x6a>
/media/wen/My_Passport/Raspbian/raspbian-tee/raspbian-tee/optee_os/lib/libutee/tee_api_arith_mpi.c:652
    1ab6:	2101      	movs	r1, #1
    1ab8:	4640      	mov	r0, r8
    1aba:	f001 fb16 	bl	30ea <mbedtls_mpi_lset>
    1abe:	4602      	mov	r2, r0
    1ac0:	b120      	cbz	r0, 1acc <mpi_egcd+0x156>
/media/wen/My_Passport/Raspbian/raspbian-tee/raspbian-tee/optee_os/lib/libutee/tee_api_arith_mpi.c:652 (discriminator 1)
    1ac2:	48ac      	ldr	r0, [pc, #688]	; (1d74 <mpi_egcd+0x3fe>)
    1ac4:	f44f 7123 	mov.w	r1, #652	; 0x28c
    1ac8:	4478      	add	r0, pc
    1aca:	e789      	b.n	19e0 <mpi_egcd+0x6a>
/media/wen/My_Passport/Raspbian/raspbian-tee/raspbian-tee/optee_os/lib/libutee/tee_api_arith_mpi.c:653
    1acc:	4601      	mov	r1, r0
    1ace:	4638      	mov	r0, r7
    1ad0:	f001 fb0b 	bl	30ea <mbedtls_mpi_lset>
    1ad4:	4602      	mov	r2, r0
    1ad6:	b120      	cbz	r0, 1ae2 <mpi_egcd+0x16c>
/media/wen/My_Passport/Raspbian/raspbian-tee/raspbian-tee/optee_os/lib/libutee/tee_api_arith_mpi.c:653 (discriminator 1)
    1ad8:	48a7      	ldr	r0, [pc, #668]	; (1d78 <mpi_egcd+0x402>)
    1ada:	f240 218d 	movw	r1, #653	; 0x28d
    1ade:	4478      	add	r0, pc
    1ae0:	e77e      	b.n	19e0 <mpi_egcd+0x6a>
/media/wen/My_Passport/Raspbian/raspbian-tee/raspbian-tee/optee_os/lib/libutee/tee_api_arith_mpi.c:654
    1ae2:	4601      	mov	r1, r0
    1ae4:	4628      	mov	r0, r5
    1ae6:	f001 fb00 	bl	30ea <mbedtls_mpi_lset>
    1aea:	4602      	mov	r2, r0
    1aec:	b120      	cbz	r0, 1af8 <mpi_egcd+0x182>
/media/wen/My_Passport/Raspbian/raspbian-tee/raspbian-tee/optee_os/lib/libutee/tee_api_arith_mpi.c:654 (discriminator 1)
    1aee:	48a3      	ldr	r0, [pc, #652]	; (1d7c <mpi_egcd+0x406>)
    1af0:	f240 218e 	movw	r1, #654	; 0x28e
    1af4:	4478      	add	r0, pc
    1af6:	e773      	b.n	19e0 <mpi_egcd+0x6a>
/media/wen/My_Passport/Raspbian/raspbian-tee/raspbian-tee/optee_os/lib/libutee/tee_api_arith_mpi.c:655
    1af8:	2101      	movs	r1, #1
    1afa:	4620      	mov	r0, r4
    1afc:	f001 faf5 	bl	30ea <mbedtls_mpi_lset>
    1b00:	4602      	mov	r2, r0
    1b02:	2800      	cmp	r0, #0
    1b04:	f000 80e4 	beq.w	1cd0 <mpi_egcd+0x35a>
/media/wen/My_Passport/Raspbian/raspbian-tee/raspbian-tee/optee_os/lib/libutee/tee_api_arith_mpi.c:655 (discriminator 1)
    1b08:	489d      	ldr	r0, [pc, #628]	; (1d80 <mpi_egcd+0x40a>)
    1b0a:	f240 218f 	movw	r1, #655	; 0x28f
    1b0e:	4478      	add	r0, pc
    1b10:	e766      	b.n	19e0 <mpi_egcd+0x6a>
/media/wen/My_Passport/Raspbian/raspbian-tee/raspbian-tee/optee_os/lib/libutee/tee_api_arith_mpi.c:659
    1b12:	2101      	movs	r1, #1
    1b14:	4630      	mov	r0, r6
    1b16:	f001 fc1d 	bl	3354 <mbedtls_mpi_shift_r>
    1b1a:	4602      	mov	r2, r0
    1b1c:	b120      	cbz	r0, 1b28 <mpi_egcd+0x1b2>
/media/wen/My_Passport/Raspbian/raspbian-tee/raspbian-tee/optee_os/lib/libutee/tee_api_arith_mpi.c:659 (discriminator 1)
    1b1e:	4899      	ldr	r0, [pc, #612]	; (1d84 <mpi_egcd+0x40e>)
    1b20:	f240 2193 	movw	r1, #659	; 0x293
    1b24:	4478      	add	r0, pc
    1b26:	e75b      	b.n	19e0 <mpi_egcd+0x6a>
/media/wen/My_Passport/Raspbian/raspbian-tee/raspbian-tee/optee_os/lib/libutee/tee_api_arith_mpi.c:660
    1b28:	4640      	mov	r0, r8
    1b2a:	f7ff ff03 	bl	1934 <mpi_is_odd>
    1b2e:	b158      	cbz	r0, 1b48 <mpi_egcd+0x1d2>
/media/wen/My_Passport/Raspbian/raspbian-tee/raspbian-tee/optee_os/lib/libutee/tee_api_arith_mpi.c:661
    1b30:	465a      	mov	r2, fp
    1b32:	4641      	mov	r1, r8
    1b34:	4640      	mov	r0, r8
    1b36:	f001 fd7e 	bl	3636 <mbedtls_mpi_add_mpi>
    1b3a:	4602      	mov	r2, r0
    1b3c:	b1a0      	cbz	r0, 1b68 <mpi_egcd+0x1f2>
/media/wen/My_Passport/Raspbian/raspbian-tee/raspbian-tee/optee_os/lib/libutee/tee_api_arith_mpi.c:661 (discriminator 1)
    1b3e:	4892      	ldr	r0, [pc, #584]	; (1d88 <mpi_egcd+0x412>)
    1b40:	f240 2195 	movw	r1, #661	; 0x295
    1b44:	4478      	add	r0, pc
    1b46:	e74b      	b.n	19e0 <mpi_egcd+0x6a>
/media/wen/My_Passport/Raspbian/raspbian-tee/raspbian-tee/optee_os/lib/libutee/tee_api_arith_mpi.c:660 (discriminator 1)
    1b48:	4638      	mov	r0, r7
    1b4a:	f7ff fef3 	bl	1934 <mpi_is_odd>
    1b4e:	2800      	cmp	r0, #0
    1b50:	d1ee      	bne.n	1b30 <mpi_egcd+0x1ba>
/media/wen/My_Passport/Raspbian/raspbian-tee/raspbian-tee/optee_os/lib/libutee/tee_api_arith_mpi.c:664
    1b52:	2101      	movs	r1, #1
    1b54:	4640      	mov	r0, r8
    1b56:	f001 fbfd 	bl	3354 <mbedtls_mpi_shift_r>
    1b5a:	4602      	mov	r2, r0
    1b5c:	b188      	cbz	r0, 1b82 <mpi_egcd+0x20c>
/media/wen/My_Passport/Raspbian/raspbian-tee/raspbian-tee/optee_os/lib/libutee/tee_api_arith_mpi.c:664 (discriminator 1)
    1b5e:	488b      	ldr	r0, [pc, #556]	; (1d8c <mpi_egcd+0x416>)
    1b60:	f44f 7126 	mov.w	r1, #664	; 0x298
    1b64:	4478      	add	r0, pc
    1b66:	e73b      	b.n	19e0 <mpi_egcd+0x6a>
/media/wen/My_Passport/Raspbian/raspbian-tee/raspbian-tee/optee_os/lib/libutee/tee_api_arith_mpi.c:662
    1b68:	4652      	mov	r2, sl
    1b6a:	4639      	mov	r1, r7
    1b6c:	4638      	mov	r0, r7
    1b6e:	f001 fd86 	bl	367e <mbedtls_mpi_sub_mpi>
    1b72:	4602      	mov	r2, r0
    1b74:	2800      	cmp	r0, #0
    1b76:	d0ec      	beq.n	1b52 <mpi_egcd+0x1dc>
/media/wen/My_Passport/Raspbian/raspbian-tee/raspbian-tee/optee_os/lib/libutee/tee_api_arith_mpi.c:662 (discriminator 1)
    1b78:	4885      	ldr	r0, [pc, #532]	; (1d90 <mpi_egcd+0x41a>)
    1b7a:	f240 2196 	movw	r1, #662	; 0x296
    1b7e:	4478      	add	r0, pc
    1b80:	e72e      	b.n	19e0 <mpi_egcd+0x6a>
/media/wen/My_Passport/Raspbian/raspbian-tee/raspbian-tee/optee_os/lib/libutee/tee_api_arith_mpi.c:665
    1b82:	2101      	movs	r1, #1
    1b84:	4638      	mov	r0, r7
    1b86:	f001 fbe5 	bl	3354 <mbedtls_mpi_shift_r>
    1b8a:	4602      	mov	r2, r0
    1b8c:	b120      	cbz	r0, 1b98 <mpi_egcd+0x222>
/media/wen/My_Passport/Raspbian/raspbian-tee/raspbian-tee/optee_os/lib/libutee/tee_api_arith_mpi.c:665 (discriminator 1)
    1b8e:	4881      	ldr	r0, [pc, #516]	; (1d94 <mpi_egcd+0x41e>)
    1b90:	f240 2199 	movw	r1, #665	; 0x299
    1b94:	4478      	add	r0, pc
    1b96:	e723      	b.n	19e0 <mpi_egcd+0x6a>
mpi_is_even():
/media/wen/My_Passport/Raspbian/raspbian-tee/raspbian-tee/optee_os/lib/libutee/tee_api_arith_mpi.c:605
    1b98:	4630      	mov	r0, r6
    1b9a:	f7ff fecb 	bl	1934 <mpi_is_odd>
mpi_egcd():
/media/wen/My_Passport/Raspbian/raspbian-tee/raspbian-tee/optee_os/lib/libutee/tee_api_arith_mpi.c:658
    1b9e:	2800      	cmp	r0, #0
    1ba0:	d0b7      	beq.n	1b12 <mpi_egcd+0x19c>
mpi_is_even():
/media/wen/My_Passport/Raspbian/raspbian-tee/raspbian-tee/optee_os/lib/libutee/tee_api_arith_mpi.c:605
    1ba2:	4648      	mov	r0, r9
    1ba4:	f7ff fec6 	bl	1934 <mpi_is_odd>
mpi_egcd():
/media/wen/My_Passport/Raspbian/raspbian-tee/raspbian-tee/optee_os/lib/libutee/tee_api_arith_mpi.c:668
    1ba8:	b190      	cbz	r0, 1bd0 <mpi_egcd+0x25a>
/media/wen/My_Passport/Raspbian/raspbian-tee/raspbian-tee/optee_os/lib/libutee/tee_api_arith_mpi.c:679
    1baa:	4649      	mov	r1, r9
    1bac:	4630      	mov	r0, r6
    1bae:	f001 fc44 	bl	343a <mbedtls_mpi_cmp_mpi>
    1bb2:	2800      	cmp	r0, #0
    1bb4:	db68      	blt.n	1c88 <mpi_egcd+0x312>
/media/wen/My_Passport/Raspbian/raspbian-tee/raspbian-tee/optee_os/lib/libutee/tee_api_arith_mpi.c:680
    1bb6:	464a      	mov	r2, r9
    1bb8:	4631      	mov	r1, r6
    1bba:	4630      	mov	r0, r6
    1bbc:	f001 fd5f 	bl	367e <mbedtls_mpi_sub_mpi>
    1bc0:	4602      	mov	r2, r0
    1bc2:	2800      	cmp	r0, #0
    1bc4:	d048      	beq.n	1c58 <mpi_egcd+0x2e2>
/media/wen/My_Passport/Raspbian/raspbian-tee/raspbian-tee/optee_os/lib/libutee/tee_api_arith_mpi.c:680 (discriminator 1)
    1bc6:	4874      	ldr	r0, [pc, #464]	; (1d98 <mpi_egcd+0x422>)
    1bc8:	f44f 712a 	mov.w	r1, #680	; 0x2a8
    1bcc:	4478      	add	r0, pc
    1bce:	e707      	b.n	19e0 <mpi_egcd+0x6a>
/media/wen/My_Passport/Raspbian/raspbian-tee/raspbian-tee/optee_os/lib/libutee/tee_api_arith_mpi.c:669
    1bd0:	2101      	movs	r1, #1
    1bd2:	4648      	mov	r0, r9
    1bd4:	f001 fbbe 	bl	3354 <mbedtls_mpi_shift_r>
    1bd8:	4602      	mov	r2, r0
    1bda:	b120      	cbz	r0, 1be6 <mpi_egcd+0x270>
/media/wen/My_Passport/Raspbian/raspbian-tee/raspbian-tee/optee_os/lib/libutee/tee_api_arith_mpi.c:669 (discriminator 1)
    1bdc:	486f      	ldr	r0, [pc, #444]	; (1d9c <mpi_egcd+0x426>)
    1bde:	f240 219d 	movw	r1, #669	; 0x29d
    1be2:	4478      	add	r0, pc
    1be4:	e6fc      	b.n	19e0 <mpi_egcd+0x6a>
/media/wen/My_Passport/Raspbian/raspbian-tee/raspbian-tee/optee_os/lib/libutee/tee_api_arith_mpi.c:670
    1be6:	4628      	mov	r0, r5
    1be8:	f7ff fea4 	bl	1934 <mpi_is_odd>
    1bec:	b158      	cbz	r0, 1c06 <mpi_egcd+0x290>
/media/wen/My_Passport/Raspbian/raspbian-tee/raspbian-tee/optee_os/lib/libutee/tee_api_arith_mpi.c:671
    1bee:	465a      	mov	r2, fp
    1bf0:	4629      	mov	r1, r5
    1bf2:	4628      	mov	r0, r5
    1bf4:	f001 fd1f 	bl	3636 <mbedtls_mpi_add_mpi>
    1bf8:	4602      	mov	r2, r0
    1bfa:	b1a0      	cbz	r0, 1c26 <mpi_egcd+0x2b0>
/media/wen/My_Passport/Raspbian/raspbian-tee/raspbian-tee/optee_os/lib/libutee/tee_api_arith_mpi.c:671 (discriminator 1)
    1bfc:	4868      	ldr	r0, [pc, #416]	; (1da0 <mpi_egcd+0x42a>)
    1bfe:	f240 219f 	movw	r1, #671	; 0x29f
    1c02:	4478      	add	r0, pc
    1c04:	e6ec      	b.n	19e0 <mpi_egcd+0x6a>
/media/wen/My_Passport/Raspbian/raspbian-tee/raspbian-tee/optee_os/lib/libutee/tee_api_arith_mpi.c:670 (discriminator 1)
    1c06:	4620      	mov	r0, r4
    1c08:	f7ff fe94 	bl	1934 <mpi_is_odd>
    1c0c:	2800      	cmp	r0, #0
    1c0e:	d1ee      	bne.n	1bee <mpi_egcd+0x278>
/media/wen/My_Passport/Raspbian/raspbian-tee/raspbian-tee/optee_os/lib/libutee/tee_api_arith_mpi.c:674
    1c10:	2101      	movs	r1, #1
    1c12:	4628      	mov	r0, r5
    1c14:	f001 fb9e 	bl	3354 <mbedtls_mpi_shift_r>
    1c18:	4602      	mov	r2, r0
    1c1a:	b188      	cbz	r0, 1c40 <mpi_egcd+0x2ca>
/media/wen/My_Passport/Raspbian/raspbian-tee/raspbian-tee/optee_os/lib/libutee/tee_api_arith_mpi.c:674 (discriminator 1)
    1c1c:	4861      	ldr	r0, [pc, #388]	; (1da4 <mpi_egcd+0x42e>)
    1c1e:	f240 21a2 	movw	r1, #674	; 0x2a2
    1c22:	4478      	add	r0, pc
    1c24:	e6dc      	b.n	19e0 <mpi_egcd+0x6a>
/media/wen/My_Passport/Raspbian/raspbian-tee/raspbian-tee/optee_os/lib/libutee/tee_api_arith_mpi.c:672
    1c26:	4652      	mov	r2, sl
    1c28:	4621      	mov	r1, r4
    1c2a:	4620      	mov	r0, r4
    1c2c:	f001 fd27 	bl	367e <mbedtls_mpi_sub_mpi>
    1c30:	4602      	mov	r2, r0
    1c32:	2800      	cmp	r0, #0
    1c34:	d0ec      	beq.n	1c10 <mpi_egcd+0x29a>
/media/wen/My_Passport/Raspbian/raspbian-tee/raspbian-tee/optee_os/lib/libutee/tee_api_arith_mpi.c:672 (discriminator 1)
    1c36:	485c      	ldr	r0, [pc, #368]	; (1da8 <mpi_egcd+0x432>)
    1c38:	f44f 7128 	mov.w	r1, #672	; 0x2a0
    1c3c:	4478      	add	r0, pc
    1c3e:	e6cf      	b.n	19e0 <mpi_egcd+0x6a>
/media/wen/My_Passport/Raspbian/raspbian-tee/raspbian-tee/optee_os/lib/libutee/tee_api_arith_mpi.c:675
    1c40:	2101      	movs	r1, #1
    1c42:	4620      	mov	r0, r4
    1c44:	f001 fb86 	bl	3354 <mbedtls_mpi_shift_r>
    1c48:	4602      	mov	r2, r0
    1c4a:	2800      	cmp	r0, #0
    1c4c:	d0a9      	beq.n	1ba2 <mpi_egcd+0x22c>
/media/wen/My_Passport/Raspbian/raspbian-tee/raspbian-tee/optee_os/lib/libutee/tee_api_arith_mpi.c:675 (discriminator 1)
    1c4e:	4857      	ldr	r0, [pc, #348]	; (1dac <mpi_egcd+0x436>)
    1c50:	f240 21a3 	movw	r1, #675	; 0x2a3
    1c54:	4478      	add	r0, pc
    1c56:	e6c3      	b.n	19e0 <mpi_egcd+0x6a>
/media/wen/My_Passport/Raspbian/raspbian-tee/raspbian-tee/optee_os/lib/libutee/tee_api_arith_mpi.c:681
    1c58:	462a      	mov	r2, r5
    1c5a:	4641      	mov	r1, r8
    1c5c:	4640      	mov	r0, r8
    1c5e:	f001 fd0e 	bl	367e <mbedtls_mpi_sub_mpi>
    1c62:	4602      	mov	r2, r0
    1c64:	b120      	cbz	r0, 1c70 <mpi_egcd+0x2fa>
/media/wen/My_Passport/Raspbian/raspbian-tee/raspbian-tee/optee_os/lib/libutee/tee_api_arith_mpi.c:681 (discriminator 1)
    1c66:	4852      	ldr	r0, [pc, #328]	; (1db0 <mpi_egcd+0x43a>)
    1c68:	f240 21a9 	movw	r1, #681	; 0x2a9
    1c6c:	4478      	add	r0, pc
    1c6e:	e6b7      	b.n	19e0 <mpi_egcd+0x6a>
/media/wen/My_Passport/Raspbian/raspbian-tee/raspbian-tee/optee_os/lib/libutee/tee_api_arith_mpi.c:682
    1c70:	4622      	mov	r2, r4
    1c72:	4639      	mov	r1, r7
    1c74:	4638      	mov	r0, r7
    1c76:	f001 fd02 	bl	367e <mbedtls_mpi_sub_mpi>
    1c7a:	4602      	mov	r2, r0
    1c7c:	b340      	cbz	r0, 1cd0 <mpi_egcd+0x35a>
/media/wen/My_Passport/Raspbian/raspbian-tee/raspbian-tee/optee_os/lib/libutee/tee_api_arith_mpi.c:682 (discriminator 1)
    1c7e:	484d      	ldr	r0, [pc, #308]	; (1db4 <mpi_egcd+0x43e>)
    1c80:	f240 21aa 	movw	r1, #682	; 0x2aa
    1c84:	4478      	add	r0, pc
    1c86:	e6ab      	b.n	19e0 <mpi_egcd+0x6a>
/media/wen/My_Passport/Raspbian/raspbian-tee/raspbian-tee/optee_os/lib/libutee/tee_api_arith_mpi.c:684
    1c88:	4632      	mov	r2, r6
    1c8a:	4649      	mov	r1, r9
    1c8c:	4648      	mov	r0, r9
    1c8e:	f001 fcf6 	bl	367e <mbedtls_mpi_sub_mpi>
    1c92:	4602      	mov	r2, r0
    1c94:	b120      	cbz	r0, 1ca0 <mpi_egcd+0x32a>
/media/wen/My_Passport/Raspbian/raspbian-tee/raspbian-tee/optee_os/lib/libutee/tee_api_arith_mpi.c:684 (discriminator 1)
    1c96:	4848      	ldr	r0, [pc, #288]	; (1db8 <mpi_egcd+0x442>)
    1c98:	f44f 712b 	mov.w	r1, #684	; 0x2ac
    1c9c:	4478      	add	r0, pc
    1c9e:	e69f      	b.n	19e0 <mpi_egcd+0x6a>
/media/wen/My_Passport/Raspbian/raspbian-tee/raspbian-tee/optee_os/lib/libutee/tee_api_arith_mpi.c:685
    1ca0:	4642      	mov	r2, r8
    1ca2:	4629      	mov	r1, r5
    1ca4:	4628      	mov	r0, r5
    1ca6:	f001 fcea 	bl	367e <mbedtls_mpi_sub_mpi>
    1caa:	4602      	mov	r2, r0
    1cac:	b120      	cbz	r0, 1cb8 <mpi_egcd+0x342>
/media/wen/My_Passport/Raspbian/raspbian-tee/raspbian-tee/optee_os/lib/libutee/tee_api_arith_mpi.c:685 (discriminator 1)
    1cae:	4843      	ldr	r0, [pc, #268]	; (1dbc <mpi_egcd+0x446>)
    1cb0:	f240 21ad 	movw	r1, #685	; 0x2ad
    1cb4:	4478      	add	r0, pc
    1cb6:	e693      	b.n	19e0 <mpi_egcd+0x6a>
/media/wen/My_Passport/Raspbian/raspbian-tee/raspbian-tee/optee_os/lib/libutee/tee_api_arith_mpi.c:686
    1cb8:	463a      	mov	r2, r7
    1cba:	4621      	mov	r1, r4
    1cbc:	4620      	mov	r0, r4
    1cbe:	f001 fcde 	bl	367e <mbedtls_mpi_sub_mpi>
    1cc2:	4602      	mov	r2, r0
    1cc4:	b120      	cbz	r0, 1cd0 <mpi_egcd+0x35a>
/media/wen/My_Passport/Raspbian/raspbian-tee/raspbian-tee/optee_os/lib/libutee/tee_api_arith_mpi.c:686 (discriminator 1)
    1cc6:	483e      	ldr	r0, [pc, #248]	; (1dc0 <mpi_egcd+0x44a>)
    1cc8:	f240 21ae 	movw	r1, #686	; 0x2ae
    1ccc:	4478      	add	r0, pc
    1cce:	e687      	b.n	19e0 <mpi_egcd+0x6a>
/media/wen/My_Passport/Raspbian/raspbian-tee/raspbian-tee/optee_os/lib/libutee/tee_api_arith_mpi.c:657
    1cd0:	2100      	movs	r1, #0
    1cd2:	4630      	mov	r0, r6
    1cd4:	f001 fbfc 	bl	34d0 <mbedtls_mpi_cmp_int>
    1cd8:	2800      	cmp	r0, #0
    1cda:	f47f af5d 	bne.w	1b98 <mpi_egcd+0x222>
/media/wen/My_Passport/Raspbian/raspbian-tee/raspbian-tee/optee_os/lib/libutee/tee_api_arith_mpi.c:690
    1cde:	4629      	mov	r1, r5
    1ce0:	9802      	ldr	r0, [sp, #8]
    1ce2:	f001 f947 	bl	2f74 <mbedtls_mpi_copy>
    1ce6:	4602      	mov	r2, r0
    1ce8:	b120      	cbz	r0, 1cf4 <mpi_egcd+0x37e>
/media/wen/My_Passport/Raspbian/raspbian-tee/raspbian-tee/optee_os/lib/libutee/tee_api_arith_mpi.c:690 (discriminator 1)
    1cea:	4836      	ldr	r0, [pc, #216]	; (1dc4 <mpi_egcd+0x44e>)
    1cec:	f240 21b2 	movw	r1, #690	; 0x2b2
    1cf0:	4478      	add	r0, pc
    1cf2:	e675      	b.n	19e0 <mpi_egcd+0x6a>
/media/wen/My_Passport/Raspbian/raspbian-tee/raspbian-tee/optee_os/lib/libutee/tee_api_arith_mpi.c:691
    1cf4:	4621      	mov	r1, r4
    1cf6:	9803      	ldr	r0, [sp, #12]
    1cf8:	f001 f93c 	bl	2f74 <mbedtls_mpi_copy>
    1cfc:	4602      	mov	r2, r0
    1cfe:	b120      	cbz	r0, 1d0a <mpi_egcd+0x394>
/media/wen/My_Passport/Raspbian/raspbian-tee/raspbian-tee/optee_os/lib/libutee/tee_api_arith_mpi.c:691 (discriminator 1)
    1d00:	4831      	ldr	r0, [pc, #196]	; (1dc8 <mpi_egcd+0x452>)
    1d02:	f240 21b3 	movw	r1, #691	; 0x2b3
    1d06:	4478      	add	r0, pc
    1d08:	e66a      	b.n	19e0 <mpi_egcd+0x6a>
/media/wen/My_Passport/Raspbian/raspbian-tee/raspbian-tee/optee_os/lib/libutee/tee_api_arith_mpi.c:692
    1d0a:	9901      	ldr	r1, [sp, #4]
    1d0c:	4648      	mov	r0, r9
    1d0e:	f001 fad5 	bl	32bc <mbedtls_mpi_shift_l>
    1d12:	4602      	mov	r2, r0
    1d14:	b120      	cbz	r0, 1d20 <mpi_egcd+0x3aa>
/media/wen/My_Passport/Raspbian/raspbian-tee/raspbian-tee/optee_os/lib/libutee/tee_api_arith_mpi.c:692 (discriminator 1)
    1d16:	482d      	ldr	r0, [pc, #180]	; (1dcc <mpi_egcd+0x456>)
    1d18:	f44f 712d 	mov.w	r1, #692	; 0x2b4
    1d1c:	4478      	add	r0, pc
    1d1e:	e65f      	b.n	19e0 <mpi_egcd+0x6a>
/media/wen/My_Passport/Raspbian/raspbian-tee/raspbian-tee/optee_os/lib/libutee/tee_api_arith_mpi.c:695
    1d20:	4640      	mov	r0, r8
    1d22:	f7ff fe1a 	bl	195a <put_mpi>
/media/wen/My_Passport/Raspbian/raspbian-tee/raspbian-tee/optee_os/lib/libutee/tee_api_arith_mpi.c:696
    1d26:	4638      	mov	r0, r7
    1d28:	f7ff fe17 	bl	195a <put_mpi>
/media/wen/My_Passport/Raspbian/raspbian-tee/raspbian-tee/optee_os/lib/libutee/tee_api_arith_mpi.c:697
    1d2c:	4628      	mov	r0, r5
    1d2e:	f7ff fe14 	bl	195a <put_mpi>
/media/wen/My_Passport/Raspbian/raspbian-tee/raspbian-tee/optee_os/lib/libutee/tee_api_arith_mpi.c:698
    1d32:	4620      	mov	r0, r4
    1d34:	f7ff fe11 	bl	195a <put_mpi>
/media/wen/My_Passport/Raspbian/raspbian-tee/raspbian-tee/optee_os/lib/libutee/tee_api_arith_mpi.c:699
    1d38:	4650      	mov	r0, sl
    1d3a:	f7ff fe0e 	bl	195a <put_mpi>
/media/wen/My_Passport/Raspbian/raspbian-tee/raspbian-tee/optee_os/lib/libutee/tee_api_arith_mpi.c:700
    1d3e:	4658      	mov	r0, fp
    1d40:	f7ff fe0b 	bl	195a <put_mpi>
/media/wen/My_Passport/Raspbian/raspbian-tee/raspbian-tee/optee_os/lib/libutee/tee_api_arith_mpi.c:701
    1d44:	4630      	mov	r0, r6
    1d46:	f7ff fe08 	bl	195a <put_mpi>
/media/wen/My_Passport/Raspbian/raspbian-tee/raspbian-tee/optee_os/lib/libutee/tee_api_arith_mpi.c:702
    1d4a:	b01b      	add	sp, #108	; 0x6c
    1d4c:	e8bd 8ff0 	ldmia.w	sp!, {r4, r5, r6, r7, r8, r9, sl, fp, pc}
    1d50:	00004a31 	.word	0x00004a31
    1d54:	00004a17 	.word	0x00004a17
    1d58:	000049fd 	.word	0x000049fd
    1d5c:	000049e7 	.word	0x000049e7
    1d60:	000049d1 	.word	0x000049d1
    1d64:	000049bb 	.word	0x000049bb
    1d68:	0000499b 	.word	0x0000499b
    1d6c:	00004973 	.word	0x00004973
    1d70:	0000495d 	.word	0x0000495d
    1d74:	00004947 	.word	0x00004947
    1d78:	00004931 	.word	0x00004931
    1d7c:	0000491b 	.word	0x0000491b
    1d80:	00004901 	.word	0x00004901
    1d84:	000048eb 	.word	0x000048eb
    1d88:	000048cb 	.word	0x000048cb
    1d8c:	000048ab 	.word	0x000048ab
    1d90:	00004891 	.word	0x00004891
    1d94:	0000487b 	.word	0x0000487b
    1d98:	00004843 	.word	0x00004843
    1d9c:	0000482d 	.word	0x0000482d
    1da0:	0000480d 	.word	0x0000480d
    1da4:	000047ed 	.word	0x000047ed
    1da8:	000047d3 	.word	0x000047d3
    1dac:	000047bb 	.word	0x000047bb
    1db0:	000047a3 	.word	0x000047a3
    1db4:	0000478b 	.word	0x0000478b
    1db8:	00004773 	.word	0x00004773
    1dbc:	0000475b 	.word	0x0000475b
    1dc0:	00004743 	.word	0x00004743
    1dc4:	0000471f 	.word	0x0000471f
    1dc8:	00004709 	.word	0x00004709
    1dcc:	000046f3 	.word	0x000046f3

00001dd0 <get_mpi>:
get_mpi():
/media/wen/My_Passport/Raspbian/raspbian-tee/raspbian-tee/optee_os/lib/libutee/tee_api_arith_mpi.c:81
    1dd0:	b507      	push	{r0, r1, r2, lr}
/media/wen/My_Passport/Raspbian/raspbian-tee/raspbian-tee/optee_os/lib/libutee/tee_api_arith_mpi.c:96
    1dd2:	b151      	cbz	r1, 1dea <get_mpi+0x1a>
init_static_mpi():
/media/wen/My_Passport/Raspbian/raspbian-tee/raspbian-tee/optee_os/lib/libutee/tee_api_arith_mpi.c:65
    1dd4:	88ca      	ldrh	r2, [r1, #6]
    1dd6:	888b      	ldrh	r3, [r1, #4]
    1dd8:	3108      	adds	r1, #8
    1dda:	9200      	str	r2, [sp, #0]
    1ddc:	f851 2c08 	ldr.w	r2, [r1, #-8]
    1de0:	f000 ffdc 	bl	2d9c <mbedtls_mpi_init_static>
get_mpi():
/media/wen/My_Passport/Raspbian/raspbian-tee/raspbian-tee/optee_os/lib/libutee/tee_api_arith_mpi.c:100
    1de4:	b003      	add	sp, #12
    1de6:	f85d fb04 	ldr.w	pc, [sp], #4
    1dea:	b003      	add	sp, #12
    1dec:	f85d eb04 	ldr.w	lr, [sp], #4
/media/wen/My_Passport/Raspbian/raspbian-tee/raspbian-tee/optee_os/lib/libutee/tee_api_arith_mpi.c:99
    1df0:	f000 bfc2 	b.w	2d78 <mbedtls_mpi_init_mempool>

00001df4 <bigint_binary>:
bigint_binary():
/media/wen/My_Passport/Raspbian/raspbian-tee/raspbian-tee/optee_os/lib/libutee/tee_api_arith_mpi.c:336
    1df4:	e92d 47f0 	stmdb	sp!, {r4, r5, r6, r7, r8, r9, sl, lr}
    1df8:	4607      	mov	r7, r0
    1dfa:	4689      	mov	r9, r1
    1dfc:	b08a      	sub	sp, #40	; 0x28
/media/wen/My_Passport/Raspbian/raspbian-tee/raspbian-tee/optee_os/lib/libutee/tee_api_arith_mpi.c:343
    1dfe:	4601      	mov	r1, r0
    1e00:	ae01      	add	r6, sp, #4
/media/wen/My_Passport/Raspbian/raspbian-tee/raspbian-tee/optee_os/lib/libutee/tee_api_arith_mpi.c:336
    1e02:	4614      	mov	r4, r2
/media/wen/My_Passport/Raspbian/raspbian-tee/raspbian-tee/optee_os/lib/libutee/tee_api_arith_mpi.c:343
